
Study_IIC3.elf:     file format elf32-littlearm

Sections:
Idx Name          Size      VMA       LMA       File off  Algn
  0 .isr_vector   0000010c  08000000  08000000  00010000  2**0
                  CONTENTS, ALLOC, LOAD, READONLY, DATA
  1 .text         00006cd4  08000110  08000110  00010110  2**3
                  CONTENTS, ALLOC, LOAD, READONLY, CODE
  2 .rodata       00000508  08006de8  08006de8  00016de8  2**3
                  CONTENTS, ALLOC, LOAD, READONLY, DATA
  3 .ARM.extab    00000000  080072f0  080072f0  000201f0  2**0
                  CONTENTS
  4 .ARM          00000000  080072f0  080072f0  000201f0  2**0
                  CONTENTS
  5 .preinit_array 00000000  080072f0  080072f0  000201f0  2**0
                  CONTENTS, ALLOC, LOAD, DATA
  6 .init_array   00000004  080072f0  080072f0  000172f0  2**2
                  CONTENTS, ALLOC, LOAD, DATA
  7 .fini_array   00000004  080072f4  080072f4  000172f4  2**2
                  CONTENTS, ALLOC, LOAD, DATA
  8 .data         000001f0  20000000  080072f8  00020000  2**3
                  CONTENTS, ALLOC, LOAD, DATA
  9 .bss          00000250  200001f0  080074e8  000201f0  2**2
                  ALLOC
 10 ._user_heap_stack 00000600  20000440  080074e8  00020440  2**0
                  ALLOC
 11 .ARM.attributes 00000029  00000000  00000000  000201f0  2**0
                  CONTENTS, READONLY
 12 .comment      00000043  00000000  00000000  00020219  2**0
                  CONTENTS, READONLY
 13 .debug_info   0000ae71  00000000  00000000  0002025c  2**0
                  CONTENTS, READONLY, DEBUGGING, OCTETS
 14 .debug_abbrev 000020e2  00000000  00000000  0002b0cd  2**0
                  CONTENTS, READONLY, DEBUGGING, OCTETS
 15 .debug_aranges 00000748  00000000  00000000  0002d1b0  2**3
                  CONTENTS, READONLY, DEBUGGING, OCTETS
 16 .debug_rnglists 000006a3  00000000  00000000  0002d8f8  2**0
                  CONTENTS, READONLY, DEBUGGING, OCTETS
 17 .debug_macro  00017c94  00000000  00000000  0002df9b  2**0
                  CONTENTS, READONLY, DEBUGGING, OCTETS
 18 .debug_line   0000cf7d  00000000  00000000  00045c2f  2**0
                  CONTENTS, READONLY, DEBUGGING, OCTETS
 19 .debug_str    00081f80  00000000  00000000  00052bac  2**0
                  CONTENTS, READONLY, DEBUGGING, OCTETS
 20 .debug_frame  00002874  00000000  00000000  000d4b2c  2**2
                  CONTENTS, READONLY, DEBUGGING, OCTETS
 21 .debug_loclists 000040f2  00000000  00000000  000d73a0  2**0
                  CONTENTS, READONLY, DEBUGGING, OCTETS
 22 .debug_line_str 00000069  00000000  00000000  000db492  2**0
                  CONTENTS, READONLY, DEBUGGING, OCTETS

Disassembly of section .text:

08000110 <__do_global_dtors_aux>:
 8000110:	b510      	push	{r4, lr}
 8000112:	4c05      	ldr	r4, [pc, #20]	; (8000128 <__do_global_dtors_aux+0x18>)
 8000114:	7823      	ldrb	r3, [r4, #0]
 8000116:	b933      	cbnz	r3, 8000126 <__do_global_dtors_aux+0x16>
 8000118:	4b04      	ldr	r3, [pc, #16]	; (800012c <__do_global_dtors_aux+0x1c>)
 800011a:	b113      	cbz	r3, 8000122 <__do_global_dtors_aux+0x12>
 800011c:	4804      	ldr	r0, [pc, #16]	; (8000130 <__do_global_dtors_aux+0x20>)
 800011e:	f3af 8000 	nop.w
 8000122:	2301      	movs	r3, #1
 8000124:	7023      	strb	r3, [r4, #0]
 8000126:	bd10      	pop	{r4, pc}
 8000128:	200001f0 	.word	0x200001f0
 800012c:	00000000 	.word	0x00000000
 8000130:	08006dcc 	.word	0x08006dcc

08000134 <frame_dummy>:
 8000134:	b508      	push	{r3, lr}
 8000136:	4b03      	ldr	r3, [pc, #12]	; (8000144 <frame_dummy+0x10>)
 8000138:	b11b      	cbz	r3, 8000142 <frame_dummy+0xe>
 800013a:	4903      	ldr	r1, [pc, #12]	; (8000148 <frame_dummy+0x14>)
 800013c:	4803      	ldr	r0, [pc, #12]	; (800014c <frame_dummy+0x18>)
 800013e:	f3af 8000 	nop.w
 8000142:	bd08      	pop	{r3, pc}
 8000144:	00000000 	.word	0x00000000
 8000148:	200001f4 	.word	0x200001f4
 800014c:	08006dcc 	.word	0x08006dcc

08000150 <strlen>:
 8000150:	4603      	mov	r3, r0
 8000152:	f813 2b01 	ldrb.w	r2, [r3], #1
 8000156:	2a00      	cmp	r2, #0
 8000158:	d1fb      	bne.n	8000152 <strlen+0x2>
 800015a:	1a18      	subs	r0, r3, r0
 800015c:	3801      	subs	r0, #1
 800015e:	4770      	bx	lr

08000160 <__aeabi_drsub>:
 8000160:	f081 4100 	eor.w	r1, r1, #2147483648	; 0x80000000
 8000164:	e002      	b.n	800016c <__adddf3>
 8000166:	bf00      	nop

08000168 <__aeabi_dsub>:
 8000168:	f083 4300 	eor.w	r3, r3, #2147483648	; 0x80000000

0800016c <__adddf3>:
 800016c:	b530      	push	{r4, r5, lr}
 800016e:	ea4f 0441 	mov.w	r4, r1, lsl #1
 8000172:	ea4f 0543 	mov.w	r5, r3, lsl #1
 8000176:	ea94 0f05 	teq	r4, r5
 800017a:	bf08      	it	eq
 800017c:	ea90 0f02 	teqeq	r0, r2
 8000180:	bf1f      	itttt	ne
 8000182:	ea54 0c00 	orrsne.w	ip, r4, r0
 8000186:	ea55 0c02 	orrsne.w	ip, r5, r2
 800018a:	ea7f 5c64 	mvnsne.w	ip, r4, asr #21
 800018e:	ea7f 5c65 	mvnsne.w	ip, r5, asr #21
 8000192:	f000 80e2 	beq.w	800035a <__adddf3+0x1ee>
 8000196:	ea4f 5454 	mov.w	r4, r4, lsr #21
 800019a:	ebd4 5555 	rsbs	r5, r4, r5, lsr #21
 800019e:	bfb8      	it	lt
 80001a0:	426d      	neglt	r5, r5
 80001a2:	dd0c      	ble.n	80001be <__adddf3+0x52>
 80001a4:	442c      	add	r4, r5
 80001a6:	ea80 0202 	eor.w	r2, r0, r2
 80001aa:	ea81 0303 	eor.w	r3, r1, r3
 80001ae:	ea82 0000 	eor.w	r0, r2, r0
 80001b2:	ea83 0101 	eor.w	r1, r3, r1
 80001b6:	ea80 0202 	eor.w	r2, r0, r2
 80001ba:	ea81 0303 	eor.w	r3, r1, r3
 80001be:	2d36      	cmp	r5, #54	; 0x36
 80001c0:	bf88      	it	hi
 80001c2:	bd30      	pophi	{r4, r5, pc}
 80001c4:	f011 4f00 	tst.w	r1, #2147483648	; 0x80000000
 80001c8:	ea4f 3101 	mov.w	r1, r1, lsl #12
 80001cc:	f44f 1c80 	mov.w	ip, #1048576	; 0x100000
 80001d0:	ea4c 3111 	orr.w	r1, ip, r1, lsr #12
 80001d4:	d002      	beq.n	80001dc <__adddf3+0x70>
 80001d6:	4240      	negs	r0, r0
 80001d8:	eb61 0141 	sbc.w	r1, r1, r1, lsl #1
 80001dc:	f013 4f00 	tst.w	r3, #2147483648	; 0x80000000
 80001e0:	ea4f 3303 	mov.w	r3, r3, lsl #12
 80001e4:	ea4c 3313 	orr.w	r3, ip, r3, lsr #12
 80001e8:	d002      	beq.n	80001f0 <__adddf3+0x84>
 80001ea:	4252      	negs	r2, r2
 80001ec:	eb63 0343 	sbc.w	r3, r3, r3, lsl #1
 80001f0:	ea94 0f05 	teq	r4, r5
 80001f4:	f000 80a7 	beq.w	8000346 <__adddf3+0x1da>
 80001f8:	f1a4 0401 	sub.w	r4, r4, #1
 80001fc:	f1d5 0e20 	rsbs	lr, r5, #32
 8000200:	db0d      	blt.n	800021e <__adddf3+0xb2>
 8000202:	fa02 fc0e 	lsl.w	ip, r2, lr
 8000206:	fa22 f205 	lsr.w	r2, r2, r5
 800020a:	1880      	adds	r0, r0, r2
 800020c:	f141 0100 	adc.w	r1, r1, #0
 8000210:	fa03 f20e 	lsl.w	r2, r3, lr
 8000214:	1880      	adds	r0, r0, r2
 8000216:	fa43 f305 	asr.w	r3, r3, r5
 800021a:	4159      	adcs	r1, r3
 800021c:	e00e      	b.n	800023c <__adddf3+0xd0>
 800021e:	f1a5 0520 	sub.w	r5, r5, #32
 8000222:	f10e 0e20 	add.w	lr, lr, #32
 8000226:	2a01      	cmp	r2, #1
 8000228:	fa03 fc0e 	lsl.w	ip, r3, lr
 800022c:	bf28      	it	cs
 800022e:	f04c 0c02 	orrcs.w	ip, ip, #2
 8000232:	fa43 f305 	asr.w	r3, r3, r5
 8000236:	18c0      	adds	r0, r0, r3
 8000238:	eb51 71e3 	adcs.w	r1, r1, r3, asr #31
 800023c:	f001 4500 	and.w	r5, r1, #2147483648	; 0x80000000
 8000240:	d507      	bpl.n	8000252 <__adddf3+0xe6>
 8000242:	f04f 0e00 	mov.w	lr, #0
 8000246:	f1dc 0c00 	rsbs	ip, ip, #0
 800024a:	eb7e 0000 	sbcs.w	r0, lr, r0
 800024e:	eb6e 0101 	sbc.w	r1, lr, r1
 8000252:	f5b1 1f80 	cmp.w	r1, #1048576	; 0x100000
 8000256:	d31b      	bcc.n	8000290 <__adddf3+0x124>
 8000258:	f5b1 1f00 	cmp.w	r1, #2097152	; 0x200000
 800025c:	d30c      	bcc.n	8000278 <__adddf3+0x10c>
 800025e:	0849      	lsrs	r1, r1, #1
 8000260:	ea5f 0030 	movs.w	r0, r0, rrx
 8000264:	ea4f 0c3c 	mov.w	ip, ip, rrx
 8000268:	f104 0401 	add.w	r4, r4, #1
 800026c:	ea4f 5244 	mov.w	r2, r4, lsl #21
 8000270:	f512 0f80 	cmn.w	r2, #4194304	; 0x400000
 8000274:	f080 809a 	bcs.w	80003ac <__adddf3+0x240>
 8000278:	f1bc 4f00 	cmp.w	ip, #2147483648	; 0x80000000
 800027c:	bf08      	it	eq
 800027e:	ea5f 0c50 	movseq.w	ip, r0, lsr #1
 8000282:	f150 0000 	adcs.w	r0, r0, #0
 8000286:	eb41 5104 	adc.w	r1, r1, r4, lsl #20
 800028a:	ea41 0105 	orr.w	r1, r1, r5
 800028e:	bd30      	pop	{r4, r5, pc}
 8000290:	ea5f 0c4c 	movs.w	ip, ip, lsl #1
 8000294:	4140      	adcs	r0, r0
 8000296:	eb41 0101 	adc.w	r1, r1, r1
 800029a:	3c01      	subs	r4, #1
 800029c:	bf28      	it	cs
 800029e:	f5b1 1f80 	cmpcs.w	r1, #1048576	; 0x100000
 80002a2:	d2e9      	bcs.n	8000278 <__adddf3+0x10c>
 80002a4:	f091 0f00 	teq	r1, #0
 80002a8:	bf04      	itt	eq
 80002aa:	4601      	moveq	r1, r0
 80002ac:	2000      	moveq	r0, #0
 80002ae:	fab1 f381 	clz	r3, r1
 80002b2:	bf08      	it	eq
 80002b4:	3320      	addeq	r3, #32
 80002b6:	f1a3 030b 	sub.w	r3, r3, #11
 80002ba:	f1b3 0220 	subs.w	r2, r3, #32
 80002be:	da0c      	bge.n	80002da <__adddf3+0x16e>
 80002c0:	320c      	adds	r2, #12
 80002c2:	dd08      	ble.n	80002d6 <__adddf3+0x16a>
 80002c4:	f102 0c14 	add.w	ip, r2, #20
 80002c8:	f1c2 020c 	rsb	r2, r2, #12
 80002cc:	fa01 f00c 	lsl.w	r0, r1, ip
 80002d0:	fa21 f102 	lsr.w	r1, r1, r2
 80002d4:	e00c      	b.n	80002f0 <__adddf3+0x184>
 80002d6:	f102 0214 	add.w	r2, r2, #20
 80002da:	bfd8      	it	le
 80002dc:	f1c2 0c20 	rsble	ip, r2, #32
 80002e0:	fa01 f102 	lsl.w	r1, r1, r2
 80002e4:	fa20 fc0c 	lsr.w	ip, r0, ip
 80002e8:	bfdc      	itt	le
 80002ea:	ea41 010c 	orrle.w	r1, r1, ip
 80002ee:	4090      	lslle	r0, r2
 80002f0:	1ae4      	subs	r4, r4, r3
 80002f2:	bfa2      	ittt	ge
 80002f4:	eb01 5104 	addge.w	r1, r1, r4, lsl #20
 80002f8:	4329      	orrge	r1, r5
 80002fa:	bd30      	popge	{r4, r5, pc}
 80002fc:	ea6f 0404 	mvn.w	r4, r4
 8000300:	3c1f      	subs	r4, #31
 8000302:	da1c      	bge.n	800033e <__adddf3+0x1d2>
 8000304:	340c      	adds	r4, #12
 8000306:	dc0e      	bgt.n	8000326 <__adddf3+0x1ba>
 8000308:	f104 0414 	add.w	r4, r4, #20
 800030c:	f1c4 0220 	rsb	r2, r4, #32
 8000310:	fa20 f004 	lsr.w	r0, r0, r4
 8000314:	fa01 f302 	lsl.w	r3, r1, r2
 8000318:	ea40 0003 	orr.w	r0, r0, r3
 800031c:	fa21 f304 	lsr.w	r3, r1, r4
 8000320:	ea45 0103 	orr.w	r1, r5, r3
 8000324:	bd30      	pop	{r4, r5, pc}
 8000326:	f1c4 040c 	rsb	r4, r4, #12
 800032a:	f1c4 0220 	rsb	r2, r4, #32
 800032e:	fa20 f002 	lsr.w	r0, r0, r2
 8000332:	fa01 f304 	lsl.w	r3, r1, r4
 8000336:	ea40 0003 	orr.w	r0, r0, r3
 800033a:	4629      	mov	r1, r5
 800033c:	bd30      	pop	{r4, r5, pc}
 800033e:	fa21 f004 	lsr.w	r0, r1, r4
 8000342:	4629      	mov	r1, r5
 8000344:	bd30      	pop	{r4, r5, pc}
 8000346:	f094 0f00 	teq	r4, #0
 800034a:	f483 1380 	eor.w	r3, r3, #1048576	; 0x100000
 800034e:	bf06      	itte	eq
 8000350:	f481 1180 	eoreq.w	r1, r1, #1048576	; 0x100000
 8000354:	3401      	addeq	r4, #1
 8000356:	3d01      	subne	r5, #1
 8000358:	e74e      	b.n	80001f8 <__adddf3+0x8c>
 800035a:	ea7f 5c64 	mvns.w	ip, r4, asr #21
 800035e:	bf18      	it	ne
 8000360:	ea7f 5c65 	mvnsne.w	ip, r5, asr #21
 8000364:	d029      	beq.n	80003ba <__adddf3+0x24e>
 8000366:	ea94 0f05 	teq	r4, r5
 800036a:	bf08      	it	eq
 800036c:	ea90 0f02 	teqeq	r0, r2
 8000370:	d005      	beq.n	800037e <__adddf3+0x212>
 8000372:	ea54 0c00 	orrs.w	ip, r4, r0
 8000376:	bf04      	itt	eq
 8000378:	4619      	moveq	r1, r3
 800037a:	4610      	moveq	r0, r2
 800037c:	bd30      	pop	{r4, r5, pc}
 800037e:	ea91 0f03 	teq	r1, r3
 8000382:	bf1e      	ittt	ne
 8000384:	2100      	movne	r1, #0
 8000386:	2000      	movne	r0, #0
 8000388:	bd30      	popne	{r4, r5, pc}
 800038a:	ea5f 5c54 	movs.w	ip, r4, lsr #21
 800038e:	d105      	bne.n	800039c <__adddf3+0x230>
 8000390:	0040      	lsls	r0, r0, #1
 8000392:	4149      	adcs	r1, r1
 8000394:	bf28      	it	cs
 8000396:	f041 4100 	orrcs.w	r1, r1, #2147483648	; 0x80000000
 800039a:	bd30      	pop	{r4, r5, pc}
 800039c:	f514 0480 	adds.w	r4, r4, #4194304	; 0x400000
 80003a0:	bf3c      	itt	cc
 80003a2:	f501 1180 	addcc.w	r1, r1, #1048576	; 0x100000
 80003a6:	bd30      	popcc	{r4, r5, pc}
 80003a8:	f001 4500 	and.w	r5, r1, #2147483648	; 0x80000000
 80003ac:	f045 41fe 	orr.w	r1, r5, #2130706432	; 0x7f000000
 80003b0:	f441 0170 	orr.w	r1, r1, #15728640	; 0xf00000
 80003b4:	f04f 0000 	mov.w	r0, #0
 80003b8:	bd30      	pop	{r4, r5, pc}
 80003ba:	ea7f 5c64 	mvns.w	ip, r4, asr #21
 80003be:	bf1a      	itte	ne
 80003c0:	4619      	movne	r1, r3
 80003c2:	4610      	movne	r0, r2
 80003c4:	ea7f 5c65 	mvnseq.w	ip, r5, asr #21
 80003c8:	bf1c      	itt	ne
 80003ca:	460b      	movne	r3, r1
 80003cc:	4602      	movne	r2, r0
 80003ce:	ea50 3401 	orrs.w	r4, r0, r1, lsl #12
 80003d2:	bf06      	itte	eq
 80003d4:	ea52 3503 	orrseq.w	r5, r2, r3, lsl #12
 80003d8:	ea91 0f03 	teqeq	r1, r3
 80003dc:	f441 2100 	orrne.w	r1, r1, #524288	; 0x80000
 80003e0:	bd30      	pop	{r4, r5, pc}
 80003e2:	bf00      	nop

080003e4 <__aeabi_ui2d>:
 80003e4:	f090 0f00 	teq	r0, #0
 80003e8:	bf04      	itt	eq
 80003ea:	2100      	moveq	r1, #0
 80003ec:	4770      	bxeq	lr
 80003ee:	b530      	push	{r4, r5, lr}
 80003f0:	f44f 6480 	mov.w	r4, #1024	; 0x400
 80003f4:	f104 0432 	add.w	r4, r4, #50	; 0x32
 80003f8:	f04f 0500 	mov.w	r5, #0
 80003fc:	f04f 0100 	mov.w	r1, #0
 8000400:	e750      	b.n	80002a4 <__adddf3+0x138>
 8000402:	bf00      	nop

08000404 <__aeabi_i2d>:
 8000404:	f090 0f00 	teq	r0, #0
 8000408:	bf04      	itt	eq
 800040a:	2100      	moveq	r1, #0
 800040c:	4770      	bxeq	lr
 800040e:	b530      	push	{r4, r5, lr}
 8000410:	f44f 6480 	mov.w	r4, #1024	; 0x400
 8000414:	f104 0432 	add.w	r4, r4, #50	; 0x32
 8000418:	f010 4500 	ands.w	r5, r0, #2147483648	; 0x80000000
 800041c:	bf48      	it	mi
 800041e:	4240      	negmi	r0, r0
 8000420:	f04f 0100 	mov.w	r1, #0
 8000424:	e73e      	b.n	80002a4 <__adddf3+0x138>
 8000426:	bf00      	nop

08000428 <__aeabi_f2d>:
 8000428:	0042      	lsls	r2, r0, #1
 800042a:	ea4f 01e2 	mov.w	r1, r2, asr #3
 800042e:	ea4f 0131 	mov.w	r1, r1, rrx
 8000432:	ea4f 7002 	mov.w	r0, r2, lsl #28
 8000436:	bf1f      	itttt	ne
 8000438:	f012 437f 	andsne.w	r3, r2, #4278190080	; 0xff000000
 800043c:	f093 4f7f 	teqne	r3, #4278190080	; 0xff000000
 8000440:	f081 5160 	eorne.w	r1, r1, #939524096	; 0x38000000
 8000444:	4770      	bxne	lr
 8000446:	f032 427f 	bics.w	r2, r2, #4278190080	; 0xff000000
 800044a:	bf08      	it	eq
 800044c:	4770      	bxeq	lr
 800044e:	f093 4f7f 	teq	r3, #4278190080	; 0xff000000
 8000452:	bf04      	itt	eq
 8000454:	f441 2100 	orreq.w	r1, r1, #524288	; 0x80000
 8000458:	4770      	bxeq	lr
 800045a:	b530      	push	{r4, r5, lr}
 800045c:	f44f 7460 	mov.w	r4, #896	; 0x380
 8000460:	f001 4500 	and.w	r5, r1, #2147483648	; 0x80000000
 8000464:	f021 4100 	bic.w	r1, r1, #2147483648	; 0x80000000
 8000468:	e71c      	b.n	80002a4 <__adddf3+0x138>
 800046a:	bf00      	nop

0800046c <__aeabi_ul2d>:
 800046c:	ea50 0201 	orrs.w	r2, r0, r1
 8000470:	bf08      	it	eq
 8000472:	4770      	bxeq	lr
 8000474:	b530      	push	{r4, r5, lr}
 8000476:	f04f 0500 	mov.w	r5, #0
 800047a:	e00a      	b.n	8000492 <__aeabi_l2d+0x16>

0800047c <__aeabi_l2d>:
 800047c:	ea50 0201 	orrs.w	r2, r0, r1
 8000480:	bf08      	it	eq
 8000482:	4770      	bxeq	lr
 8000484:	b530      	push	{r4, r5, lr}
 8000486:	f011 4500 	ands.w	r5, r1, #2147483648	; 0x80000000
 800048a:	d502      	bpl.n	8000492 <__aeabi_l2d+0x16>
 800048c:	4240      	negs	r0, r0
 800048e:	eb61 0141 	sbc.w	r1, r1, r1, lsl #1
 8000492:	f44f 6480 	mov.w	r4, #1024	; 0x400
 8000496:	f104 0432 	add.w	r4, r4, #50	; 0x32
 800049a:	ea5f 5c91 	movs.w	ip, r1, lsr #22
 800049e:	f43f aed8 	beq.w	8000252 <__adddf3+0xe6>
 80004a2:	f04f 0203 	mov.w	r2, #3
 80004a6:	ea5f 0cdc 	movs.w	ip, ip, lsr #3
 80004aa:	bf18      	it	ne
 80004ac:	3203      	addne	r2, #3
 80004ae:	ea5f 0cdc 	movs.w	ip, ip, lsr #3
 80004b2:	bf18      	it	ne
 80004b4:	3203      	addne	r2, #3
 80004b6:	eb02 02dc 	add.w	r2, r2, ip, lsr #3
 80004ba:	f1c2 0320 	rsb	r3, r2, #32
 80004be:	fa00 fc03 	lsl.w	ip, r0, r3
 80004c2:	fa20 f002 	lsr.w	r0, r0, r2
 80004c6:	fa01 fe03 	lsl.w	lr, r1, r3
 80004ca:	ea40 000e 	orr.w	r0, r0, lr
 80004ce:	fa21 f102 	lsr.w	r1, r1, r2
 80004d2:	4414      	add	r4, r2
 80004d4:	e6bd      	b.n	8000252 <__adddf3+0xe6>
 80004d6:	bf00      	nop

080004d8 <__aeabi_dmul>:
 80004d8:	b570      	push	{r4, r5, r6, lr}
 80004da:	f04f 0cff 	mov.w	ip, #255	; 0xff
 80004de:	f44c 6ce0 	orr.w	ip, ip, #1792	; 0x700
 80004e2:	ea1c 5411 	ands.w	r4, ip, r1, lsr #20
 80004e6:	bf1d      	ittte	ne
 80004e8:	ea1c 5513 	andsne.w	r5, ip, r3, lsr #20
 80004ec:	ea94 0f0c 	teqne	r4, ip
 80004f0:	ea95 0f0c 	teqne	r5, ip
 80004f4:	f000 f8de 	bleq	80006b4 <__aeabi_dmul+0x1dc>
 80004f8:	442c      	add	r4, r5
 80004fa:	ea81 0603 	eor.w	r6, r1, r3
 80004fe:	ea21 514c 	bic.w	r1, r1, ip, lsl #21
 8000502:	ea23 534c 	bic.w	r3, r3, ip, lsl #21
 8000506:	ea50 3501 	orrs.w	r5, r0, r1, lsl #12
 800050a:	bf18      	it	ne
 800050c:	ea52 3503 	orrsne.w	r5, r2, r3, lsl #12
 8000510:	f441 1180 	orr.w	r1, r1, #1048576	; 0x100000
 8000514:	f443 1380 	orr.w	r3, r3, #1048576	; 0x100000
 8000518:	d038      	beq.n	800058c <__aeabi_dmul+0xb4>
 800051a:	fba0 ce02 	umull	ip, lr, r0, r2
 800051e:	f04f 0500 	mov.w	r5, #0
 8000522:	fbe1 e502 	umlal	lr, r5, r1, r2
 8000526:	f006 4200 	and.w	r2, r6, #2147483648	; 0x80000000
 800052a:	fbe0 e503 	umlal	lr, r5, r0, r3
 800052e:	f04f 0600 	mov.w	r6, #0
 8000532:	fbe1 5603 	umlal	r5, r6, r1, r3
 8000536:	f09c 0f00 	teq	ip, #0
 800053a:	bf18      	it	ne
 800053c:	f04e 0e01 	orrne.w	lr, lr, #1
 8000540:	f1a4 04ff 	sub.w	r4, r4, #255	; 0xff
 8000544:	f5b6 7f00 	cmp.w	r6, #512	; 0x200
 8000548:	f564 7440 	sbc.w	r4, r4, #768	; 0x300
 800054c:	d204      	bcs.n	8000558 <__aeabi_dmul+0x80>
 800054e:	ea5f 0e4e 	movs.w	lr, lr, lsl #1
 8000552:	416d      	adcs	r5, r5
 8000554:	eb46 0606 	adc.w	r6, r6, r6
 8000558:	ea42 21c6 	orr.w	r1, r2, r6, lsl #11
 800055c:	ea41 5155 	orr.w	r1, r1, r5, lsr #21
 8000560:	ea4f 20c5 	mov.w	r0, r5, lsl #11
 8000564:	ea40 505e 	orr.w	r0, r0, lr, lsr #21
 8000568:	ea4f 2ece 	mov.w	lr, lr, lsl #11
 800056c:	f1b4 0cfd 	subs.w	ip, r4, #253	; 0xfd
 8000570:	bf88      	it	hi
 8000572:	f5bc 6fe0 	cmphi.w	ip, #1792	; 0x700
 8000576:	d81e      	bhi.n	80005b6 <__aeabi_dmul+0xde>
 8000578:	f1be 4f00 	cmp.w	lr, #2147483648	; 0x80000000
 800057c:	bf08      	it	eq
 800057e:	ea5f 0e50 	movseq.w	lr, r0, lsr #1
 8000582:	f150 0000 	adcs.w	r0, r0, #0
 8000586:	eb41 5104 	adc.w	r1, r1, r4, lsl #20
 800058a:	bd70      	pop	{r4, r5, r6, pc}
 800058c:	f006 4600 	and.w	r6, r6, #2147483648	; 0x80000000
 8000590:	ea46 0101 	orr.w	r1, r6, r1
 8000594:	ea40 0002 	orr.w	r0, r0, r2
 8000598:	ea81 0103 	eor.w	r1, r1, r3
 800059c:	ebb4 045c 	subs.w	r4, r4, ip, lsr #1
 80005a0:	bfc2      	ittt	gt
 80005a2:	ebd4 050c 	rsbsgt	r5, r4, ip
 80005a6:	ea41 5104 	orrgt.w	r1, r1, r4, lsl #20
 80005aa:	bd70      	popgt	{r4, r5, r6, pc}
 80005ac:	f441 1180 	orr.w	r1, r1, #1048576	; 0x100000
 80005b0:	f04f 0e00 	mov.w	lr, #0
 80005b4:	3c01      	subs	r4, #1
 80005b6:	f300 80ab 	bgt.w	8000710 <__aeabi_dmul+0x238>
 80005ba:	f114 0f36 	cmn.w	r4, #54	; 0x36
 80005be:	bfde      	ittt	le
 80005c0:	2000      	movle	r0, #0
 80005c2:	f001 4100 	andle.w	r1, r1, #2147483648	; 0x80000000
 80005c6:	bd70      	pople	{r4, r5, r6, pc}
 80005c8:	f1c4 0400 	rsb	r4, r4, #0
 80005cc:	3c20      	subs	r4, #32
 80005ce:	da35      	bge.n	800063c <__aeabi_dmul+0x164>
 80005d0:	340c      	adds	r4, #12
 80005d2:	dc1b      	bgt.n	800060c <__aeabi_dmul+0x134>
 80005d4:	f104 0414 	add.w	r4, r4, #20
 80005d8:	f1c4 0520 	rsb	r5, r4, #32
 80005dc:	fa00 f305 	lsl.w	r3, r0, r5
 80005e0:	fa20 f004 	lsr.w	r0, r0, r4
 80005e4:	fa01 f205 	lsl.w	r2, r1, r5
 80005e8:	ea40 0002 	orr.w	r0, r0, r2
 80005ec:	f001 4200 	and.w	r2, r1, #2147483648	; 0x80000000
 80005f0:	f021 4100 	bic.w	r1, r1, #2147483648	; 0x80000000
 80005f4:	eb10 70d3 	adds.w	r0, r0, r3, lsr #31
 80005f8:	fa21 f604 	lsr.w	r6, r1, r4
 80005fc:	eb42 0106 	adc.w	r1, r2, r6
 8000600:	ea5e 0e43 	orrs.w	lr, lr, r3, lsl #1
 8000604:	bf08      	it	eq
 8000606:	ea20 70d3 	biceq.w	r0, r0, r3, lsr #31
 800060a:	bd70      	pop	{r4, r5, r6, pc}
 800060c:	f1c4 040c 	rsb	r4, r4, #12
 8000610:	f1c4 0520 	rsb	r5, r4, #32
 8000614:	fa00 f304 	lsl.w	r3, r0, r4
 8000618:	fa20 f005 	lsr.w	r0, r0, r5
 800061c:	fa01 f204 	lsl.w	r2, r1, r4
 8000620:	ea40 0002 	orr.w	r0, r0, r2
 8000624:	f001 4100 	and.w	r1, r1, #2147483648	; 0x80000000
 8000628:	eb10 70d3 	adds.w	r0, r0, r3, lsr #31
 800062c:	f141 0100 	adc.w	r1, r1, #0
 8000630:	ea5e 0e43 	orrs.w	lr, lr, r3, lsl #1
 8000634:	bf08      	it	eq
 8000636:	ea20 70d3 	biceq.w	r0, r0, r3, lsr #31
 800063a:	bd70      	pop	{r4, r5, r6, pc}
 800063c:	f1c4 0520 	rsb	r5, r4, #32
 8000640:	fa00 f205 	lsl.w	r2, r0, r5
 8000644:	ea4e 0e02 	orr.w	lr, lr, r2
 8000648:	fa20 f304 	lsr.w	r3, r0, r4
 800064c:	fa01 f205 	lsl.w	r2, r1, r5
 8000650:	ea43 0302 	orr.w	r3, r3, r2
 8000654:	fa21 f004 	lsr.w	r0, r1, r4
 8000658:	f001 4100 	and.w	r1, r1, #2147483648	; 0x80000000
 800065c:	fa21 f204 	lsr.w	r2, r1, r4
 8000660:	ea20 0002 	bic.w	r0, r0, r2
 8000664:	eb00 70d3 	add.w	r0, r0, r3, lsr #31
 8000668:	ea5e 0e43 	orrs.w	lr, lr, r3, lsl #1
 800066c:	bf08      	it	eq
 800066e:	ea20 70d3 	biceq.w	r0, r0, r3, lsr #31
 8000672:	bd70      	pop	{r4, r5, r6, pc}
 8000674:	f094 0f00 	teq	r4, #0
 8000678:	d10f      	bne.n	800069a <__aeabi_dmul+0x1c2>
 800067a:	f001 4600 	and.w	r6, r1, #2147483648	; 0x80000000
 800067e:	0040      	lsls	r0, r0, #1
 8000680:	eb41 0101 	adc.w	r1, r1, r1
 8000684:	f411 1f80 	tst.w	r1, #1048576	; 0x100000
 8000688:	bf08      	it	eq
 800068a:	3c01      	subeq	r4, #1
 800068c:	d0f7      	beq.n	800067e <__aeabi_dmul+0x1a6>
 800068e:	ea41 0106 	orr.w	r1, r1, r6
 8000692:	f095 0f00 	teq	r5, #0
 8000696:	bf18      	it	ne
 8000698:	4770      	bxne	lr
 800069a:	f003 4600 	and.w	r6, r3, #2147483648	; 0x80000000
 800069e:	0052      	lsls	r2, r2, #1
 80006a0:	eb43 0303 	adc.w	r3, r3, r3
 80006a4:	f413 1f80 	tst.w	r3, #1048576	; 0x100000
 80006a8:	bf08      	it	eq
 80006aa:	3d01      	subeq	r5, #1
 80006ac:	d0f7      	beq.n	800069e <__aeabi_dmul+0x1c6>
 80006ae:	ea43 0306 	orr.w	r3, r3, r6
 80006b2:	4770      	bx	lr
 80006b4:	ea94 0f0c 	teq	r4, ip
 80006b8:	ea0c 5513 	and.w	r5, ip, r3, lsr #20
 80006bc:	bf18      	it	ne
 80006be:	ea95 0f0c 	teqne	r5, ip
 80006c2:	d00c      	beq.n	80006de <__aeabi_dmul+0x206>
 80006c4:	ea50 0641 	orrs.w	r6, r0, r1, lsl #1
 80006c8:	bf18      	it	ne
 80006ca:	ea52 0643 	orrsne.w	r6, r2, r3, lsl #1
 80006ce:	d1d1      	bne.n	8000674 <__aeabi_dmul+0x19c>
 80006d0:	ea81 0103 	eor.w	r1, r1, r3
 80006d4:	f001 4100 	and.w	r1, r1, #2147483648	; 0x80000000
 80006d8:	f04f 0000 	mov.w	r0, #0
 80006dc:	bd70      	pop	{r4, r5, r6, pc}
 80006de:	ea50 0641 	orrs.w	r6, r0, r1, lsl #1
 80006e2:	bf06      	itte	eq
 80006e4:	4610      	moveq	r0, r2
 80006e6:	4619      	moveq	r1, r3
 80006e8:	ea52 0643 	orrsne.w	r6, r2, r3, lsl #1
 80006ec:	d019      	beq.n	8000722 <__aeabi_dmul+0x24a>
 80006ee:	ea94 0f0c 	teq	r4, ip
 80006f2:	d102      	bne.n	80006fa <__aeabi_dmul+0x222>
 80006f4:	ea50 3601 	orrs.w	r6, r0, r1, lsl #12
 80006f8:	d113      	bne.n	8000722 <__aeabi_dmul+0x24a>
 80006fa:	ea95 0f0c 	teq	r5, ip
 80006fe:	d105      	bne.n	800070c <__aeabi_dmul+0x234>
 8000700:	ea52 3603 	orrs.w	r6, r2, r3, lsl #12
 8000704:	bf1c      	itt	ne
 8000706:	4610      	movne	r0, r2
 8000708:	4619      	movne	r1, r3
 800070a:	d10a      	bne.n	8000722 <__aeabi_dmul+0x24a>
 800070c:	ea81 0103 	eor.w	r1, r1, r3
 8000710:	f001 4100 	and.w	r1, r1, #2147483648	; 0x80000000
 8000714:	f041 41fe 	orr.w	r1, r1, #2130706432	; 0x7f000000
 8000718:	f441 0170 	orr.w	r1, r1, #15728640	; 0xf00000
 800071c:	f04f 0000 	mov.w	r0, #0
 8000720:	bd70      	pop	{r4, r5, r6, pc}
 8000722:	f041 41fe 	orr.w	r1, r1, #2130706432	; 0x7f000000
 8000726:	f441 0178 	orr.w	r1, r1, #16252928	; 0xf80000
 800072a:	bd70      	pop	{r4, r5, r6, pc}

0800072c <__aeabi_ddiv>:
 800072c:	b570      	push	{r4, r5, r6, lr}
 800072e:	f04f 0cff 	mov.w	ip, #255	; 0xff
 8000732:	f44c 6ce0 	orr.w	ip, ip, #1792	; 0x700
 8000736:	ea1c 5411 	ands.w	r4, ip, r1, lsr #20
 800073a:	bf1d      	ittte	ne
 800073c:	ea1c 5513 	andsne.w	r5, ip, r3, lsr #20
 8000740:	ea94 0f0c 	teqne	r4, ip
 8000744:	ea95 0f0c 	teqne	r5, ip
 8000748:	f000 f8a7 	bleq	800089a <__aeabi_ddiv+0x16e>
 800074c:	eba4 0405 	sub.w	r4, r4, r5
 8000750:	ea81 0e03 	eor.w	lr, r1, r3
 8000754:	ea52 3503 	orrs.w	r5, r2, r3, lsl #12
 8000758:	ea4f 3101 	mov.w	r1, r1, lsl #12
 800075c:	f000 8088 	beq.w	8000870 <__aeabi_ddiv+0x144>
 8000760:	ea4f 3303 	mov.w	r3, r3, lsl #12
 8000764:	f04f 5580 	mov.w	r5, #268435456	; 0x10000000
 8000768:	ea45 1313 	orr.w	r3, r5, r3, lsr #4
 800076c:	ea43 6312 	orr.w	r3, r3, r2, lsr #24
 8000770:	ea4f 2202 	mov.w	r2, r2, lsl #8
 8000774:	ea45 1511 	orr.w	r5, r5, r1, lsr #4
 8000778:	ea45 6510 	orr.w	r5, r5, r0, lsr #24
 800077c:	ea4f 2600 	mov.w	r6, r0, lsl #8
 8000780:	f00e 4100 	and.w	r1, lr, #2147483648	; 0x80000000
 8000784:	429d      	cmp	r5, r3
 8000786:	bf08      	it	eq
 8000788:	4296      	cmpeq	r6, r2
 800078a:	f144 04fd 	adc.w	r4, r4, #253	; 0xfd
 800078e:	f504 7440 	add.w	r4, r4, #768	; 0x300
 8000792:	d202      	bcs.n	800079a <__aeabi_ddiv+0x6e>
 8000794:	085b      	lsrs	r3, r3, #1
 8000796:	ea4f 0232 	mov.w	r2, r2, rrx
 800079a:	1ab6      	subs	r6, r6, r2
 800079c:	eb65 0503 	sbc.w	r5, r5, r3
 80007a0:	085b      	lsrs	r3, r3, #1
 80007a2:	ea4f 0232 	mov.w	r2, r2, rrx
 80007a6:	f44f 1080 	mov.w	r0, #1048576	; 0x100000
 80007aa:	f44f 2c00 	mov.w	ip, #524288	; 0x80000
 80007ae:	ebb6 0e02 	subs.w	lr, r6, r2
 80007b2:	eb75 0e03 	sbcs.w	lr, r5, r3
 80007b6:	bf22      	ittt	cs
 80007b8:	1ab6      	subcs	r6, r6, r2
 80007ba:	4675      	movcs	r5, lr
 80007bc:	ea40 000c 	orrcs.w	r0, r0, ip
 80007c0:	085b      	lsrs	r3, r3, #1
 80007c2:	ea4f 0232 	mov.w	r2, r2, rrx
 80007c6:	ebb6 0e02 	subs.w	lr, r6, r2
 80007ca:	eb75 0e03 	sbcs.w	lr, r5, r3
 80007ce:	bf22      	ittt	cs
 80007d0:	1ab6      	subcs	r6, r6, r2
 80007d2:	4675      	movcs	r5, lr
 80007d4:	ea40 005c 	orrcs.w	r0, r0, ip, lsr #1
 80007d8:	085b      	lsrs	r3, r3, #1
 80007da:	ea4f 0232 	mov.w	r2, r2, rrx
 80007de:	ebb6 0e02 	subs.w	lr, r6, r2
 80007e2:	eb75 0e03 	sbcs.w	lr, r5, r3
 80007e6:	bf22      	ittt	cs
 80007e8:	1ab6      	subcs	r6, r6, r2
 80007ea:	4675      	movcs	r5, lr
 80007ec:	ea40 009c 	orrcs.w	r0, r0, ip, lsr #2
 80007f0:	085b      	lsrs	r3, r3, #1
 80007f2:	ea4f 0232 	mov.w	r2, r2, rrx
 80007f6:	ebb6 0e02 	subs.w	lr, r6, r2
 80007fa:	eb75 0e03 	sbcs.w	lr, r5, r3
 80007fe:	bf22      	ittt	cs
 8000800:	1ab6      	subcs	r6, r6, r2
 8000802:	4675      	movcs	r5, lr
 8000804:	ea40 00dc 	orrcs.w	r0, r0, ip, lsr #3
 8000808:	ea55 0e06 	orrs.w	lr, r5, r6
 800080c:	d018      	beq.n	8000840 <__aeabi_ddiv+0x114>
 800080e:	ea4f 1505 	mov.w	r5, r5, lsl #4
 8000812:	ea45 7516 	orr.w	r5, r5, r6, lsr #28
 8000816:	ea4f 1606 	mov.w	r6, r6, lsl #4
 800081a:	ea4f 03c3 	mov.w	r3, r3, lsl #3
 800081e:	ea43 7352 	orr.w	r3, r3, r2, lsr #29
 8000822:	ea4f 02c2 	mov.w	r2, r2, lsl #3
 8000826:	ea5f 1c1c 	movs.w	ip, ip, lsr #4
 800082a:	d1c0      	bne.n	80007ae <__aeabi_ddiv+0x82>
 800082c:	f411 1f80 	tst.w	r1, #1048576	; 0x100000
 8000830:	d10b      	bne.n	800084a <__aeabi_ddiv+0x11e>
 8000832:	ea41 0100 	orr.w	r1, r1, r0
 8000836:	f04f 0000 	mov.w	r0, #0
 800083a:	f04f 4c00 	mov.w	ip, #2147483648	; 0x80000000
 800083e:	e7b6      	b.n	80007ae <__aeabi_ddiv+0x82>
 8000840:	f411 1f80 	tst.w	r1, #1048576	; 0x100000
 8000844:	bf04      	itt	eq
 8000846:	4301      	orreq	r1, r0
 8000848:	2000      	moveq	r0, #0
 800084a:	f1b4 0cfd 	subs.w	ip, r4, #253	; 0xfd
 800084e:	bf88      	it	hi
 8000850:	f5bc 6fe0 	cmphi.w	ip, #1792	; 0x700
 8000854:	f63f aeaf 	bhi.w	80005b6 <__aeabi_dmul+0xde>
 8000858:	ebb5 0c03 	subs.w	ip, r5, r3
 800085c:	bf04      	itt	eq
 800085e:	ebb6 0c02 	subseq.w	ip, r6, r2
 8000862:	ea5f 0c50 	movseq.w	ip, r0, lsr #1
 8000866:	f150 0000 	adcs.w	r0, r0, #0
 800086a:	eb41 5104 	adc.w	r1, r1, r4, lsl #20
 800086e:	bd70      	pop	{r4, r5, r6, pc}
 8000870:	f00e 4e00 	and.w	lr, lr, #2147483648	; 0x80000000
 8000874:	ea4e 3111 	orr.w	r1, lr, r1, lsr #12
 8000878:	eb14 045c 	adds.w	r4, r4, ip, lsr #1
 800087c:	bfc2      	ittt	gt
 800087e:	ebd4 050c 	rsbsgt	r5, r4, ip
 8000882:	ea41 5104 	orrgt.w	r1, r1, r4, lsl #20
 8000886:	bd70      	popgt	{r4, r5, r6, pc}
 8000888:	f441 1180 	orr.w	r1, r1, #1048576	; 0x100000
 800088c:	f04f 0e00 	mov.w	lr, #0
 8000890:	3c01      	subs	r4, #1
 8000892:	e690      	b.n	80005b6 <__aeabi_dmul+0xde>
 8000894:	ea45 0e06 	orr.w	lr, r5, r6
 8000898:	e68d      	b.n	80005b6 <__aeabi_dmul+0xde>
 800089a:	ea0c 5513 	and.w	r5, ip, r3, lsr #20
 800089e:	ea94 0f0c 	teq	r4, ip
 80008a2:	bf08      	it	eq
 80008a4:	ea95 0f0c 	teqeq	r5, ip
 80008a8:	f43f af3b 	beq.w	8000722 <__aeabi_dmul+0x24a>
 80008ac:	ea94 0f0c 	teq	r4, ip
 80008b0:	d10a      	bne.n	80008c8 <__aeabi_ddiv+0x19c>
 80008b2:	ea50 3401 	orrs.w	r4, r0, r1, lsl #12
 80008b6:	f47f af34 	bne.w	8000722 <__aeabi_dmul+0x24a>
 80008ba:	ea95 0f0c 	teq	r5, ip
 80008be:	f47f af25 	bne.w	800070c <__aeabi_dmul+0x234>
 80008c2:	4610      	mov	r0, r2
 80008c4:	4619      	mov	r1, r3
 80008c6:	e72c      	b.n	8000722 <__aeabi_dmul+0x24a>
 80008c8:	ea95 0f0c 	teq	r5, ip
 80008cc:	d106      	bne.n	80008dc <__aeabi_ddiv+0x1b0>
 80008ce:	ea52 3503 	orrs.w	r5, r2, r3, lsl #12
 80008d2:	f43f aefd 	beq.w	80006d0 <__aeabi_dmul+0x1f8>
 80008d6:	4610      	mov	r0, r2
 80008d8:	4619      	mov	r1, r3
 80008da:	e722      	b.n	8000722 <__aeabi_dmul+0x24a>
 80008dc:	ea50 0641 	orrs.w	r6, r0, r1, lsl #1
 80008e0:	bf18      	it	ne
 80008e2:	ea52 0643 	orrsne.w	r6, r2, r3, lsl #1
 80008e6:	f47f aec5 	bne.w	8000674 <__aeabi_dmul+0x19c>
 80008ea:	ea50 0441 	orrs.w	r4, r0, r1, lsl #1
 80008ee:	f47f af0d 	bne.w	800070c <__aeabi_dmul+0x234>
 80008f2:	ea52 0543 	orrs.w	r5, r2, r3, lsl #1
 80008f6:	f47f aeeb 	bne.w	80006d0 <__aeabi_dmul+0x1f8>
 80008fa:	e712      	b.n	8000722 <__aeabi_dmul+0x24a>

080008fc <__gedf2>:
 80008fc:	f04f 3cff 	mov.w	ip, #4294967295
 8000900:	e006      	b.n	8000910 <__cmpdf2+0x4>
 8000902:	bf00      	nop

08000904 <__ledf2>:
 8000904:	f04f 0c01 	mov.w	ip, #1
 8000908:	e002      	b.n	8000910 <__cmpdf2+0x4>
 800090a:	bf00      	nop

0800090c <__cmpdf2>:
 800090c:	f04f 0c01 	mov.w	ip, #1
 8000910:	f84d cd04 	str.w	ip, [sp, #-4]!
 8000914:	ea4f 0c41 	mov.w	ip, r1, lsl #1
 8000918:	ea7f 5c6c 	mvns.w	ip, ip, asr #21
 800091c:	ea4f 0c43 	mov.w	ip, r3, lsl #1
 8000920:	bf18      	it	ne
 8000922:	ea7f 5c6c 	mvnsne.w	ip, ip, asr #21
 8000926:	d01b      	beq.n	8000960 <__cmpdf2+0x54>
 8000928:	b001      	add	sp, #4
 800092a:	ea50 0c41 	orrs.w	ip, r0, r1, lsl #1
 800092e:	bf0c      	ite	eq
 8000930:	ea52 0c43 	orrseq.w	ip, r2, r3, lsl #1
 8000934:	ea91 0f03 	teqne	r1, r3
 8000938:	bf02      	ittt	eq
 800093a:	ea90 0f02 	teqeq	r0, r2
 800093e:	2000      	moveq	r0, #0
 8000940:	4770      	bxeq	lr
 8000942:	f110 0f00 	cmn.w	r0, #0
 8000946:	ea91 0f03 	teq	r1, r3
 800094a:	bf58      	it	pl
 800094c:	4299      	cmppl	r1, r3
 800094e:	bf08      	it	eq
 8000950:	4290      	cmpeq	r0, r2
 8000952:	bf2c      	ite	cs
 8000954:	17d8      	asrcs	r0, r3, #31
 8000956:	ea6f 70e3 	mvncc.w	r0, r3, asr #31
 800095a:	f040 0001 	orr.w	r0, r0, #1
 800095e:	4770      	bx	lr
 8000960:	ea4f 0c41 	mov.w	ip, r1, lsl #1
 8000964:	ea7f 5c6c 	mvns.w	ip, ip, asr #21
 8000968:	d102      	bne.n	8000970 <__cmpdf2+0x64>
 800096a:	ea50 3c01 	orrs.w	ip, r0, r1, lsl #12
 800096e:	d107      	bne.n	8000980 <__cmpdf2+0x74>
 8000970:	ea4f 0c43 	mov.w	ip, r3, lsl #1
 8000974:	ea7f 5c6c 	mvns.w	ip, ip, asr #21
 8000978:	d1d6      	bne.n	8000928 <__cmpdf2+0x1c>
 800097a:	ea52 3c03 	orrs.w	ip, r2, r3, lsl #12
 800097e:	d0d3      	beq.n	8000928 <__cmpdf2+0x1c>
 8000980:	f85d 0b04 	ldr.w	r0, [sp], #4
 8000984:	4770      	bx	lr
 8000986:	bf00      	nop

08000988 <__aeabi_cdrcmple>:
 8000988:	4684      	mov	ip, r0
 800098a:	4610      	mov	r0, r2
 800098c:	4662      	mov	r2, ip
 800098e:	468c      	mov	ip, r1
 8000990:	4619      	mov	r1, r3
 8000992:	4663      	mov	r3, ip
 8000994:	e000      	b.n	8000998 <__aeabi_cdcmpeq>
 8000996:	bf00      	nop

08000998 <__aeabi_cdcmpeq>:
 8000998:	b501      	push	{r0, lr}
 800099a:	f7ff ffb7 	bl	800090c <__cmpdf2>
 800099e:	2800      	cmp	r0, #0
 80009a0:	bf48      	it	mi
 80009a2:	f110 0f00 	cmnmi.w	r0, #0
 80009a6:	bd01      	pop	{r0, pc}

080009a8 <__aeabi_dcmpeq>:
 80009a8:	f84d ed08 	str.w	lr, [sp, #-8]!
 80009ac:	f7ff fff4 	bl	8000998 <__aeabi_cdcmpeq>
 80009b0:	bf0c      	ite	eq
 80009b2:	2001      	moveq	r0, #1
 80009b4:	2000      	movne	r0, #0
 80009b6:	f85d fb08 	ldr.w	pc, [sp], #8
 80009ba:	bf00      	nop

080009bc <__aeabi_dcmplt>:
 80009bc:	f84d ed08 	str.w	lr, [sp, #-8]!
 80009c0:	f7ff ffea 	bl	8000998 <__aeabi_cdcmpeq>
 80009c4:	bf34      	ite	cc
 80009c6:	2001      	movcc	r0, #1
 80009c8:	2000      	movcs	r0, #0
 80009ca:	f85d fb08 	ldr.w	pc, [sp], #8
 80009ce:	bf00      	nop

080009d0 <__aeabi_dcmple>:
 80009d0:	f84d ed08 	str.w	lr, [sp, #-8]!
 80009d4:	f7ff ffe0 	bl	8000998 <__aeabi_cdcmpeq>
 80009d8:	bf94      	ite	ls
 80009da:	2001      	movls	r0, #1
 80009dc:	2000      	movhi	r0, #0
 80009de:	f85d fb08 	ldr.w	pc, [sp], #8
 80009e2:	bf00      	nop

080009e4 <__aeabi_dcmpge>:
 80009e4:	f84d ed08 	str.w	lr, [sp, #-8]!
 80009e8:	f7ff ffce 	bl	8000988 <__aeabi_cdrcmple>
 80009ec:	bf94      	ite	ls
 80009ee:	2001      	movls	r0, #1
 80009f0:	2000      	movhi	r0, #0
 80009f2:	f85d fb08 	ldr.w	pc, [sp], #8
 80009f6:	bf00      	nop

080009f8 <__aeabi_dcmpgt>:
 80009f8:	f84d ed08 	str.w	lr, [sp, #-8]!
 80009fc:	f7ff ffc4 	bl	8000988 <__aeabi_cdrcmple>
 8000a00:	bf34      	ite	cc
 8000a02:	2001      	movcc	r0, #1
 8000a04:	2000      	movcs	r0, #0
 8000a06:	f85d fb08 	ldr.w	pc, [sp], #8
 8000a0a:	bf00      	nop

08000a0c <__aeabi_dcmpun>:
 8000a0c:	ea4f 0c41 	mov.w	ip, r1, lsl #1
 8000a10:	ea7f 5c6c 	mvns.w	ip, ip, asr #21
 8000a14:	d102      	bne.n	8000a1c <__aeabi_dcmpun+0x10>
 8000a16:	ea50 3c01 	orrs.w	ip, r0, r1, lsl #12
 8000a1a:	d10a      	bne.n	8000a32 <__aeabi_dcmpun+0x26>
 8000a1c:	ea4f 0c43 	mov.w	ip, r3, lsl #1
 8000a20:	ea7f 5c6c 	mvns.w	ip, ip, asr #21
 8000a24:	d102      	bne.n	8000a2c <__aeabi_dcmpun+0x20>
 8000a26:	ea52 3c03 	orrs.w	ip, r2, r3, lsl #12
 8000a2a:	d102      	bne.n	8000a32 <__aeabi_dcmpun+0x26>
 8000a2c:	f04f 0000 	mov.w	r0, #0
 8000a30:	4770      	bx	lr
 8000a32:	f04f 0001 	mov.w	r0, #1
 8000a36:	4770      	bx	lr

08000a38 <__aeabi_d2iz>:
 8000a38:	ea4f 0241 	mov.w	r2, r1, lsl #1
 8000a3c:	f512 1200 	adds.w	r2, r2, #2097152	; 0x200000
 8000a40:	d215      	bcs.n	8000a6e <__aeabi_d2iz+0x36>
 8000a42:	d511      	bpl.n	8000a68 <__aeabi_d2iz+0x30>
 8000a44:	f46f 7378 	mvn.w	r3, #992	; 0x3e0
 8000a48:	ebb3 5262 	subs.w	r2, r3, r2, asr #21
 8000a4c:	d912      	bls.n	8000a74 <__aeabi_d2iz+0x3c>
 8000a4e:	ea4f 23c1 	mov.w	r3, r1, lsl #11
 8000a52:	f043 4300 	orr.w	r3, r3, #2147483648	; 0x80000000
 8000a56:	ea43 5350 	orr.w	r3, r3, r0, lsr #21
 8000a5a:	f011 4f00 	tst.w	r1, #2147483648	; 0x80000000
 8000a5e:	fa23 f002 	lsr.w	r0, r3, r2
 8000a62:	bf18      	it	ne
 8000a64:	4240      	negne	r0, r0
 8000a66:	4770      	bx	lr
 8000a68:	f04f 0000 	mov.w	r0, #0
 8000a6c:	4770      	bx	lr
 8000a6e:	ea50 3001 	orrs.w	r0, r0, r1, lsl #12
 8000a72:	d105      	bne.n	8000a80 <__aeabi_d2iz+0x48>
 8000a74:	f011 4000 	ands.w	r0, r1, #2147483648	; 0x80000000
 8000a78:	bf08      	it	eq
 8000a7a:	f06f 4000 	mvneq.w	r0, #2147483648	; 0x80000000
 8000a7e:	4770      	bx	lr
 8000a80:	f04f 0000 	mov.w	r0, #0
 8000a84:	4770      	bx	lr
 8000a86:	bf00      	nop

08000a88 <__aeabi_d2uiz>:
 8000a88:	004a      	lsls	r2, r1, #1
 8000a8a:	d211      	bcs.n	8000ab0 <__aeabi_d2uiz+0x28>
 8000a8c:	f512 1200 	adds.w	r2, r2, #2097152	; 0x200000
 8000a90:	d211      	bcs.n	8000ab6 <__aeabi_d2uiz+0x2e>
 8000a92:	d50d      	bpl.n	8000ab0 <__aeabi_d2uiz+0x28>
 8000a94:	f46f 7378 	mvn.w	r3, #992	; 0x3e0
 8000a98:	ebb3 5262 	subs.w	r2, r3, r2, asr #21
 8000a9c:	d40e      	bmi.n	8000abc <__aeabi_d2uiz+0x34>
 8000a9e:	ea4f 23c1 	mov.w	r3, r1, lsl #11
 8000aa2:	f043 4300 	orr.w	r3, r3, #2147483648	; 0x80000000
 8000aa6:	ea43 5350 	orr.w	r3, r3, r0, lsr #21
 8000aaa:	fa23 f002 	lsr.w	r0, r3, r2
 8000aae:	4770      	bx	lr
 8000ab0:	f04f 0000 	mov.w	r0, #0
 8000ab4:	4770      	bx	lr
 8000ab6:	ea50 3001 	orrs.w	r0, r0, r1, lsl #12
 8000aba:	d102      	bne.n	8000ac2 <__aeabi_d2uiz+0x3a>
 8000abc:	f04f 30ff 	mov.w	r0, #4294967295
 8000ac0:	4770      	bx	lr
 8000ac2:	f04f 0000 	mov.w	r0, #0
 8000ac6:	4770      	bx	lr

08000ac8 <__aeabi_d2f>:
 8000ac8:	ea4f 0241 	mov.w	r2, r1, lsl #1
 8000acc:	f1b2 43e0 	subs.w	r3, r2, #1879048192	; 0x70000000
 8000ad0:	bf24      	itt	cs
 8000ad2:	f5b3 1c00 	subscs.w	ip, r3, #2097152	; 0x200000
 8000ad6:	f1dc 5cfe 	rsbscs	ip, ip, #532676608	; 0x1fc00000
 8000ada:	d90d      	bls.n	8000af8 <__aeabi_d2f+0x30>
 8000adc:	f001 4c00 	and.w	ip, r1, #2147483648	; 0x80000000
 8000ae0:	ea4f 02c0 	mov.w	r2, r0, lsl #3
 8000ae4:	ea4c 7050 	orr.w	r0, ip, r0, lsr #29
 8000ae8:	f1b2 4f00 	cmp.w	r2, #2147483648	; 0x80000000
 8000aec:	eb40 0083 	adc.w	r0, r0, r3, lsl #2
 8000af0:	bf08      	it	eq
 8000af2:	f020 0001 	biceq.w	r0, r0, #1
 8000af6:	4770      	bx	lr
 8000af8:	f011 4f80 	tst.w	r1, #1073741824	; 0x40000000
 8000afc:	d121      	bne.n	8000b42 <__aeabi_d2f+0x7a>
 8000afe:	f113 7238 	adds.w	r2, r3, #48234496	; 0x2e00000
 8000b02:	bfbc      	itt	lt
 8000b04:	f001 4000 	andlt.w	r0, r1, #2147483648	; 0x80000000
 8000b08:	4770      	bxlt	lr
 8000b0a:	f441 1180 	orr.w	r1, r1, #1048576	; 0x100000
 8000b0e:	ea4f 5252 	mov.w	r2, r2, lsr #21
 8000b12:	f1c2 0218 	rsb	r2, r2, #24
 8000b16:	f1c2 0c20 	rsb	ip, r2, #32
 8000b1a:	fa10 f30c 	lsls.w	r3, r0, ip
 8000b1e:	fa20 f002 	lsr.w	r0, r0, r2
 8000b22:	bf18      	it	ne
 8000b24:	f040 0001 	orrne.w	r0, r0, #1
 8000b28:	ea4f 23c1 	mov.w	r3, r1, lsl #11
 8000b2c:	ea4f 23d3 	mov.w	r3, r3, lsr #11
 8000b30:	fa03 fc0c 	lsl.w	ip, r3, ip
 8000b34:	ea40 000c 	orr.w	r0, r0, ip
 8000b38:	fa23 f302 	lsr.w	r3, r3, r2
 8000b3c:	ea4f 0343 	mov.w	r3, r3, lsl #1
 8000b40:	e7cc      	b.n	8000adc <__aeabi_d2f+0x14>
 8000b42:	ea7f 5362 	mvns.w	r3, r2, asr #21
 8000b46:	d107      	bne.n	8000b58 <__aeabi_d2f+0x90>
 8000b48:	ea50 3301 	orrs.w	r3, r0, r1, lsl #12
 8000b4c:	bf1e      	ittt	ne
 8000b4e:	f04f 40fe 	movne.w	r0, #2130706432	; 0x7f000000
 8000b52:	f440 0040 	orrne.w	r0, r0, #12582912	; 0xc00000
 8000b56:	4770      	bxne	lr
 8000b58:	f001 4000 	and.w	r0, r1, #2147483648	; 0x80000000
 8000b5c:	f040 40fe 	orr.w	r0, r0, #2130706432	; 0x7f000000
 8000b60:	f440 0000 	orr.w	r0, r0, #8388608	; 0x800000
 8000b64:	4770      	bx	lr
 8000b66:	bf00      	nop

08000b68 <__aeabi_d2lz>:
 8000b68:	b538      	push	{r3, r4, r5, lr}
 8000b6a:	4605      	mov	r5, r0
 8000b6c:	460c      	mov	r4, r1
 8000b6e:	2200      	movs	r2, #0
 8000b70:	2300      	movs	r3, #0
 8000b72:	4628      	mov	r0, r5
 8000b74:	4621      	mov	r1, r4
 8000b76:	f7ff ff21 	bl	80009bc <__aeabi_dcmplt>
 8000b7a:	b928      	cbnz	r0, 8000b88 <__aeabi_d2lz+0x20>
 8000b7c:	4628      	mov	r0, r5
 8000b7e:	4621      	mov	r1, r4
 8000b80:	e8bd 4038 	ldmia.w	sp!, {r3, r4, r5, lr}
 8000b84:	f000 b80a 	b.w	8000b9c <__aeabi_d2ulz>
 8000b88:	4628      	mov	r0, r5
 8000b8a:	f104 4100 	add.w	r1, r4, #2147483648	; 0x80000000
 8000b8e:	f000 f805 	bl	8000b9c <__aeabi_d2ulz>
 8000b92:	4240      	negs	r0, r0
 8000b94:	eb61 0141 	sbc.w	r1, r1, r1, lsl #1
 8000b98:	bd38      	pop	{r3, r4, r5, pc}
 8000b9a:	bf00      	nop

08000b9c <__aeabi_d2ulz>:
 8000b9c:	b5d0      	push	{r4, r6, r7, lr}
 8000b9e:	2200      	movs	r2, #0
 8000ba0:	4b0b      	ldr	r3, [pc, #44]	; (8000bd0 <__aeabi_d2ulz+0x34>)
 8000ba2:	4606      	mov	r6, r0
 8000ba4:	460f      	mov	r7, r1
 8000ba6:	f7ff fc97 	bl	80004d8 <__aeabi_dmul>
 8000baa:	f7ff ff6d 	bl	8000a88 <__aeabi_d2uiz>
 8000bae:	4604      	mov	r4, r0
 8000bb0:	f7ff fc18 	bl	80003e4 <__aeabi_ui2d>
 8000bb4:	2200      	movs	r2, #0
 8000bb6:	4b07      	ldr	r3, [pc, #28]	; (8000bd4 <__aeabi_d2ulz+0x38>)
 8000bb8:	f7ff fc8e 	bl	80004d8 <__aeabi_dmul>
 8000bbc:	4602      	mov	r2, r0
 8000bbe:	460b      	mov	r3, r1
 8000bc0:	4630      	mov	r0, r6
 8000bc2:	4639      	mov	r1, r7
 8000bc4:	f7ff fad0 	bl	8000168 <__aeabi_dsub>
 8000bc8:	f7ff ff5e 	bl	8000a88 <__aeabi_d2uiz>
 8000bcc:	4621      	mov	r1, r4
 8000bce:	bdd0      	pop	{r4, r6, r7, pc}
 8000bd0:	3df00000 	.word	0x3df00000
 8000bd4:	41f00000 	.word	0x41f00000

08000bd8 <MX_GPIO_Init>:
        * EXTI
*/
void MX_GPIO_Init(void)
{

  GPIO_InitTypeDef GPIO_InitStruct = {0};
 8000bd8:	2210      	movs	r2, #16
{
 8000bda:	e92d 43f0 	stmdb	sp!, {r4, r5, r6, r7, r8, r9, lr}
 8000bde:	b089      	sub	sp, #36	; 0x24
  GPIO_InitTypeDef GPIO_InitStruct = {0};
 8000be0:	eb0d 0002 	add.w	r0, sp, r2
 8000be4:	2100      	movs	r1, #0
 8000be6:	f002 fd61 	bl	80036ac <memset>

  /* GPIO Ports Clock Enable */
  __HAL_RCC_GPIOC_CLK_ENABLE();
 8000bea:	4b2f      	ldr	r3, [pc, #188]	; (8000ca8 <MX_GPIO_Init+0xd0>)
  __HAL_RCC_GPIOD_CLK_ENABLE();
  __HAL_RCC_GPIOA_CLK_ENABLE();
  __HAL_RCC_GPIOB_CLK_ENABLE();

  /*Configure GPIO pin Output Level */
  HAL_GPIO_WritePin(GPIOC, RST3_Pin|RST4_Pin, GPIO_PIN_RESET);
 8000bec:	f8df 90bc 	ldr.w	r9, [pc, #188]	; 8000cac <MX_GPIO_Init+0xd4>
  __HAL_RCC_GPIOC_CLK_ENABLE();
 8000bf0:	699a      	ldr	r2, [r3, #24]

  /*Configure GPIO pin Output Level */
  HAL_GPIO_WritePin(GPIOA, SCL_Pin|SDA_Pin, GPIO_PIN_RESET);
 8000bf2:	f8df 80bc 	ldr.w	r8, [pc, #188]	; 8000cb0 <MX_GPIO_Init+0xd8>
  __HAL_RCC_GPIOC_CLK_ENABLE();
 8000bf6:	f042 0210 	orr.w	r2, r2, #16
 8000bfa:	619a      	str	r2, [r3, #24]
 8000bfc:	699a      	ldr	r2, [r3, #24]
  HAL_GPIO_WritePin(GPIOC, RST3_Pin|RST4_Pin, GPIO_PIN_RESET);
 8000bfe:	4648      	mov	r0, r9
  __HAL_RCC_GPIOC_CLK_ENABLE();
 8000c00:	f002 0210 	and.w	r2, r2, #16
 8000c04:	9200      	str	r2, [sp, #0]
 8000c06:	9a00      	ldr	r2, [sp, #0]
  __HAL_RCC_GPIOD_CLK_ENABLE();
 8000c08:	699a      	ldr	r2, [r3, #24]

  /*Configure GPIO pin Output Level */
  HAL_GPIO_WritePin(GPIOB, RST1_Pin|RST2_Pin, GPIO_PIN_RESET);
 8000c0a:	4d2a      	ldr	r5, [pc, #168]	; (8000cb4 <MX_GPIO_Init+0xdc>)
  __HAL_RCC_GPIOD_CLK_ENABLE();
 8000c0c:	f042 0220 	orr.w	r2, r2, #32
 8000c10:	619a      	str	r2, [r3, #24]
 8000c12:	699a      	ldr	r2, [r3, #24]
  HAL_GPIO_WritePin(GPIOC, RST3_Pin|RST4_Pin, GPIO_PIN_RESET);
 8000c14:	f44f 41c0 	mov.w	r1, #24576	; 0x6000
  __HAL_RCC_GPIOD_CLK_ENABLE();
 8000c18:	f002 0220 	and.w	r2, r2, #32
 8000c1c:	9201      	str	r2, [sp, #4]
 8000c1e:	9a01      	ldr	r2, [sp, #4]
  __HAL_RCC_GPIOA_CLK_ENABLE();
 8000c20:	699a      	ldr	r2, [r3, #24]

  /*Configure GPIO pins : PCPin PCPin */
  GPIO_InitStruct.Pin = RST3_Pin|RST4_Pin;
  GPIO_InitStruct.Mode = GPIO_MODE_OUTPUT_PP;
 8000c22:	2401      	movs	r4, #1
  __HAL_RCC_GPIOA_CLK_ENABLE();
 8000c24:	f042 0204 	orr.w	r2, r2, #4
 8000c28:	619a      	str	r2, [r3, #24]
 8000c2a:	699a      	ldr	r2, [r3, #24]
  GPIO_InitStruct.Pull = GPIO_NOPULL;
  GPIO_InitStruct.Speed = GPIO_SPEED_FREQ_LOW;
 8000c2c:	2700      	movs	r7, #0
  __HAL_RCC_GPIOA_CLK_ENABLE();
 8000c2e:	f002 0204 	and.w	r2, r2, #4
 8000c32:	9202      	str	r2, [sp, #8]
 8000c34:	9a02      	ldr	r2, [sp, #8]
  __HAL_RCC_GPIOB_CLK_ENABLE();
 8000c36:	699a      	ldr	r2, [r3, #24]
  GPIO_InitStruct.Speed = GPIO_SPEED_FREQ_LOW;
 8000c38:	2602      	movs	r6, #2
  __HAL_RCC_GPIOB_CLK_ENABLE();
 8000c3a:	f042 0208 	orr.w	r2, r2, #8
 8000c3e:	619a      	str	r2, [r3, #24]
 8000c40:	699b      	ldr	r3, [r3, #24]
  HAL_GPIO_WritePin(GPIOC, RST3_Pin|RST4_Pin, GPIO_PIN_RESET);
 8000c42:	2200      	movs	r2, #0
  __HAL_RCC_GPIOB_CLK_ENABLE();
 8000c44:	f003 0308 	and.w	r3, r3, #8
 8000c48:	9303      	str	r3, [sp, #12]
 8000c4a:	9b03      	ldr	r3, [sp, #12]
  HAL_GPIO_WritePin(GPIOC, RST3_Pin|RST4_Pin, GPIO_PIN_RESET);
 8000c4c:	f000 ff24 	bl	8001a98 <HAL_GPIO_WritePin>
  HAL_GPIO_WritePin(GPIOA, SCL_Pin|SDA_Pin, GPIO_PIN_RESET);
 8000c50:	4640      	mov	r0, r8
 8000c52:	2200      	movs	r2, #0
 8000c54:	21c0      	movs	r1, #192	; 0xc0
 8000c56:	f000 ff1f 	bl	8001a98 <HAL_GPIO_WritePin>
  HAL_GPIO_WritePin(GPIOB, RST1_Pin|RST2_Pin, GPIO_PIN_RESET);
 8000c5a:	2200      	movs	r2, #0
 8000c5c:	4628      	mov	r0, r5
 8000c5e:	f44f 71c0 	mov.w	r1, #384	; 0x180
 8000c62:	f000 ff19 	bl	8001a98 <HAL_GPIO_WritePin>
  GPIO_InitStruct.Mode = GPIO_MODE_OUTPUT_PP;
 8000c66:	f44f 43c0 	mov.w	r3, #24576	; 0x6000
  HAL_GPIO_Init(GPIOC, &GPIO_InitStruct);
 8000c6a:	4648      	mov	r0, r9
 8000c6c:	a904      	add	r1, sp, #16
  GPIO_InitStruct.Mode = GPIO_MODE_OUTPUT_PP;
 8000c6e:	e9cd 3404 	strd	r3, r4, [sp, #16]
  GPIO_InitStruct.Speed = GPIO_SPEED_FREQ_LOW;
 8000c72:	e9cd 7606 	strd	r7, r6, [sp, #24]
  HAL_GPIO_Init(GPIOC, &GPIO_InitStruct);
 8000c76:	f000 fe33 	bl	80018e0 <HAL_GPIO_Init>

  /*Configure GPIO pins : PAPin PAPin */
  GPIO_InitStruct.Pin = SCL_Pin|SDA_Pin;
 8000c7a:	23c0      	movs	r3, #192	; 0xc0
  GPIO_InitStruct.Mode = GPIO_MODE_OUTPUT_PP;
 8000c7c:	e9cd 3404 	strd	r3, r4, [sp, #16]
  GPIO_InitStruct.Pull = GPIO_PULLUP;
  GPIO_InitStruct.Speed = GPIO_SPEED_FREQ_HIGH;
 8000c80:	2303      	movs	r3, #3
  HAL_GPIO_Init(GPIOA, &GPIO_InitStruct);
 8000c82:	4640      	mov	r0, r8
 8000c84:	a904      	add	r1, sp, #16
  GPIO_InitStruct.Speed = GPIO_SPEED_FREQ_HIGH;
 8000c86:	9307      	str	r3, [sp, #28]
  GPIO_InitStruct.Pull = GPIO_PULLUP;
 8000c88:	9406      	str	r4, [sp, #24]
  HAL_GPIO_Init(GPIOA, &GPIO_InitStruct);
 8000c8a:	f000 fe29 	bl	80018e0 <HAL_GPIO_Init>

  /*Configure GPIO pins : PBPin PBPin */
  GPIO_InitStruct.Pin = RST1_Pin|RST2_Pin;
 8000c8e:	f44f 73c0 	mov.w	r3, #384	; 0x180
  GPIO_InitStruct.Mode = GPIO_MODE_OUTPUT_PP;
  GPIO_InitStruct.Pull = GPIO_NOPULL;
  GPIO_InitStruct.Speed = GPIO_SPEED_FREQ_LOW;
  HAL_GPIO_Init(GPIOB, &GPIO_InitStruct);
 8000c92:	4628      	mov	r0, r5
 8000c94:	a904      	add	r1, sp, #16
  GPIO_InitStruct.Mode = GPIO_MODE_OUTPUT_PP;
 8000c96:	e9cd 3404 	strd	r3, r4, [sp, #16]
  GPIO_InitStruct.Speed = GPIO_SPEED_FREQ_LOW;
 8000c9a:	e9cd 7606 	strd	r7, r6, [sp, #24]
  HAL_GPIO_Init(GPIOB, &GPIO_InitStruct);
 8000c9e:	f000 fe1f 	bl	80018e0 <HAL_GPIO_Init>

}
 8000ca2:	b009      	add	sp, #36	; 0x24
 8000ca4:	e8bd 83f0 	ldmia.w	sp!, {r4, r5, r6, r7, r8, r9, pc}
 8000ca8:	40021000 	.word	0x40021000
 8000cac:	40011000 	.word	0x40011000
 8000cb0:	40010800 	.word	0x40010800
 8000cb4:	40010c00 	.word	0x40010c00

08000cb8 <SystemClock_Config>:
/**
  * @brief System Clock Configuration
  * @retval None
  */
void SystemClock_Config(void)
{
 8000cb8:	b510      	push	{r4, lr}
 8000cba:	b090      	sub	sp, #64	; 0x40
  RCC_OscInitTypeDef RCC_OscInitStruct = {0};
 8000cbc:	2214      	movs	r2, #20
 8000cbe:	2100      	movs	r1, #0
 8000cc0:	a808      	add	r0, sp, #32
 8000cc2:	f002 fcf3 	bl	80036ac <memset>
  RCC_ClkInitTypeDef RCC_ClkInitStruct = {0};
 8000cc6:	2214      	movs	r2, #20
 8000cc8:	2100      	movs	r1, #0
 8000cca:	a801      	add	r0, sp, #4
 8000ccc:	f002 fcee 	bl	80036ac <memset>
  */
  RCC_OscInitStruct.OscillatorType = RCC_OSCILLATORTYPE_HSE;
  RCC_OscInitStruct.HSEState = RCC_HSE_ON;
  RCC_OscInitStruct.HSEPredivValue = RCC_HSE_PREDIV_DIV1;
  RCC_OscInitStruct.HSIState = RCC_HSI_ON;
  RCC_OscInitStruct.PLL.PLLState = RCC_PLL_ON;
 8000cd0:	2402      	movs	r4, #2
  RCC_OscInitStruct.HSEState = RCC_HSE_ON;
 8000cd2:	f44f 3380 	mov.w	r3, #65536	; 0x10000
 8000cd6:	2201      	movs	r2, #1
  RCC_OscInitStruct.PLL.PLLSource = RCC_PLLSOURCE_HSE;
 8000cd8:	e9cd 430d 	strd	r4, r3, [sp, #52]	; 0x34
  RCC_OscInitStruct.HSEState = RCC_HSE_ON;
 8000cdc:	e9cd 2306 	strd	r2, r3, [sp, #24]
  RCC_OscInitStruct.PLL.PLLMUL = RCC_PLL_MUL9;
 8000ce0:	f44f 13e0 	mov.w	r3, #1835008	; 0x1c0000
  if (HAL_RCC_OscConfig(&RCC_OscInitStruct) != HAL_OK)
 8000ce4:	a806      	add	r0, sp, #24
  RCC_OscInitStruct.HSIState = RCC_HSI_ON;
 8000ce6:	920a      	str	r2, [sp, #40]	; 0x28
  RCC_OscInitStruct.PLL.PLLMUL = RCC_PLL_MUL9;
 8000ce8:	930f      	str	r3, [sp, #60]	; 0x3c
  if (HAL_RCC_OscConfig(&RCC_OscInitStruct) != HAL_OK)
 8000cea:	f000 fedb 	bl	8001aa4 <HAL_RCC_OscConfig>
 8000cee:	b108      	cbz	r0, 8000cf4 <SystemClock_Config+0x3c>
  \details Disables IRQ interrupts by setting the I-bit in the CPSR.
           Can only be executed in Privileged modes.
 */
__STATIC_FORCEINLINE void __disable_irq(void)
{
  __ASM volatile ("cpsid i" : : : "memory");
 8000cf0:	b672      	cpsid	i
void Error_Handler(void)
{
  /* USER CODE BEGIN Error_Handler_Debug */
  /* User can add his own implementation to report the HAL error return state */
  __disable_irq();
  while (1)
 8000cf2:	e7fe      	b.n	8000cf2 <SystemClock_Config+0x3a>
  RCC_ClkInitStruct.ClockType = RCC_CLOCKTYPE_HCLK|RCC_CLOCKTYPE_SYSCLK
 8000cf4:	230f      	movs	r3, #15
  RCC_ClkInitStruct.SYSCLKSource = RCC_SYSCLKSOURCE_PLLCLK;
 8000cf6:	e9cd 3401 	strd	r3, r4, [sp, #4]
  RCC_ClkInitStruct.APB1CLKDivider = RCC_HCLK_DIV2;
 8000cfa:	f44f 6380 	mov.w	r3, #1024	; 0x400
  RCC_ClkInitStruct.AHBCLKDivider = RCC_SYSCLK_DIV1;
 8000cfe:	9003      	str	r0, [sp, #12]
  RCC_ClkInitStruct.APB2CLKDivider = RCC_HCLK_DIV1;
 8000d00:	e9cd 3004 	strd	r3, r0, [sp, #16]
  if (HAL_RCC_ClockConfig(&RCC_ClkInitStruct, FLASH_LATENCY_2) != HAL_OK)
 8000d04:	4621      	mov	r1, r4
 8000d06:	a801      	add	r0, sp, #4
 8000d08:	f001 f88e 	bl	8001e28 <HAL_RCC_ClockConfig>
 8000d0c:	b108      	cbz	r0, 8000d12 <SystemClock_Config+0x5a>
 8000d0e:	b672      	cpsid	i
  while (1)
 8000d10:	e7fe      	b.n	8000d10 <SystemClock_Config+0x58>
}
 8000d12:	b010      	add	sp, #64	; 0x40
 8000d14:	bd10      	pop	{r4, pc}

08000d16 <HAL_usDelay>:
{
 8000d16:	b5f8      	push	{r3, r4, r5, r6, r7, lr}
  startval = SysTick->VAL;
 8000d18:	f04f 27e0 	mov.w	r7, #3758153728	; 0xe000e000
{
 8000d1c:	4605      	mov	r5, r0
  startval = SysTick->VAL;
 8000d1e:	69bc      	ldr	r4, [r7, #24]
  tickn = HAL_GetTick();
 8000d20:	f000 fd0c 	bl	800173c <HAL_GetTick>
  delays =udelay * 72;
 8000d24:	2348      	movs	r3, #72	; 0x48
 8000d26:	435d      	muls	r5, r3
  if(delays > startval)
 8000d28:	42ac      	cmp	r4, r5
  tickn = HAL_GetTick();
 8000d2a:	4606      	mov	r6, r0
  if(delays > startval)
 8000d2c:	d20e      	bcs.n	8000d4c <HAL_usDelay+0x36>
    while(HAL_GetTick() == tickn);
 8000d2e:	f000 fd05 	bl	800173c <HAL_GetTick>
 8000d32:	42b0      	cmp	r0, r6
 8000d34:	d0fb      	beq.n	8000d2e <HAL_usDelay+0x18>
    while(wait < SysTick->VAL);
 8000d36:	f04f 22e0 	mov.w	r2, #3758153728	; 0xe000e000
    wait = 72000 + startval - delays;
 8000d3a:	f504 348c 	add.w	r4, r4, #71680	; 0x11800
 8000d3e:	f504 74a0 	add.w	r4, r4, #320	; 0x140
 8000d42:	1b64      	subs	r4, r4, r5
    while(wait < SysTick->VAL);
 8000d44:	6993      	ldr	r3, [r2, #24]
 8000d46:	42a3      	cmp	r3, r4
 8000d48:	d8fc      	bhi.n	8000d44 <HAL_usDelay+0x2e>
}
 8000d4a:	bdf8      	pop	{r3, r4, r5, r6, r7, pc}
    wait = startval - delays;
 8000d4c:	1b64      	subs	r4, r4, r5
    while(wait < SysTick->VAL && HAL_GetTick() == tickn);
 8000d4e:	69bb      	ldr	r3, [r7, #24]
 8000d50:	42a3      	cmp	r3, r4
 8000d52:	d9fa      	bls.n	8000d4a <HAL_usDelay+0x34>
 8000d54:	f000 fcf2 	bl	800173c <HAL_GetTick>
 8000d58:	42b0      	cmp	r0, r6
 8000d5a:	d0f8      	beq.n	8000d4e <HAL_usDelay+0x38>
 8000d5c:	e7f5      	b.n	8000d4a <HAL_usDelay+0x34>

08000d5e <HAL_msDelay>:
{
 8000d5e:	b538      	push	{r3, r4, r5, lr}
 8000d60:	4605      	mov	r5, r0
	for(i = 0;i < udelay;i++)
 8000d62:	2400      	movs	r4, #0
 8000d64:	b2a3      	uxth	r3, r4
 8000d66:	42ab      	cmp	r3, r5
 8000d68:	f104 0401 	add.w	r4, r4, #1
 8000d6c:	d300      	bcc.n	8000d70 <HAL_msDelay+0x12>
}
 8000d6e:	bd38      	pop	{r3, r4, r5, pc}
		HAL_usDelay(1000);
 8000d70:	f44f 707a 	mov.w	r0, #1000	; 0x3e8
 8000d74:	f7ff ffcf 	bl	8000d16 <HAL_usDelay>
	for(i = 0;i < udelay;i++)
 8000d78:	e7f4      	b.n	8000d64 <HAL_msDelay+0x6>
	...

08000d7c <my_SDA_IN>:
{
 8000d7c:	b51f      	push	{r0, r1, r2, r3, r4, lr}
	GPIO_InitStruct.Pin = SDA_Pin;//PA7
 8000d7e:	2200      	movs	r2, #0
 8000d80:	2380      	movs	r3, #128	; 0x80
	GPIO_InitStruct.Speed = GPIO_SPEED_FREQ_HIGH;
 8000d82:	2101      	movs	r1, #1
	GPIO_InitStruct.Pin = SDA_Pin;//PA7
 8000d84:	e9cd 3200 	strd	r3, r2, [sp]
	GPIO_InitStruct.Speed = GPIO_SPEED_FREQ_HIGH;
 8000d88:	2303      	movs	r3, #3
	HAL_GPIO_Init(GPIOA, &GPIO_InitStruct);
 8000d8a:	4804      	ldr	r0, [pc, #16]	; (8000d9c <my_SDA_IN+0x20>)
	GPIO_InitStruct.Speed = GPIO_SPEED_FREQ_HIGH;
 8000d8c:	e9cd 1302 	strd	r1, r3, [sp, #8]
	HAL_GPIO_Init(GPIOA, &GPIO_InitStruct);
 8000d90:	4669      	mov	r1, sp
 8000d92:	f000 fda5 	bl	80018e0 <HAL_GPIO_Init>
}
 8000d96:	b005      	add	sp, #20
 8000d98:	f85d fb04 	ldr.w	pc, [sp], #4
 8000d9c:	40010800 	.word	0x40010800

08000da0 <my_SDA_OUT>:
{
 8000da0:	b51f      	push	{r0, r1, r2, r3, r4, lr}
	GPIO_InitStruct.Mode = GPIO_MODE_OUTPUT_PP;//
 8000da2:	2280      	movs	r2, #128	; 0x80
 8000da4:	2301      	movs	r3, #1
	GPIO_InitStruct.Speed = GPIO_SPEED_FREQ_HIGH;
 8000da6:	2100      	movs	r1, #0
	GPIO_InitStruct.Mode = GPIO_MODE_OUTPUT_PP;//
 8000da8:	e9cd 2300 	strd	r2, r3, [sp]
	GPIO_InitStruct.Speed = GPIO_SPEED_FREQ_HIGH;
 8000dac:	2303      	movs	r3, #3
	HAL_GPIO_Init(GPIOA, &GPIO_InitStruct);
 8000dae:	4804      	ldr	r0, [pc, #16]	; (8000dc0 <my_SDA_OUT+0x20>)
	GPIO_InitStruct.Speed = GPIO_SPEED_FREQ_HIGH;
 8000db0:	e9cd 1302 	strd	r1, r3, [sp, #8]
	HAL_GPIO_Init(GPIOA, &GPIO_InitStruct);
 8000db4:	4669      	mov	r1, sp
 8000db6:	f000 fd93 	bl	80018e0 <HAL_GPIO_Init>
}
 8000dba:	b005      	add	sp, #20
 8000dbc:	f85d fb04 	ldr.w	pc, [sp], #4
 8000dc0:	40010800 	.word	0x40010800

08000dc4 <IIC_Init>:
{
 8000dc4:	b510      	push	{r4, lr}
	SDA_L;
 8000dc6:	4c06      	ldr	r4, [pc, #24]	; (8000de0 <IIC_Init+0x1c>)
 8000dc8:	2200      	movs	r2, #0
 8000dca:	4620      	mov	r0, r4
 8000dcc:	2180      	movs	r1, #128	; 0x80
 8000dce:	f000 fe63 	bl	8001a98 <HAL_GPIO_WritePin>
	SCL_L;
 8000dd2:	4620      	mov	r0, r4
}
 8000dd4:	e8bd 4010 	ldmia.w	sp!, {r4, lr}
	SCL_L;
 8000dd8:	2200      	movs	r2, #0
 8000dda:	2140      	movs	r1, #64	; 0x40
 8000ddc:	f000 be5c 	b.w	8001a98 <HAL_GPIO_WritePin>
 8000de0:	40010800 	.word	0x40010800

08000de4 <main>:
{
 8000de4:	b508      	push	{r3, lr}
  HAL_Init();
 8000de6:	f000 fc8b 	bl	8001700 <HAL_Init>
  SystemClock_Config();
 8000dea:	f7ff ff65 	bl	8000cb8 <SystemClock_Config>
  MX_GPIO_Init();
 8000dee:	f7ff fef3 	bl	8000bd8 <MX_GPIO_Init>
  MX_USART1_UART_Init();
 8000df2:	f000 fa17 	bl	8001224 <MX_USART1_UART_Init>
  IIC_Init();
 8000df6:	f7ff ffe5 	bl	8000dc4 <IIC_Init>
  HAL_UART_Receive_IT(&huart1, (uint8_t *)&RxBuffer, 1);
 8000dfa:	2201      	movs	r2, #1
 8000dfc:	4904      	ldr	r1, [pc, #16]	; (8000e10 <main+0x2c>)
 8000dfe:	4805      	ldr	r0, [pc, #20]	; (8000e14 <main+0x30>)
 8000e00:	f001 fbaf 	bl	8002562 <HAL_UART_Receive_IT>
  printf("Init Success\r\n");
 8000e04:	4804      	ldr	r0, [pc, #16]	; (8000e18 <main+0x34>)
 8000e06:	f002 fb51 	bl	80034ac <puts>
	  ProtocolAnalysis();//
 8000e0a:	f000 fb11 	bl	8001430 <ProtocolAnalysis>
  while (1)
 8000e0e:	e7fc      	b.n	8000e0a <main+0x26>
 8000e10:	20000214 	.word	0x20000214
 8000e14:	200002a8 	.word	0x200002a8
 8000e18:	08006deb 	.word	0x08006deb

08000e1c <IIC_Start>:
{
 8000e1c:	b510      	push	{r4, lr}
	SDA_H;
 8000e1e:	4c0f      	ldr	r4, [pc, #60]	; (8000e5c <IIC_Start+0x40>)
	SDA_OUT();
 8000e20:	f7ff ffbe 	bl	8000da0 <my_SDA_OUT>
	SDA_H;
 8000e24:	4620      	mov	r0, r4
 8000e26:	2201      	movs	r2, #1
 8000e28:	2180      	movs	r1, #128	; 0x80
 8000e2a:	f000 fe35 	bl	8001a98 <HAL_GPIO_WritePin>
	SCL_H;
 8000e2e:	2201      	movs	r2, #1
 8000e30:	2140      	movs	r1, #64	; 0x40
 8000e32:	4620      	mov	r0, r4
 8000e34:	f000 fe30 	bl	8001a98 <HAL_GPIO_WritePin>
	HAL_usDelay(5);
 8000e38:	2005      	movs	r0, #5
 8000e3a:	f7ff ff6c 	bl	8000d16 <HAL_usDelay>
 	SDA_L;
 8000e3e:	2200      	movs	r2, #0
 8000e40:	2180      	movs	r1, #128	; 0x80
 8000e42:	4620      	mov	r0, r4
 8000e44:	f000 fe28 	bl	8001a98 <HAL_GPIO_WritePin>
 	HAL_usDelay(5);
 8000e48:	2005      	movs	r0, #5
 8000e4a:	f7ff ff64 	bl	8000d16 <HAL_usDelay>
	SCL_L;
 8000e4e:	4620      	mov	r0, r4
}
 8000e50:	e8bd 4010 	ldmia.w	sp!, {r4, lr}
	SCL_L;
 8000e54:	2200      	movs	r2, #0
 8000e56:	2140      	movs	r1, #64	; 0x40
 8000e58:	f000 be1e 	b.w	8001a98 <HAL_GPIO_WritePin>
 8000e5c:	40010800 	.word	0x40010800

08000e60 <IIC_Stop>:
{
 8000e60:	b510      	push	{r4, lr}
	SCL_L;
 8000e62:	4c0f      	ldr	r4, [pc, #60]	; (8000ea0 <IIC_Stop+0x40>)
	SDA_OUT();
 8000e64:	f7ff ff9c 	bl	8000da0 <my_SDA_OUT>
	SCL_L;
 8000e68:	4620      	mov	r0, r4
 8000e6a:	2200      	movs	r2, #0
 8000e6c:	2140      	movs	r1, #64	; 0x40
 8000e6e:	f000 fe13 	bl	8001a98 <HAL_GPIO_WritePin>
	SDA_L;
 8000e72:	2200      	movs	r2, #0
 8000e74:	2180      	movs	r1, #128	; 0x80
 8000e76:	4620      	mov	r0, r4
 8000e78:	f000 fe0e 	bl	8001a98 <HAL_GPIO_WritePin>
	HAL_usDelay(4);
 8000e7c:	2004      	movs	r0, #4
 8000e7e:	f7ff ff4a 	bl	8000d16 <HAL_usDelay>
	SCL_H;
 8000e82:	4620      	mov	r0, r4
 8000e84:	2201      	movs	r2, #1
 8000e86:	2140      	movs	r1, #64	; 0x40
 8000e88:	f000 fe06 	bl	8001a98 <HAL_GPIO_WritePin>
	SDA_H;
 8000e8c:	4620      	mov	r0, r4
 8000e8e:	2201      	movs	r2, #1
 8000e90:	2180      	movs	r1, #128	; 0x80
 8000e92:	f000 fe01 	bl	8001a98 <HAL_GPIO_WritePin>
}
 8000e96:	e8bd 4010 	ldmia.w	sp!, {r4, lr}
	HAL_usDelay(4);
 8000e9a:	2004      	movs	r0, #4
 8000e9c:	f7ff bf3b 	b.w	8000d16 <HAL_usDelay>
 8000ea0:	40010800 	.word	0x40010800

08000ea4 <IIC_Wait_Ack>:
{
 8000ea4:	b538      	push	{r3, r4, r5, lr}
	SDA_IN();
 8000ea6:	f7ff ff69 	bl	8000d7c <my_SDA_IN>
	SDA_H;HAL_usDelay(1);
 8000eaa:	2201      	movs	r2, #1
 8000eac:	2180      	movs	r1, #128	; 0x80
 8000eae:	4812      	ldr	r0, [pc, #72]	; (8000ef8 <IIC_Wait_Ack+0x54>)
 8000eb0:	f000 fdf2 	bl	8001a98 <HAL_GPIO_WritePin>
 8000eb4:	2001      	movs	r0, #1
 8000eb6:	f7ff ff2e 	bl	8000d16 <HAL_usDelay>
	SCL_H;HAL_usDelay(1);
 8000eba:	2201      	movs	r2, #1
 8000ebc:	2140      	movs	r1, #64	; 0x40
 8000ebe:	480e      	ldr	r0, [pc, #56]	; (8000ef8 <IIC_Wait_Ack+0x54>)
 8000ec0:	f000 fdea 	bl	8001a98 <HAL_GPIO_WritePin>
 8000ec4:	2001      	movs	r0, #1
 8000ec6:	f7ff ff26 	bl	8000d16 <HAL_usDelay>
	while(SDA_read)
 8000eca:	25fb      	movs	r5, #251	; 0xfb
 8000ecc:	2180      	movs	r1, #128	; 0x80
 8000ece:	480a      	ldr	r0, [pc, #40]	; (8000ef8 <IIC_Wait_Ack+0x54>)
 8000ed0:	f000 fddc 	bl	8001a8c <HAL_GPIO_ReadPin>
 8000ed4:	4604      	mov	r4, r0
 8000ed6:	b928      	cbnz	r0, 8000ee4 <IIC_Wait_Ack+0x40>
	SCL_L;
 8000ed8:	4602      	mov	r2, r0
 8000eda:	2140      	movs	r1, #64	; 0x40
 8000edc:	4806      	ldr	r0, [pc, #24]	; (8000ef8 <IIC_Wait_Ack+0x54>)
 8000ede:	f000 fddb 	bl	8001a98 <HAL_GPIO_WritePin>
	return 0;
 8000ee2:	e006      	b.n	8000ef2 <IIC_Wait_Ack+0x4e>
		if(ucErrTime>250)
 8000ee4:	3d01      	subs	r5, #1
 8000ee6:	f015 05ff 	ands.w	r5, r5, #255	; 0xff
 8000eea:	d1ef      	bne.n	8000ecc <IIC_Wait_Ack+0x28>
			IIC_Stop();
 8000eec:	f7ff ffb8 	bl	8000e60 <IIC_Stop>
			return 1;
 8000ef0:	2401      	movs	r4, #1
}
 8000ef2:	4620      	mov	r0, r4
 8000ef4:	bd38      	pop	{r3, r4, r5, pc}
 8000ef6:	bf00      	nop
 8000ef8:	40010800 	.word	0x40010800

08000efc <IIC_Ack>:
{
 8000efc:	b510      	push	{r4, lr}
	SCL_L;
 8000efe:	4c0f      	ldr	r4, [pc, #60]	; (8000f3c <IIC_Ack+0x40>)
 8000f00:	2200      	movs	r2, #0
 8000f02:	4620      	mov	r0, r4
 8000f04:	2140      	movs	r1, #64	; 0x40
 8000f06:	f000 fdc7 	bl	8001a98 <HAL_GPIO_WritePin>
	SDA_OUT();
 8000f0a:	f7ff ff49 	bl	8000da0 <my_SDA_OUT>
	SDA_L;
 8000f0e:	2200      	movs	r2, #0
 8000f10:	2180      	movs	r1, #128	; 0x80
 8000f12:	4620      	mov	r0, r4
 8000f14:	f000 fdc0 	bl	8001a98 <HAL_GPIO_WritePin>
	HAL_usDelay(2);
 8000f18:	2002      	movs	r0, #2
 8000f1a:	f7ff fefc 	bl	8000d16 <HAL_usDelay>
	SCL_H;
 8000f1e:	2201      	movs	r2, #1
 8000f20:	2140      	movs	r1, #64	; 0x40
 8000f22:	4620      	mov	r0, r4
 8000f24:	f000 fdb8 	bl	8001a98 <HAL_GPIO_WritePin>
	HAL_usDelay(2);
 8000f28:	2002      	movs	r0, #2
 8000f2a:	f7ff fef4 	bl	8000d16 <HAL_usDelay>
	SCL_L;
 8000f2e:	4620      	mov	r0, r4
}
 8000f30:	e8bd 4010 	ldmia.w	sp!, {r4, lr}
	SCL_L;
 8000f34:	2200      	movs	r2, #0
 8000f36:	2140      	movs	r1, #64	; 0x40
 8000f38:	f000 bdae 	b.w	8001a98 <HAL_GPIO_WritePin>
 8000f3c:	40010800 	.word	0x40010800

08000f40 <IIC_NAck>:
{
 8000f40:	b510      	push	{r4, lr}
	SCL_L;
 8000f42:	4c0f      	ldr	r4, [pc, #60]	; (8000f80 <IIC_NAck+0x40>)
 8000f44:	2200      	movs	r2, #0
 8000f46:	4620      	mov	r0, r4
 8000f48:	2140      	movs	r1, #64	; 0x40
 8000f4a:	f000 fda5 	bl	8001a98 <HAL_GPIO_WritePin>
	SDA_OUT();
 8000f4e:	f7ff ff27 	bl	8000da0 <my_SDA_OUT>
	SDA_H;
 8000f52:	2201      	movs	r2, #1
 8000f54:	2180      	movs	r1, #128	; 0x80
 8000f56:	4620      	mov	r0, r4
 8000f58:	f000 fd9e 	bl	8001a98 <HAL_GPIO_WritePin>
	HAL_usDelay(2);
 8000f5c:	2002      	movs	r0, #2
 8000f5e:	f7ff feda 	bl	8000d16 <HAL_usDelay>
	SCL_H;
 8000f62:	2201      	movs	r2, #1
 8000f64:	2140      	movs	r1, #64	; 0x40
 8000f66:	4620      	mov	r0, r4
 8000f68:	f000 fd96 	bl	8001a98 <HAL_GPIO_WritePin>
	HAL_usDelay(2);
 8000f6c:	2002      	movs	r0, #2
 8000f6e:	f7ff fed2 	bl	8000d16 <HAL_usDelay>
	SCL_L;
 8000f72:	4620      	mov	r0, r4
}
 8000f74:	e8bd 4010 	ldmia.w	sp!, {r4, lr}
	SCL_L;
 8000f78:	2200      	movs	r2, #0
 8000f7a:	2140      	movs	r1, #64	; 0x40
 8000f7c:	f000 bd8c 	b.w	8001a98 <HAL_GPIO_WritePin>
 8000f80:	40010800 	.word	0x40010800

08000f84 <IIC_Send_Byte>:
{
 8000f84:	b570      	push	{r4, r5, r6, lr}
 8000f86:	4604      	mov	r4, r0
	SDA_OUT();
 8000f88:	f7ff ff0a 	bl	8000da0 <my_SDA_OUT>
    SCL_L;
 8000f8c:	2200      	movs	r2, #0
 8000f8e:	2140      	movs	r1, #64	; 0x40
 8000f90:	4813      	ldr	r0, [pc, #76]	; (8000fe0 <IIC_Send_Byte+0x5c>)
 8000f92:	f000 fd81 	bl	8001a98 <HAL_GPIO_WritePin>
 8000f96:	2508      	movs	r5, #8
			SDA_L;//txd0
 8000f98:	4e11      	ldr	r6, [pc, #68]	; (8000fe0 <IIC_Send_Byte+0x5c>)
		if((txd&0x80)>>7)//txd1
 8000f9a:	0623      	lsls	r3, r4, #24
			SDA_H;//txd1
 8000f9c:	bf4c      	ite	mi
 8000f9e:	2201      	movmi	r2, #1
			SDA_L;//txd0
 8000fa0:	2200      	movpl	r2, #0
 8000fa2:	2180      	movs	r1, #128	; 0x80
 8000fa4:	4630      	mov	r0, r6
 8000fa6:	f000 fd77 	bl	8001a98 <HAL_GPIO_WritePin>
		HAL_usDelay(2);//delay2SDASCL
 8000faa:	2002      	movs	r0, #2
 8000fac:	f7ff feb3 	bl	8000d16 <HAL_usDelay>
		SCL_H;
 8000fb0:	2201      	movs	r2, #1
 8000fb2:	2140      	movs	r1, #64	; 0x40
 8000fb4:	4630      	mov	r0, r6
 8000fb6:	f000 fd6f 	bl	8001a98 <HAL_GPIO_WritePin>
		HAL_usDelay(2);
 8000fba:	2002      	movs	r0, #2
 8000fbc:	f7ff feab 	bl	8000d16 <HAL_usDelay>
		SCL_L;
 8000fc0:	2200      	movs	r2, #0
 8000fc2:	2140      	movs	r1, #64	; 0x40
 8000fc4:	4630      	mov	r0, r6
 8000fc6:	f000 fd67 	bl	8001a98 <HAL_GPIO_WritePin>
    for(t=0;t<8;t++)//
 8000fca:	3d01      	subs	r5, #1
		HAL_usDelay(2);
 8000fcc:	2002      	movs	r0, #2
 8000fce:	f7ff fea2 	bl	8000d16 <HAL_usDelay>
		txd<<=1;// 
 8000fd2:	0064      	lsls	r4, r4, #1
    for(t=0;t<8;t++)//
 8000fd4:	f015 05ff 	ands.w	r5, r5, #255	; 0xff
		txd<<=1;// 
 8000fd8:	b2e4      	uxtb	r4, r4
    for(t=0;t<8;t++)//
 8000fda:	d1de      	bne.n	8000f9a <IIC_Send_Byte+0x16>
}
 8000fdc:	bd70      	pop	{r4, r5, r6, pc}
 8000fde:	bf00      	nop
 8000fe0:	40010800 	.word	0x40010800

08000fe4 <IIC_Read_Byte>:
{
 8000fe4:	b5f8      	push	{r3, r4, r5, r6, r7, lr}
 8000fe6:	4606      	mov	r6, r0
	SDA_IN();
 8000fe8:	2508      	movs	r5, #8
 8000fea:	f7ff fec7 	bl	8000d7c <my_SDA_IN>
	unsigned char i,receive=0;
 8000fee:	2400      	movs	r4, #0
        SCL_L;
 8000ff0:	4f12      	ldr	r7, [pc, #72]	; (800103c <IIC_Read_Byte+0x58>)
 8000ff2:	2200      	movs	r2, #0
 8000ff4:	2140      	movs	r1, #64	; 0x40
 8000ff6:	4638      	mov	r0, r7
 8000ff8:	f000 fd4e 	bl	8001a98 <HAL_GPIO_WritePin>
        HAL_usDelay(2);
 8000ffc:	2002      	movs	r0, #2
 8000ffe:	f7ff fe8a 	bl	8000d16 <HAL_usDelay>
		SCL_H;
 8001002:	2140      	movs	r1, #64	; 0x40
 8001004:	4638      	mov	r0, r7
 8001006:	2201      	movs	r2, #1
 8001008:	f000 fd46 	bl	8001a98 <HAL_GPIO_WritePin>
        receive<<=1;
 800100c:	0064      	lsls	r4, r4, #1
        if(SDA_read)receive++;
 800100e:	2180      	movs	r1, #128	; 0x80
 8001010:	4638      	mov	r0, r7
        receive<<=1;
 8001012:	b2e4      	uxtb	r4, r4
        if(SDA_read)receive++;
 8001014:	f000 fd3a 	bl	8001a8c <HAL_GPIO_ReadPin>
 8001018:	b108      	cbz	r0, 800101e <IIC_Read_Byte+0x3a>
 800101a:	3401      	adds	r4, #1
 800101c:	b2e4      	uxtb	r4, r4
        HAL_usDelay(1);
 800101e:	2001      	movs	r0, #1
    for(i=0;i<8;i++ )
 8001020:	3d01      	subs	r5, #1
        HAL_usDelay(1);
 8001022:	f7ff fe78 	bl	8000d16 <HAL_usDelay>
    for(i=0;i<8;i++ )
 8001026:	f015 05ff 	ands.w	r5, r5, #255	; 0xff
 800102a:	d1e2      	bne.n	8000ff2 <IIC_Read_Byte+0xe>
    if (!ack)
 800102c:	b91e      	cbnz	r6, 8001036 <IIC_Read_Byte+0x52>
        IIC_NAck();
 800102e:	f7ff ff87 	bl	8000f40 <IIC_NAck>
}
 8001032:	4620      	mov	r0, r4
 8001034:	bdf8      	pop	{r3, r4, r5, r6, r7, pc}
        IIC_Ack();
 8001036:	f7ff ff61 	bl	8000efc <IIC_Ack>
 800103a:	e7fa      	b.n	8001032 <IIC_Read_Byte+0x4e>
 800103c:	40010800 	.word	0x40010800

08001040 <IIC_ReadNumByte_TE>:
{
 8001040:	b570      	push	{r4, r5, r6, lr}
 8001042:	4606      	mov	r6, r0
 8001044:	460d      	mov	r5, r1
 8001046:	4614      	mov	r4, r2
	IIC_Start();
 8001048:	f7ff fee8 	bl	8000e1c <IIC_Start>
	IIC_Send_Byte(address);
 800104c:	f046 0001 	orr.w	r0, r6, #1
 8001050:	f7ff ff98 	bl	8000f84 <IIC_Send_Byte>
	HAL_usDelay(2);
 8001054:	2002      	movs	r0, #2
 8001056:	f7ff fe5e 	bl	8000d16 <HAL_usDelay>
	ack=IIC_Wait_Ack();
 800105a:	f7ff ff23 	bl	8000ea4 <IIC_Wait_Ack>
	if(ack)
 800105e:	b170      	cbz	r0, 800107e <IIC_ReadNumByte_TE+0x3e>
		IIC_Stop();
 8001060:	f7ff fefe 	bl	8000e60 <IIC_Stop>
		return 1;
 8001064:	2401      	movs	r4, #1
}
 8001066:	4620      	mov	r0, r4
 8001068:	bd70      	pop	{r4, r5, r6, pc}
		if(count!=1) *buf = IIC_Read_Byte(1);
 800106a:	2c01      	cmp	r4, #1
 800106c:	bf14      	ite	ne
 800106e:	2001      	movne	r0, #1
		else *buf=IIC_Read_Byte(0);
 8001070:	2000      	moveq	r0, #0
 8001072:	f7ff ffb7 	bl	8000fe4 <IIC_Read_Byte>
		count--;
 8001076:	3c01      	subs	r4, #1
		if(count!=1) *buf = IIC_Read_Byte(1);
 8001078:	f805 0b01 	strb.w	r0, [r5], #1
		count--;
 800107c:	b2e4      	uxtb	r4, r4
	while(count)
 800107e:	2c00      	cmp	r4, #0
 8001080:	d1f3      	bne.n	800106a <IIC_ReadNumByte_TE+0x2a>
	IIC_Stop();
 8001082:	f7ff feed 	bl	8000e60 <IIC_Stop>
	return 0;
 8001086:	e7ee      	b.n	8001066 <IIC_ReadNumByte_TE+0x26>

08001088 <M5803_get_cal_TE>:
{
 8001088:	b537      	push	{r0, r1, r2, r4, r5, lr}
	IIC_ReadNumByte_TE(Device_Address,buffer,4);
 800108a:	2204      	movs	r2, #4
	uint8_t buffer[4] = {0,0};
 800108c:	2300      	movs	r3, #0
{
 800108e:	4605      	mov	r5, r0
 8001090:	460c      	mov	r4, r1
	IIC_ReadNumByte_TE(Device_Address,buffer,4);
 8001092:	2050      	movs	r0, #80	; 0x50
 8001094:	eb0d 0102 	add.w	r1, sp, r2
	uint8_t buffer[4] = {0,0};
 8001098:	9301      	str	r3, [sp, #4]
	IIC_ReadNumByte_TE(Device_Address,buffer,4);
 800109a:	f7ff ffd1 	bl	8001040 <IIC_ReadNumByte_TE>
	*press = ((((uint32_t)buffer[0] << 8) + (uint32_t)buffer[1])) & 0x3fff ;
 800109e:	f89d 2004 	ldrb.w	r2, [sp, #4]
 80010a2:	f89d 3005 	ldrb.w	r3, [sp, #5]
 80010a6:	eb03 2302 	add.w	r3, r3, r2, lsl #8
 80010aa:	f3c3 030d 	ubfx	r3, r3, #0, #14
 80010ae:	602b      	str	r3, [r5, #0]
	*temp = ((((uint32_t)buffer[2] << 8) + ((uint32_t)buffer[3])) & 0xffe0) >> 5;
 80010b0:	f89d 2006 	ldrb.w	r2, [sp, #6]
 80010b4:	f89d 3007 	ldrb.w	r3, [sp, #7]
 80010b8:	eb03 2302 	add.w	r3, r3, r2, lsl #8
 80010bc:	095b      	lsrs	r3, r3, #5
 80010be:	6023      	str	r3, [r4, #0]
}
 80010c0:	b003      	add	sp, #12
 80010c2:	bd30      	pop	{r4, r5, pc}

080010c4 <func_tca9548a_select>:
{
 80010c4:	b510      	push	{r4, lr}
 80010c6:	4604      	mov	r4, r0
	IIC_Start();
 80010c8:	f7ff fea8 	bl	8000e1c <IIC_Start>
	IIC_Send_Byte((ADDR_TCA9548A << 1) | 0x00);
 80010cc:	4b0d      	ldr	r3, [pc, #52]	; (8001104 <func_tca9548a_select+0x40>)
 80010ce:	7818      	ldrb	r0, [r3, #0]
 80010d0:	0040      	lsls	r0, r0, #1
 80010d2:	f000 00fe 	and.w	r0, r0, #254	; 0xfe
 80010d6:	f7ff ff55 	bl	8000f84 <IIC_Send_Byte>
	if (IIC_Wait_Ack() != 0)
 80010da:	f7ff fee3 	bl	8000ea4 <IIC_Wait_Ack>
 80010de:	b968      	cbnz	r0, 80010fc <func_tca9548a_select+0x38>
	IIC_Send_Byte(1 << chn);
 80010e0:	2301      	movs	r3, #1
 80010e2:	fa03 f004 	lsl.w	r0, r3, r4
 80010e6:	b2c0      	uxtb	r0, r0
 80010e8:	f7ff ff4c 	bl	8000f84 <IIC_Send_Byte>
	if (IIC_Wait_Ack() != 0)
 80010ec:	f7ff feda 	bl	8000ea4 <IIC_Wait_Ack>
 80010f0:	4604      	mov	r4, r0
 80010f2:	b918      	cbnz	r0, 80010fc <func_tca9548a_select+0x38>
	IIC_Stop();
 80010f4:	f7ff feb4 	bl	8000e60 <IIC_Stop>
}
 80010f8:	4620      	mov	r0, r4
 80010fa:	bd10      	pop	{r4, pc}
		IIC_Stop();
 80010fc:	f7ff feb0 	bl	8000e60 <IIC_Stop>
		return 1;
 8001100:	2401      	movs	r4, #1
 8001102:	e7f9      	b.n	80010f8 <func_tca9548a_select+0x34>
 8001104:	20000001 	.word	0x20000001

08001108 <Error_Handler>:
 8001108:	b672      	cpsid	i
  while (1)
 800110a:	e7fe      	b.n	800110a <Error_Handler+0x2>

0800110c <HAL_MspInit>:
{
  /* USER CODE BEGIN MspInit 0 */

  /* USER CODE END MspInit 0 */

  __HAL_RCC_AFIO_CLK_ENABLE();
 800110c:	4b0e      	ldr	r3, [pc, #56]	; (8001148 <HAL_MspInit+0x3c>)
{
 800110e:	b082      	sub	sp, #8
  __HAL_RCC_AFIO_CLK_ENABLE();
 8001110:	699a      	ldr	r2, [r3, #24]
 8001112:	f042 0201 	orr.w	r2, r2, #1
 8001116:	619a      	str	r2, [r3, #24]
 8001118:	699a      	ldr	r2, [r3, #24]
 800111a:	f002 0201 	and.w	r2, r2, #1
 800111e:	9200      	str	r2, [sp, #0]
 8001120:	9a00      	ldr	r2, [sp, #0]
  __HAL_RCC_PWR_CLK_ENABLE();
 8001122:	69da      	ldr	r2, [r3, #28]
 8001124:	f042 5280 	orr.w	r2, r2, #268435456	; 0x10000000
 8001128:	61da      	str	r2, [r3, #28]
 800112a:	69db      	ldr	r3, [r3, #28]

  /* System interrupt init*/

  /** NOJTAG: JTAG-DP Disabled and SW-DP Enabled
  */
  __HAL_AFIO_REMAP_SWJ_NOJTAG();
 800112c:	4a07      	ldr	r2, [pc, #28]	; (800114c <HAL_MspInit+0x40>)
  __HAL_RCC_PWR_CLK_ENABLE();
 800112e:	f003 5380 	and.w	r3, r3, #268435456	; 0x10000000
 8001132:	9301      	str	r3, [sp, #4]
 8001134:	9b01      	ldr	r3, [sp, #4]
  __HAL_AFIO_REMAP_SWJ_NOJTAG();
 8001136:	6853      	ldr	r3, [r2, #4]
 8001138:	f023 63e0 	bic.w	r3, r3, #117440512	; 0x7000000
 800113c:	f043 7300 	orr.w	r3, r3, #33554432	; 0x2000000
 8001140:	6053      	str	r3, [r2, #4]

  /* USER CODE BEGIN MspInit 1 */

  /* USER CODE END MspInit 1 */
}
 8001142:	b002      	add	sp, #8
 8001144:	4770      	bx	lr
 8001146:	bf00      	nop
 8001148:	40021000 	.word	0x40021000
 800114c:	40010000 	.word	0x40010000

08001150 <NMI_Handler>:
{
  /* USER CODE BEGIN NonMaskableInt_IRQn 0 */

  /* USER CODE END NonMaskableInt_IRQn 0 */
  /* USER CODE BEGIN NonMaskableInt_IRQn 1 */
   while (1)
 8001150:	e7fe      	b.n	8001150 <NMI_Handler>

08001152 <HardFault_Handler>:
void HardFault_Handler(void)
{
  /* USER CODE BEGIN HardFault_IRQn 0 */

  /* USER CODE END HardFault_IRQn 0 */
  while (1)
 8001152:	e7fe      	b.n	8001152 <HardFault_Handler>

08001154 <MemManage_Handler>:
void MemManage_Handler(void)
{
  /* USER CODE BEGIN MemoryManagement_IRQn 0 */

  /* USER CODE END MemoryManagement_IRQn 0 */
  while (1)
 8001154:	e7fe      	b.n	8001154 <MemManage_Handler>

08001156 <BusFault_Handler>:
void BusFault_Handler(void)
{
  /* USER CODE BEGIN BusFault_IRQn 0 */

  /* USER CODE END BusFault_IRQn 0 */
  while (1)
 8001156:	e7fe      	b.n	8001156 <BusFault_Handler>

08001158 <UsageFault_Handler>:
void UsageFault_Handler(void)
{
  /* USER CODE BEGIN UsageFault_IRQn 0 */

  /* USER CODE END UsageFault_IRQn 0 */
  while (1)
 8001158:	e7fe      	b.n	8001158 <UsageFault_Handler>

0800115a <SVC_Handler>:

  /* USER CODE END SVCall_IRQn 0 */
  /* USER CODE BEGIN SVCall_IRQn 1 */

  /* USER CODE END SVCall_IRQn 1 */
}
 800115a:	4770      	bx	lr

0800115c <DebugMon_Handler>:
 800115c:	4770      	bx	lr

0800115e <PendSV_Handler>:
 800115e:	4770      	bx	lr

08001160 <SysTick_Handler>:
void SysTick_Handler(void)
{
  /* USER CODE BEGIN SysTick_IRQn 0 */

  /* USER CODE END SysTick_IRQn 0 */
  HAL_IncTick();
 8001160:	f000 bae0 	b.w	8001724 <HAL_IncTick>

08001164 <USART1_IRQHandler>:
void USART1_IRQHandler(void)
{
  /* USER CODE BEGIN USART1_IRQn 0 */

  /* USER CODE END USART1_IRQn 0 */
  HAL_UART_IRQHandler(&huart1);
 8001164:	4801      	ldr	r0, [pc, #4]	; (800116c <USART1_IRQHandler+0x8>)
 8001166:	f001 b899 	b.w	800229c <HAL_UART_IRQHandler>
 800116a:	bf00      	nop
 800116c:	200002a8 	.word	0x200002a8

08001170 <_getpid>:
}

int _getpid(void)
{
  return 1;
}
 8001170:	2001      	movs	r0, #1
 8001172:	4770      	bx	lr

08001174 <_kill>:

int _kill(int pid, int sig)
{
 8001174:	b508      	push	{r3, lr}
  (void)pid;
  (void)sig;
  errno = EINVAL;
 8001176:	f002 faeb 	bl	8003750 <__errno>
 800117a:	2316      	movs	r3, #22
 800117c:	6003      	str	r3, [r0, #0]
  return -1;
}
 800117e:	f04f 30ff 	mov.w	r0, #4294967295
 8001182:	bd08      	pop	{r3, pc}

08001184 <_exit>:

void _exit (int status)
{
 8001184:	b508      	push	{r3, lr}
  errno = EINVAL;
 8001186:	f002 fae3 	bl	8003750 <__errno>
 800118a:	2316      	movs	r3, #22
 800118c:	6003      	str	r3, [r0, #0]
  _kill(status, -1);
  while (1) {}    /* Make sure we hang here */
 800118e:	e7fe      	b.n	800118e <_exit+0xa>

08001190 <_read>:
}

__attribute__((weak)) int _read(int file, char *ptr, int len)
{
 8001190:	b570      	push	{r4, r5, r6, lr}
 8001192:	460d      	mov	r5, r1
 8001194:	4614      	mov	r4, r2
  (void)file;
  int DataIdx;

  for (DataIdx = 0; DataIdx < len; DataIdx++)
 8001196:	460e      	mov	r6, r1
 8001198:	1b73      	subs	r3, r6, r5
 800119a:	429c      	cmp	r4, r3
 800119c:	dc01      	bgt.n	80011a2 <_read+0x12>
  {
    *ptr++ = __io_getchar();
  }

  return len;
}
 800119e:	4620      	mov	r0, r4
 80011a0:	bd70      	pop	{r4, r5, r6, pc}
    *ptr++ = __io_getchar();
 80011a2:	f3af 8000 	nop.w
 80011a6:	f806 0b01 	strb.w	r0, [r6], #1
  for (DataIdx = 0; DataIdx < len; DataIdx++)
 80011aa:	e7f5      	b.n	8001198 <_read+0x8>

080011ac <_write>:

__attribute__((weak)) int _write(int file, char *ptr, int len)
{
 80011ac:	b570      	push	{r4, r5, r6, lr}
 80011ae:	460d      	mov	r5, r1
 80011b0:	4614      	mov	r4, r2
  (void)file;
  int DataIdx;

  for (DataIdx = 0; DataIdx < len; DataIdx++)
 80011b2:	460e      	mov	r6, r1
 80011b4:	1b73      	subs	r3, r6, r5
 80011b6:	429c      	cmp	r4, r3
 80011b8:	dc01      	bgt.n	80011be <_write+0x12>
  {
    __io_putchar(*ptr++);
  }
  return len;
}
 80011ba:	4620      	mov	r0, r4
 80011bc:	bd70      	pop	{r4, r5, r6, pc}
    __io_putchar(*ptr++);
 80011be:	f816 0b01 	ldrb.w	r0, [r6], #1
 80011c2:	f000 f899 	bl	80012f8 <__io_putchar>
  for (DataIdx = 0; DataIdx < len; DataIdx++)
 80011c6:	e7f5      	b.n	80011b4 <_write+0x8>

080011c8 <_close>:

int _close(int file)
{
  (void)file;
  return -1;
}
 80011c8:	f04f 30ff 	mov.w	r0, #4294967295
 80011cc:	4770      	bx	lr

080011ce <_fstat>:


int _fstat(int file, struct stat *st)
{
  (void)file;
  st->st_mode = S_IFCHR;
 80011ce:	f44f 5300 	mov.w	r3, #8192	; 0x2000
  return 0;
}
 80011d2:	2000      	movs	r0, #0
  st->st_mode = S_IFCHR;
 80011d4:	604b      	str	r3, [r1, #4]
}
 80011d6:	4770      	bx	lr

080011d8 <_isatty>:

int _isatty(int file)
{
  (void)file;
  return 1;
}
 80011d8:	2001      	movs	r0, #1
 80011da:	4770      	bx	lr

080011dc <_lseek>:
{
  (void)file;
  (void)ptr;
  (void)dir;
  return 0;
}
 80011dc:	2000      	movs	r0, #0
 80011de:	4770      	bx	lr

080011e0 <_sbrk>:
  const uint32_t stack_limit = (uint32_t)&_estack - (uint32_t)&_Min_Stack_Size;
  const uint8_t *max_heap = (uint8_t *)stack_limit;
  uint8_t *prev_heap_end;

  /* Initialize heap end at first call */
  if (NULL == __sbrk_heap_end)
 80011e0:	4a0b      	ldr	r2, [pc, #44]	; (8001210 <_sbrk+0x30>)
{
 80011e2:	4603      	mov	r3, r0
  if (NULL == __sbrk_heap_end)
 80011e4:	6811      	ldr	r1, [r2, #0]
{
 80011e6:	b510      	push	{r4, lr}
  if (NULL == __sbrk_heap_end)
 80011e8:	b909      	cbnz	r1, 80011ee <_sbrk+0xe>
  {
    __sbrk_heap_end = &_end;
 80011ea:	490a      	ldr	r1, [pc, #40]	; (8001214 <_sbrk+0x34>)
 80011ec:	6011      	str	r1, [r2, #0]
  }

  /* Protect heap from growing into the reserved MSP stack */
  if (__sbrk_heap_end + incr > max_heap)
 80011ee:	6810      	ldr	r0, [r2, #0]
 80011f0:	4909      	ldr	r1, [pc, #36]	; (8001218 <_sbrk+0x38>)
 80011f2:	4c0a      	ldr	r4, [pc, #40]	; (800121c <_sbrk+0x3c>)
 80011f4:	4403      	add	r3, r0
 80011f6:	1b09      	subs	r1, r1, r4
 80011f8:	428b      	cmp	r3, r1
 80011fa:	d906      	bls.n	800120a <_sbrk+0x2a>
  {
    errno = ENOMEM;
 80011fc:	f002 faa8 	bl	8003750 <__errno>
 8001200:	230c      	movs	r3, #12
 8001202:	6003      	str	r3, [r0, #0]
    return (void *)-1;
 8001204:	f04f 30ff 	mov.w	r0, #4294967295

  prev_heap_end = __sbrk_heap_end;
  __sbrk_heap_end += incr;

  return (void *)prev_heap_end;
}
 8001208:	bd10      	pop	{r4, pc}
  __sbrk_heap_end += incr;
 800120a:	6013      	str	r3, [r2, #0]
  return (void *)prev_heap_end;
 800120c:	e7fc      	b.n	8001208 <_sbrk+0x28>
 800120e:	bf00      	nop
 8001210:	20000210 	.word	0x20000210
 8001214:	20000440 	.word	0x20000440
 8001218:	20002800 	.word	0x20002800
 800121c:	00000400 	.word	0x00000400

08001220 <SystemInit>:

  /* Configure the Vector Table location -------------------------------------*/
#if defined(USER_VECT_TAB_ADDRESS)
  SCB->VTOR = VECT_TAB_BASE_ADDRESS | VECT_TAB_OFFSET; /* Vector Table Relocation in Internal SRAM. */
#endif /* USER_VECT_TAB_ADDRESS */
}
 8001220:	4770      	bx	lr
	...

08001224 <MX_USART1_UART_Init>:
UART_HandleTypeDef huart1;

/* USART1 init function */

void MX_USART1_UART_Init(void)
{
 8001224:	b508      	push	{r3, lr}

  /* USER CODE BEGIN USART1_Init 1 */

  /* USER CODE END USART1_Init 1 */
  huart1.Instance = USART1;
  huart1.Init.BaudRate = 115200;
 8001226:	f44f 33e1 	mov.w	r3, #115200	; 0x1c200
  huart1.Instance = USART1;
 800122a:	480a      	ldr	r0, [pc, #40]	; (8001254 <MX_USART1_UART_Init+0x30>)
  huart1.Init.BaudRate = 115200;
 800122c:	4a0a      	ldr	r2, [pc, #40]	; (8001258 <MX_USART1_UART_Init+0x34>)
 800122e:	e9c0 2300 	strd	r2, r3, [r0]
  huart1.Init.WordLength = UART_WORDLENGTH_8B;
 8001232:	2300      	movs	r3, #0
  huart1.Init.StopBits = UART_STOPBITS_1;
  huart1.Init.Parity = UART_PARITY_NONE;
  huart1.Init.Mode = UART_MODE_TX_RX;
 8001234:	220c      	movs	r2, #12
  huart1.Init.StopBits = UART_STOPBITS_1;
 8001236:	e9c0 3302 	strd	r3, r3, [r0, #8]
  huart1.Init.HwFlowCtl = UART_HWCONTROL_NONE;
 800123a:	e9c0 2305 	strd	r2, r3, [r0, #20]
  huart1.Init.Parity = UART_PARITY_NONE;
 800123e:	6103      	str	r3, [r0, #16]
  huart1.Init.OverSampling = UART_OVERSAMPLING_16;
 8001240:	61c3      	str	r3, [r0, #28]
  if (HAL_UART_Init(&huart1) != HAL_OK)
 8001242:	f000 ff4b 	bl	80020dc <HAL_UART_Init>
 8001246:	b118      	cbz	r0, 8001250 <MX_USART1_UART_Init+0x2c>
  }
  /* USER CODE BEGIN USART1_Init 2 */

  /* USER CODE END USART1_Init 2 */

}
 8001248:	e8bd 4008 	ldmia.w	sp!, {r3, lr}
    Error_Handler();
 800124c:	f7ff bf5c 	b.w	8001108 <Error_Handler>
}
 8001250:	bd08      	pop	{r3, pc}
 8001252:	bf00      	nop
 8001254:	200002a8 	.word	0x200002a8
 8001258:	40013800 	.word	0x40013800

0800125c <HAL_UART_MspInit>:

void HAL_UART_MspInit(UART_HandleTypeDef* uartHandle)
{
 800125c:	b510      	push	{r4, lr}
 800125e:	4604      	mov	r4, r0
 8001260:	b086      	sub	sp, #24

  GPIO_InitTypeDef GPIO_InitStruct = {0};
 8001262:	2210      	movs	r2, #16
 8001264:	2100      	movs	r1, #0
 8001266:	a802      	add	r0, sp, #8
 8001268:	f002 fa20 	bl	80036ac <memset>
  if(uartHandle->Instance==USART1)
 800126c:	6822      	ldr	r2, [r4, #0]
 800126e:	4b1b      	ldr	r3, [pc, #108]	; (80012dc <HAL_UART_MspInit+0x80>)
 8001270:	429a      	cmp	r2, r3
 8001272:	d130      	bne.n	80012d6 <HAL_UART_MspInit+0x7a>
  {
  /* USER CODE BEGIN USART1_MspInit 0 */

  /* USER CODE END USART1_MspInit 0 */
    /* USART1 clock enable */
    __HAL_RCC_USART1_CLK_ENABLE();
 8001274:	f503 4358 	add.w	r3, r3, #55296	; 0xd800
 8001278:	699a      	ldr	r2, [r3, #24]
    PA10     ------> USART1_RX
    */
    GPIO_InitStruct.Pin = GPIO_PIN_9;
    GPIO_InitStruct.Mode = GPIO_MODE_AF_PP;
    GPIO_InitStruct.Speed = GPIO_SPEED_FREQ_HIGH;
    HAL_GPIO_Init(GPIOA, &GPIO_InitStruct);
 800127a:	4819      	ldr	r0, [pc, #100]	; (80012e0 <HAL_UART_MspInit+0x84>)
    __HAL_RCC_USART1_CLK_ENABLE();
 800127c:	f442 4280 	orr.w	r2, r2, #16384	; 0x4000
 8001280:	619a      	str	r2, [r3, #24]
 8001282:	699a      	ldr	r2, [r3, #24]
    HAL_GPIO_Init(GPIOA, &GPIO_InitStruct);
 8001284:	a902      	add	r1, sp, #8
    __HAL_RCC_USART1_CLK_ENABLE();
 8001286:	f402 4280 	and.w	r2, r2, #16384	; 0x4000
 800128a:	9200      	str	r2, [sp, #0]
 800128c:	9a00      	ldr	r2, [sp, #0]
    __HAL_RCC_GPIOA_CLK_ENABLE();
 800128e:	699a      	ldr	r2, [r3, #24]

    GPIO_InitStruct.Pin = GPIO_PIN_10;
    GPIO_InitStruct.Mode = GPIO_MODE_INPUT;
 8001290:	2400      	movs	r4, #0
    __HAL_RCC_GPIOA_CLK_ENABLE();
 8001292:	f042 0204 	orr.w	r2, r2, #4
 8001296:	619a      	str	r2, [r3, #24]
 8001298:	699b      	ldr	r3, [r3, #24]
    GPIO_InitStruct.Mode = GPIO_MODE_AF_PP;
 800129a:	f44f 7200 	mov.w	r2, #512	; 0x200
    __HAL_RCC_GPIOA_CLK_ENABLE();
 800129e:	f003 0304 	and.w	r3, r3, #4
 80012a2:	9301      	str	r3, [sp, #4]
 80012a4:	9b01      	ldr	r3, [sp, #4]
    GPIO_InitStruct.Mode = GPIO_MODE_AF_PP;
 80012a6:	2302      	movs	r3, #2
 80012a8:	e9cd 2302 	strd	r2, r3, [sp, #8]
    GPIO_InitStruct.Speed = GPIO_SPEED_FREQ_HIGH;
 80012ac:	2303      	movs	r3, #3
 80012ae:	9305      	str	r3, [sp, #20]
    HAL_GPIO_Init(GPIOA, &GPIO_InitStruct);
 80012b0:	f000 fb16 	bl	80018e0 <HAL_GPIO_Init>
    GPIO_InitStruct.Mode = GPIO_MODE_INPUT;
 80012b4:	f44f 6380 	mov.w	r3, #1024	; 0x400
    GPIO_InitStruct.Pull = GPIO_NOPULL;
    HAL_GPIO_Init(GPIOA, &GPIO_InitStruct);
 80012b8:	4809      	ldr	r0, [pc, #36]	; (80012e0 <HAL_UART_MspInit+0x84>)
 80012ba:	a902      	add	r1, sp, #8
    GPIO_InitStruct.Mode = GPIO_MODE_INPUT;
 80012bc:	e9cd 3402 	strd	r3, r4, [sp, #8]
    GPIO_InitStruct.Pull = GPIO_NOPULL;
 80012c0:	9404      	str	r4, [sp, #16]
    HAL_GPIO_Init(GPIOA, &GPIO_InitStruct);
 80012c2:	f000 fb0d 	bl	80018e0 <HAL_GPIO_Init>

    /* USART1 interrupt Init */
    HAL_NVIC_SetPriority(USART1_IRQn, 0, 0);
 80012c6:	2025      	movs	r0, #37	; 0x25
 80012c8:	4622      	mov	r2, r4
 80012ca:	4621      	mov	r1, r4
 80012cc:	f000 fa4e 	bl	800176c <HAL_NVIC_SetPriority>
    HAL_NVIC_EnableIRQ(USART1_IRQn);
 80012d0:	2025      	movs	r0, #37	; 0x25
 80012d2:	f000 fa7b 	bl	80017cc <HAL_NVIC_EnableIRQ>
  /* USER CODE BEGIN USART1_MspInit 1 */

  /* USER CODE END USART1_MspInit 1 */
  }
}
 80012d6:	b006      	add	sp, #24
 80012d8:	bd10      	pop	{r4, pc}
 80012da:	bf00      	nop
 80012dc:	40013800 	.word	0x40013800
 80012e0:	40010800 	.word	0x40010800

080012e4 <crc8_chk_value>:
  }
}

/* USER CODE BEGIN 1 */
uint8_t crc8_chk_value(uint8_t *message, uint8_t len)
{
 80012e4:	4603      	mov	r3, r0
	uint8_t crc;
    crc = 0;
    while(len--)
 80012e6:	4401      	add	r1, r0
    crc = 0;
 80012e8:	2000      	movs	r0, #0
    while(len--)
 80012ea:	428b      	cmp	r3, r1
 80012ec:	d100      	bne.n	80012f0 <crc8_chk_value+0xc>
        crc ^= *message++;
    return crc;
}
 80012ee:	4770      	bx	lr
        crc ^= *message++;
 80012f0:	f813 2b01 	ldrb.w	r2, [r3], #1
 80012f4:	4050      	eors	r0, r2
 80012f6:	e7f8      	b.n	80012ea <crc8_chk_value+0x6>

080012f8 <__io_putchar>:
#else
#define PUTCHAR_PROTOTYPE int fputc(int ch, FILE *f)
#endif

PUTCHAR_PROTOTYPE
{
 80012f8:	b507      	push	{r0, r1, r2, lr}
	HAL_UART_Transmit(&huart1,(uint8_t*)&ch, 1, 0xFFFF);
 80012fa:	f64f 73ff 	movw	r3, #65535	; 0xffff
{
 80012fe:	9001      	str	r0, [sp, #4]
	HAL_UART_Transmit(&huart1,(uint8_t*)&ch, 1, 0xFFFF);
 8001300:	2201      	movs	r2, #1
 8001302:	a901      	add	r1, sp, #4
 8001304:	4803      	ldr	r0, [pc, #12]	; (8001314 <__io_putchar+0x1c>)
 8001306:	f000 ff18 	bl	800213a <HAL_UART_Transmit>
	return ch;
}
 800130a:	9801      	ldr	r0, [sp, #4]
 800130c:	b003      	add	sp, #12
 800130e:	f85d fb04 	ldr.w	pc, [sp], #4
 8001312:	bf00      	nop
 8001314:	200002a8 	.word	0x200002a8

08001318 <HAL_UART_RxCpltCallback>:
uint8_t RxData[16] = {0};
uint8_t RxLenght = 0;
uint8_t RxIndex = 0;
uint8_t RxFlag = 0;		//0none  1:completion head 2:finish Data Length 3:finish Read data  4:completion tail  5:completion Calibration in progress
void HAL_UART_RxCpltCallback(UART_HandleTypeDef *huart)
{
 8001318:	b510      	push	{r4, lr}
  UNUSED(huart);
  /* NOTE: This function Should not be modified, when the callback is needed,
           the HAL_UART_TxCpltCallback could be implemented in the user file
   */
  uint8_t uwCRCValue = 0;
  switch(RxFlag)
 800131a:	4c27      	ldr	r4, [pc, #156]	; (80013b8 <HAL_UART_RxCpltCallback+0xa0>)
 800131c:	7823      	ldrb	r3, [r4, #0]
 800131e:	2b04      	cmp	r3, #4
 8001320:	d80f      	bhi.n	8001342 <HAL_UART_RxCpltCallback+0x2a>
 8001322:	e8df f003 	tbb	[pc, r3]
 8001326:	1503      	.short	0x1503
 8001328:	3221      	.short	0x3221
 800132a:	3d          	.byte	0x3d
 800132b:	00          	.byte	0x00
  {
  	  case 0:
  		  if(RxBuffer == 0x55)//55
 800132c:	4b23      	ldr	r3, [pc, #140]	; (80013bc <HAL_UART_RxCpltCallback+0xa4>)
 800132e:	781b      	ldrb	r3, [r3, #0]
 8001330:	2b55      	cmp	r3, #85	; 0x55
 8001332:	d106      	bne.n	8001342 <HAL_UART_RxCpltCallback+0x2a>
  		  {
  			RxIndex = 0;
 8001334:	2300      	movs	r3, #0
 8001336:	4a22      	ldr	r2, [pc, #136]	; (80013c0 <HAL_UART_RxCpltCallback+0xa8>)
 8001338:	7013      	strb	r3, [r2, #0]
  			memset(RxData,0,sizeof(RxBuffer));
 800133a:	4a22      	ldr	r2, [pc, #136]	; (80013c4 <HAL_UART_RxCpltCallback+0xac>)
 800133c:	7013      	strb	r3, [r2, #0]
		    RxFlag = 1;
 800133e:	2301      	movs	r3, #1
  			RxFlag = 0;
		  break;
  	  case 4://CRC
  		  uwCRCValue = crc8_chk_value(&RxData[0],RxData[0]+1);
  		  if(uwCRCValue == RxBuffer)
		    RxFlag = 5;
 8001340:	7023      	strb	r3, [r4, #0]
  		  else
  			RxFlag = 0;
		  break;
  }

  HAL_UART_Receive_IT(&huart1, (uint8_t *)&RxBuffer, 1);
 8001342:	2201      	movs	r2, #1
}
 8001344:	e8bd 4010 	ldmia.w	sp!, {r4, lr}
  HAL_UART_Receive_IT(&huart1, (uint8_t *)&RxBuffer, 1);
 8001348:	491c      	ldr	r1, [pc, #112]	; (80013bc <HAL_UART_RxCpltCallback+0xa4>)
 800134a:	481f      	ldr	r0, [pc, #124]	; (80013c8 <HAL_UART_RxCpltCallback+0xb0>)
 800134c:	f001 b909 	b.w	8002562 <HAL_UART_Receive_IT>
  		  RxLenght = RxBuffer;
 8001350:	4b1a      	ldr	r3, [pc, #104]	; (80013bc <HAL_UART_RxCpltCallback+0xa4>)
  		  RxData[RxIndex++] = RxBuffer;
 8001352:	491b      	ldr	r1, [pc, #108]	; (80013c0 <HAL_UART_RxCpltCallback+0xa8>)
  		  RxLenght = RxBuffer;
 8001354:	781a      	ldrb	r2, [r3, #0]
 8001356:	4b1d      	ldr	r3, [pc, #116]	; (80013cc <HAL_UART_RxCpltCallback+0xb4>)
 8001358:	701a      	strb	r2, [r3, #0]
  		  RxData[RxIndex++] = RxBuffer;
 800135a:	780b      	ldrb	r3, [r1, #0]
 800135c:	1c58      	adds	r0, r3, #1
 800135e:	7008      	strb	r0, [r1, #0]
 8001360:	4918      	ldr	r1, [pc, #96]	; (80013c4 <HAL_UART_RxCpltCallback+0xac>)
 8001362:	54ca      	strb	r2, [r1, r3]
  		  RxFlag = 2;
 8001364:	2302      	movs	r3, #2
 8001366:	e7eb      	b.n	8001340 <HAL_UART_RxCpltCallback+0x28>
  		  RxData[RxIndex++] = RxBuffer;
 8001368:	4a15      	ldr	r2, [pc, #84]	; (80013c0 <HAL_UART_RxCpltCallback+0xa8>)
 800136a:	7813      	ldrb	r3, [r2, #0]
 800136c:	1c59      	adds	r1, r3, #1
 800136e:	7011      	strb	r1, [r2, #0]
 8001370:	4a12      	ldr	r2, [pc, #72]	; (80013bc <HAL_UART_RxCpltCallback+0xa4>)
 8001372:	7811      	ldrb	r1, [r2, #0]
 8001374:	4a13      	ldr	r2, [pc, #76]	; (80013c4 <HAL_UART_RxCpltCallback+0xac>)
 8001376:	54d1      	strb	r1, [r2, r3]
  		  RxLenght--;
 8001378:	4a14      	ldr	r2, [pc, #80]	; (80013cc <HAL_UART_RxCpltCallback+0xb4>)
 800137a:	7813      	ldrb	r3, [r2, #0]
 800137c:	3b01      	subs	r3, #1
 800137e:	b2db      	uxtb	r3, r3
 8001380:	7013      	strb	r3, [r2, #0]
  		  if(RxLenght == 0)
 8001382:	2b00      	cmp	r3, #0
 8001384:	d1dd      	bne.n	8001342 <HAL_UART_RxCpltCallback+0x2a>
  			RxFlag = 3;
 8001386:	2303      	movs	r3, #3
 8001388:	e7da      	b.n	8001340 <HAL_UART_RxCpltCallback+0x28>
  		  RxIndex = 0;
 800138a:	2200      	movs	r2, #0
 800138c:	4b0c      	ldr	r3, [pc, #48]	; (80013c0 <HAL_UART_RxCpltCallback+0xa8>)
 800138e:	701a      	strb	r2, [r3, #0]
  		  if(RxBuffer == 0x33)
 8001390:	4b0a      	ldr	r3, [pc, #40]	; (80013bc <HAL_UART_RxCpltCallback+0xa4>)
 8001392:	781b      	ldrb	r3, [r3, #0]
 8001394:	2b33      	cmp	r3, #51	; 0x33
 8001396:	d101      	bne.n	800139c <HAL_UART_RxCpltCallback+0x84>
		    RxFlag = 4;
 8001398:	2304      	movs	r3, #4
 800139a:	e7d1      	b.n	8001340 <HAL_UART_RxCpltCallback+0x28>
  			RxFlag = 0;
 800139c:	2300      	movs	r3, #0
 800139e:	e7cf      	b.n	8001340 <HAL_UART_RxCpltCallback+0x28>
  		  uwCRCValue = crc8_chk_value(&RxData[0],RxData[0]+1);
 80013a0:	4808      	ldr	r0, [pc, #32]	; (80013c4 <HAL_UART_RxCpltCallback+0xac>)
 80013a2:	7801      	ldrb	r1, [r0, #0]
 80013a4:	3101      	adds	r1, #1
 80013a6:	b2c9      	uxtb	r1, r1
 80013a8:	f7ff ff9c 	bl	80012e4 <crc8_chk_value>
  		  if(uwCRCValue == RxBuffer)
 80013ac:	4b03      	ldr	r3, [pc, #12]	; (80013bc <HAL_UART_RxCpltCallback+0xa4>)
 80013ae:	781b      	ldrb	r3, [r3, #0]
 80013b0:	4283      	cmp	r3, r0
 80013b2:	d1f3      	bne.n	800139c <HAL_UART_RxCpltCallback+0x84>
		    RxFlag = 5;
 80013b4:	2305      	movs	r3, #5
 80013b6:	e7c3      	b.n	8001340 <HAL_UART_RxCpltCallback+0x28>
 80013b8:	20000225 	.word	0x20000225
 80013bc:	20000214 	.word	0x20000214
 80013c0:	20000226 	.word	0x20000226
 80013c4:	20000215 	.word	0x20000215
 80013c8:	200002a8 	.word	0x200002a8
 80013cc:	20000227 	.word	0x20000227

080013d0 <SwitchPCA9548A>:

void SwitchPCA9548A(uint8_t i)
{
 80013d0:	b510      	push	{r4, lr}
 80013d2:	4604      	mov	r4, r0
	HAL_GPIO_WritePin(GPIOC, RST3_Pin|RST4_Pin, GPIO_PIN_RESET);
 80013d4:	2200      	movs	r2, #0
 80013d6:	f44f 41c0 	mov.w	r1, #24576	; 0x6000
 80013da:	4813      	ldr	r0, [pc, #76]	; (8001428 <SwitchPCA9548A+0x58>)
 80013dc:	f000 fb5c 	bl	8001a98 <HAL_GPIO_WritePin>
	  /*Configure GPIO pin Output Level */
	HAL_GPIO_WritePin(GPIOB, RST1_Pin|RST2_Pin, GPIO_PIN_RESET);
 80013e0:	4812      	ldr	r0, [pc, #72]	; (800142c <SwitchPCA9548A+0x5c>)
 80013e2:	2200      	movs	r2, #0
 80013e4:	f44f 71c0 	mov.w	r1, #384	; 0x180
 80013e8:	f000 fb56 	bl	8001a98 <HAL_GPIO_WritePin>

	switch(i)
 80013ec:	f1a4 0070 	sub.w	r0, r4, #112	; 0x70
 80013f0:	2803      	cmp	r0, #3
 80013f2:	d817      	bhi.n	8001424 <SwitchPCA9548A+0x54>
 80013f4:	e8df f000 	tbb	[pc, r0]
 80013f8:	120d0902 	.word	0x120d0902
	{
		case 0x70:
			HAL_GPIO_WritePin(GPIOB, RST1_Pin, GPIO_PIN_SET);
 80013fc:	2201      	movs	r2, #1
 80013fe:	2180      	movs	r1, #128	; 0x80
			break;
		case 0x71:
			HAL_GPIO_WritePin(GPIOB, RST2_Pin, GPIO_PIN_SET);
 8001400:	480a      	ldr	r0, [pc, #40]	; (800142c <SwitchPCA9548A+0x5c>)
			break;
		case 0x73:
			HAL_GPIO_WritePin(GPIOC, RST4_Pin, GPIO_PIN_SET);
			break;
	}
}
 8001402:	e8bd 4010 	ldmia.w	sp!, {r4, lr}
			HAL_GPIO_WritePin(GPIOC, RST4_Pin, GPIO_PIN_SET);
 8001406:	f000 bb47 	b.w	8001a98 <HAL_GPIO_WritePin>
			HAL_GPIO_WritePin(GPIOB, RST2_Pin, GPIO_PIN_SET);
 800140a:	2201      	movs	r2, #1
 800140c:	f44f 7180 	mov.w	r1, #256	; 0x100
 8001410:	e7f6      	b.n	8001400 <SwitchPCA9548A+0x30>
			HAL_GPIO_WritePin(GPIOC, RST3_Pin, GPIO_PIN_SET);
 8001412:	2201      	movs	r2, #1
 8001414:	f44f 5100 	mov.w	r1, #8192	; 0x2000
			HAL_GPIO_WritePin(GPIOC, RST4_Pin, GPIO_PIN_SET);
 8001418:	4803      	ldr	r0, [pc, #12]	; (8001428 <SwitchPCA9548A+0x58>)
 800141a:	e7f2      	b.n	8001402 <SwitchPCA9548A+0x32>
 800141c:	2201      	movs	r2, #1
 800141e:	f44f 4180 	mov.w	r1, #16384	; 0x4000
 8001422:	e7f9      	b.n	8001418 <SwitchPCA9548A+0x48>
}
 8001424:	bd10      	pop	{r4, pc}
 8001426:	bf00      	nop
 8001428:	40011000 	.word	0x40011000
 800142c:	40010c00 	.word	0x40010c00

08001430 <ProtocolAnalysis>:
uint8_t FunctionFlag = 0; //0 none
void ProtocolAnalysis(void)
{
	uint8_t i = 0,j = 0;
	uint8_t ADDR_TCA9548A_TEMP = 0;
	uint32_t press = 0,temp = 0;
 8001430:	2300      	movs	r3, #0
{
 8001432:	e92d 4ff0 	stmdb	sp!, {r4, r5, r6, r7, r8, r9, sl, fp, lr}
	uint8_t read_buff[3] = {0};
	if(RxFlag == 5)
 8001436:	4e7c      	ldr	r6, [pc, #496]	; (8001628 <ProtocolAnalysis+0x1f8>)
{
 8001438:	b085      	sub	sp, #20
	uint8_t read_buff[3] = {0};
 800143a:	4a7c      	ldr	r2, [pc, #496]	; (800162c <ProtocolAnalysis+0x1fc>)
	uint32_t press = 0,temp = 0;
 800143c:	e9cd 3302 	strd	r3, r3, [sp, #8]
	uint8_t read_buff[3] = {0};
 8001440:	f88d 3006 	strb.w	r3, [sp, #6]
	if(RxFlag == 5)
 8001444:	7833      	ldrb	r3, [r6, #0]
	uint8_t read_buff[3] = {0};
 8001446:	8812      	ldrh	r2, [r2, #0]
	if(RxFlag == 5)
 8001448:	2b05      	cmp	r3, #5
	uint8_t read_buff[3] = {0};
 800144a:	f8ad 2004 	strh.w	r2, [sp, #4]
	if(RxFlag == 5)
 800144e:	d133      	bne.n	80014b8 <ProtocolAnalysis+0x88>
	{
		switch(RxData[1])
 8001450:	4c77      	ldr	r4, [pc, #476]	; (8001630 <ProtocolAnalysis+0x200>)
 8001452:	7863      	ldrb	r3, [r4, #1]
 8001454:	3b01      	subs	r3, #1
 8001456:	2b05      	cmp	r3, #5
 8001458:	d82c      	bhi.n	80014b4 <ProtocolAnalysis+0x84>
 800145a:	e8df f003 	tbb	[pc, r3]
 800145e:	3003      	.short	0x3003
 8001460:	c4b98362 	.word	0xc4b98362
		{
			case 0x01:
				ADDR_TCA9548A = 0x70 + RxData[2];
 8001464:	78a0      	ldrb	r0, [r4, #2]
 8001466:	4b73      	ldr	r3, [pc, #460]	; (8001634 <ProtocolAnalysis+0x204>)
 8001468:	3070      	adds	r0, #112	; 0x70
 800146a:	b2c0      	uxtb	r0, r0
 800146c:	7018      	strb	r0, [r3, #0]
				SwitchPCA9548A(ADDR_TCA9548A);
 800146e:	f7ff ffaf 	bl	80013d0 <SwitchPCA9548A>
				chn = RxData[3];
 8001472:	78e0      	ldrb	r0, [r4, #3]
 8001474:	4b70      	ldr	r3, [pc, #448]	; (8001638 <ProtocolAnalysis+0x208>)
 8001476:	7018      	strb	r0, [r3, #0]
				if(func_tca9548a_select(chn) == 0)
 8001478:	f7ff fe24 	bl	80010c4 <func_tca9548a_select>
 800147c:	4604      	mov	r4, r0
 800147e:	b9b0      	cbnz	r0, 80014ae <ProtocolAnalysis+0x7e>
				{
					HAL_msDelay(2);
 8001480:	2002      	movs	r0, #2
 8001482:	f7ff fc6c 	bl	8000d5e <HAL_msDelay>
//					M5803_get_cal(&press,&temp);	//NSA2300
					M5803_get_cal_TE(&press,&temp);
 8001486:	a903      	add	r1, sp, #12
 8001488:	a802      	add	r0, sp, #8
 800148a:	f7ff fdfd 	bl	8001088 <M5803_get_cal_TE>
					memset(TxData,0,sizeof(TxData));
 800148e:	2280      	movs	r2, #128	; 0x80
 8001490:	4621      	mov	r1, r4
 8001492:	486a      	ldr	r0, [pc, #424]	; (800163c <ProtocolAnalysis+0x20c>)
 8001494:	f002 f90a 	bl	80036ac <memset>
					sprintf(TxData,"55<Press=%ld,Temper=%ld>33",press,temp);
 8001498:	e9dd 2302 	ldrd	r2, r3, [sp, #8]
 800149c:	4968      	ldr	r1, [pc, #416]	; (8001640 <ProtocolAnalysis+0x210>)
				sprintf(TxData,"55<PRODUCE_RANGE=%d,ADC_OVERSAMP=%#x>33",PRODUCE_RANGE,ADC_OVERSAMP);
				printf("%s\r\n",TxData);
				break;
			case 0x06:
				memset(TxData,0,sizeof(TxData));
				sprintf(TxData,"55<ADDR_TCA9548A=%#x,Channel=%#x>33",ADDR_TCA9548A,chn);
 800149e:	4867      	ldr	r0, [pc, #412]	; (800163c <ProtocolAnalysis+0x20c>)
 80014a0:	f002 f80c 	bl	80034bc <siprintf>
				printf("%s\r\n",TxData);
 80014a4:	4965      	ldr	r1, [pc, #404]	; (800163c <ProtocolAnalysis+0x20c>)
 80014a6:	4867      	ldr	r0, [pc, #412]	; (8001644 <ProtocolAnalysis+0x214>)
 80014a8:	f001 ff9a 	bl	80033e0 <iprintf>
				break;
 80014ac:	e002      	b.n	80014b4 <ProtocolAnalysis+0x84>
					printf("55<Device Loss>33\r\n");
 80014ae:	4866      	ldr	r0, [pc, #408]	; (8001648 <ProtocolAnalysis+0x218>)
 80014b0:	f001 fffc 	bl	80034ac <puts>
		}
		RxFlag = 0;
 80014b4:	2300      	movs	r3, #0
 80014b6:	7033      	strb	r3, [r6, #0]
	}
}
 80014b8:	b005      	add	sp, #20
 80014ba:	e8bd 8ff0 	ldmia.w	sp!, {r4, r5, r6, r7, r8, r9, sl, fp, pc}
				for(i = 0x70;i <= 0x77;i++)//eight IIC Virtual Devices
 80014be:	2470      	movs	r4, #112	; 0x70
				ADDR_TCA9548A_TEMP = ADDR_TCA9548A;
 80014c0:	4f5c      	ldr	r7, [pc, #368]	; (8001634 <ProtocolAnalysis+0x204>)
								memset(TxData,0,sizeof(TxData));
 80014c2:	f8df 8178 	ldr.w	r8, [pc, #376]	; 800163c <ProtocolAnalysis+0x20c>
				ADDR_TCA9548A_TEMP = ADDR_TCA9548A;
 80014c6:	f897 9000 	ldrb.w	r9, [r7]
								sprintf(TxData,"55<ADDR_TCA9548A=%#x,Channel=%d>33",ADDR_TCA9548A,j);
 80014ca:	f8df a180 	ldr.w	sl, [pc, #384]	; 800164c <ProtocolAnalysis+0x21c>
								printf("%s\r\n",TxData);
 80014ce:	f8df b174 	ldr.w	fp, [pc, #372]	; 8001644 <ProtocolAnalysis+0x214>
					SwitchPCA9548A(ADDR_TCA9548A);
 80014d2:	4620      	mov	r0, r4
					ADDR_TCA9548A = i;
 80014d4:	703c      	strb	r4, [r7, #0]
					SwitchPCA9548A(ADDR_TCA9548A);
 80014d6:	2500      	movs	r5, #0
 80014d8:	f7ff ff7a 	bl	80013d0 <SwitchPCA9548A>
						if(func_tca9548a_select(j) == 0)
 80014dc:	b2e8      	uxtb	r0, r5
 80014de:	f7ff fdf1 	bl	80010c4 <func_tca9548a_select>
 80014e2:	b9b8      	cbnz	r0, 8001514 <ProtocolAnalysis+0xe4>
							if(IIC_ReadNumByte_TE(Device_Address,read_buff,1) == 0)
 80014e4:	a901      	add	r1, sp, #4
 80014e6:	2201      	movs	r2, #1
 80014e8:	2050      	movs	r0, #80	; 0x50
 80014ea:	f7ff fda9 	bl	8001040 <IIC_ReadNumByte_TE>
 80014ee:	4601      	mov	r1, r0
 80014f0:	b968      	cbnz	r0, 800150e <ProtocolAnalysis+0xde>
								memset(TxData,0,sizeof(TxData));
 80014f2:	2280      	movs	r2, #128	; 0x80
 80014f4:	4640      	mov	r0, r8
 80014f6:	f002 f8d9 	bl	80036ac <memset>
								sprintf(TxData,"55<ADDR_TCA9548A=%#x,Channel=%d>33",ADDR_TCA9548A,j);
 80014fa:	4651      	mov	r1, sl
 80014fc:	462b      	mov	r3, r5
 80014fe:	4640      	mov	r0, r8
 8001500:	783a      	ldrb	r2, [r7, #0]
 8001502:	f001 ffdb 	bl	80034bc <siprintf>
								printf("%s\r\n",TxData);
 8001506:	4641      	mov	r1, r8
 8001508:	4658      	mov	r0, fp
 800150a:	f001 ff69 	bl	80033e0 <iprintf>
					for(j = 0;j < 8;j++)//eight channel
 800150e:	3501      	adds	r5, #1
 8001510:	2d08      	cmp	r5, #8
 8001512:	d1e3      	bne.n	80014dc <ProtocolAnalysis+0xac>
				for(i = 0x70;i <= 0x77;i++)//eight IIC Virtual Devices
 8001514:	3401      	adds	r4, #1
 8001516:	b2e4      	uxtb	r4, r4
 8001518:	2c78      	cmp	r4, #120	; 0x78
 800151a:	d1da      	bne.n	80014d2 <ProtocolAnalysis+0xa2>
				ADDR_TCA9548A = ADDR_TCA9548A_TEMP;
 800151c:	f887 9000 	strb.w	r9, [r7]
				break;
 8001520:	e7c8      	b.n	80014b4 <ProtocolAnalysis+0x84>
				if(IIC_ReadNumByte_TE(Device_Address,read_buff,1) == 0)//
 8001522:	2201      	movs	r2, #1
 8001524:	2050      	movs	r0, #80	; 0x50
 8001526:	a901      	add	r1, sp, #4
 8001528:	f7ff fd8a 	bl	8001040 <IIC_ReadNumByte_TE>
 800152c:	4604      	mov	r4, r0
 800152e:	b9a8      	cbnz	r0, 800155c <ProtocolAnalysis+0x12c>
					HAL_msDelay(2);
 8001530:	2002      	movs	r0, #2
 8001532:	f7ff fc14 	bl	8000d5e <HAL_msDelay>
					M5803_get_cal_TE(&press,&temp);
 8001536:	a903      	add	r1, sp, #12
 8001538:	a802      	add	r0, sp, #8
 800153a:	f7ff fda5 	bl	8001088 <M5803_get_cal_TE>
					memset(TxData,0,sizeof(TxData));
 800153e:	2280      	movs	r2, #128	; 0x80
 8001540:	4621      	mov	r1, r4
 8001542:	483e      	ldr	r0, [pc, #248]	; (800163c <ProtocolAnalysis+0x20c>)
 8001544:	f002 f8b2 	bl	80036ac <memset>
					sprintf(TxData,"55<Press=%ld,Temper=%ld>33",press,temp);
 8001548:	e9dd 2302 	ldrd	r2, r3, [sp, #8]
 800154c:	493c      	ldr	r1, [pc, #240]	; (8001640 <ProtocolAnalysis+0x210>)
 800154e:	483b      	ldr	r0, [pc, #236]	; (800163c <ProtocolAnalysis+0x20c>)
 8001550:	f001 ffb4 	bl	80034bc <siprintf>
					printf("%s\r\n",TxData);
 8001554:	4939      	ldr	r1, [pc, #228]	; (800163c <ProtocolAnalysis+0x20c>)
 8001556:	483b      	ldr	r0, [pc, #236]	; (8001644 <ProtocolAnalysis+0x214>)
 8001558:	f001 ff42 	bl	80033e0 <iprintf>
				ADDR_TCA9548A = ADDR_TCA9548A_TEMP;
 800155c:	2200      	movs	r2, #0
 800155e:	4b35      	ldr	r3, [pc, #212]	; (8001634 <ProtocolAnalysis+0x204>)
 8001560:	701a      	strb	r2, [r3, #0]
				break;
 8001562:	e7a7      	b.n	80014b4 <ProtocolAnalysis+0x84>
				PRODUCE_RANGE = (uint16_t)(RxData[2] << 8) | (uint16_t)RxData[3];
 8001564:	8862      	ldrh	r2, [r4, #2]
 8001566:	493a      	ldr	r1, [pc, #232]	; (8001650 <ProtocolAnalysis+0x220>)
 8001568:	ba52      	rev16	r2, r2
 800156a:	b293      	uxth	r3, r2
 800156c:	800a      	strh	r2, [r1, #0]
				ADC_OVERSAMP = RxData[4];
 800156e:	7921      	ldrb	r1, [r4, #4]
 8001570:	4a38      	ldr	r2, [pc, #224]	; (8001654 <ProtocolAnalysis+0x224>)
				if(PRODUCE_RANGE == PRODUCE_RANGE_2)
 8001572:	2b02      	cmp	r3, #2
				ADC_OVERSAMP = RxData[4];
 8001574:	7011      	strb	r1, [r2, #0]
				if(PRODUCE_RANGE == PRODUCE_RANGE_2)
 8001576:	d10c      	bne.n	8001592 <ProtocolAnalysis+0x162>
					CAL_L_XKpa = CAL_L_XKpa_2;
 8001578:	a121      	add	r1, pc, #132	; (adr r1, 8001600 <ProtocolAnalysis+0x1d0>)
 800157a:	e9d1 0100 	ldrd	r0, r1, [r1]
 800157e:	4b36      	ldr	r3, [pc, #216]	; (8001658 <ProtocolAnalysis+0x228>)
 8001580:	e9c3 0100 	strd	r0, r1, [r3]
					CAL_H_XKpa = CAL_H_XKpa_2;
 8001584:	a120      	add	r1, pc, #128	; (adr r1, 8001608 <ProtocolAnalysis+0x1d8>)
 8001586:	e9d1 0100 	ldrd	r0, r1, [r1]
 800158a:	4b34      	ldr	r3, [pc, #208]	; (800165c <ProtocolAnalysis+0x22c>)
					CAL_H_XKpa = CAL_H_XKpa_400;
 800158c:	e9c3 0100 	strd	r0, r1, [r3]
 8001590:	e790      	b.n	80014b4 <ProtocolAnalysis+0x84>
				else if(PRODUCE_RANGE == PRODUCE_RANGE_10)
 8001592:	2b0a      	cmp	r3, #10
 8001594:	d10a      	bne.n	80015ac <ProtocolAnalysis+0x17c>
					CAL_L_XKpa = CAL_L_XKpa_10;
 8001596:	a11e      	add	r1, pc, #120	; (adr r1, 8001610 <ProtocolAnalysis+0x1e0>)
 8001598:	e9d1 0100 	ldrd	r0, r1, [r1]
 800159c:	4b2e      	ldr	r3, [pc, #184]	; (8001658 <ProtocolAnalysis+0x228>)
 800159e:	e9c3 0100 	strd	r0, r1, [r3]
					CAL_H_XKpa = CAL_H_XKpa_10;
 80015a2:	a11d      	add	r1, pc, #116	; (adr r1, 8001618 <ProtocolAnalysis+0x1e8>)
 80015a4:	e9d1 0100 	ldrd	r0, r1, [r1]
 80015a8:	4b2c      	ldr	r3, [pc, #176]	; (800165c <ProtocolAnalysis+0x22c>)
 80015aa:	e7ef      	b.n	800158c <ProtocolAnalysis+0x15c>
				else if(PRODUCE_RANGE == PRODUCE_RANGE_400)
 80015ac:	f5b3 7fc8 	cmp.w	r3, #400	; 0x190
 80015b0:	d109      	bne.n	80015c6 <ProtocolAnalysis+0x196>
					CAL_L_XKpa = CAL_L_XKpa_400;
 80015b2:	2000      	movs	r0, #0
 80015b4:	4b28      	ldr	r3, [pc, #160]	; (8001658 <ProtocolAnalysis+0x228>)
 80015b6:	492a      	ldr	r1, [pc, #168]	; (8001660 <ProtocolAnalysis+0x230>)
 80015b8:	e9c3 0100 	strd	r0, r1, [r3]
					CAL_H_XKpa = CAL_H_XKpa_400;
 80015bc:	a118      	add	r1, pc, #96	; (adr r1, 8001620 <ProtocolAnalysis+0x1f0>)
 80015be:	e9d1 0100 	ldrd	r0, r1, [r1]
 80015c2:	4b26      	ldr	r3, [pc, #152]	; (800165c <ProtocolAnalysis+0x22c>)
 80015c4:	e7e2      	b.n	800158c <ProtocolAnalysis+0x15c>
				else if(PRODUCE_RANGE == PRODUCE_RANGE_700)
 80015c6:	f5b3 7f2f 	cmp.w	r3, #700	; 0x2bc
 80015ca:	f47f af73 	bne.w	80014b4 <ProtocolAnalysis+0x84>
 80015ce:	e7f0      	b.n	80015b2 <ProtocolAnalysis+0x182>
				memset(TxData,0,sizeof(TxData));
 80015d0:	2280      	movs	r2, #128	; 0x80
 80015d2:	2100      	movs	r1, #0
 80015d4:	4819      	ldr	r0, [pc, #100]	; (800163c <ProtocolAnalysis+0x20c>)
 80015d6:	f002 f869 	bl	80036ac <memset>
				sprintf(TxData,"55<PRODUCE_RANGE=%d,ADC_OVERSAMP=%#x>33",PRODUCE_RANGE,ADC_OVERSAMP);
 80015da:	4b1e      	ldr	r3, [pc, #120]	; (8001654 <ProtocolAnalysis+0x224>)
 80015dc:	4a1c      	ldr	r2, [pc, #112]	; (8001650 <ProtocolAnalysis+0x220>)
 80015de:	781b      	ldrb	r3, [r3, #0]
 80015e0:	8812      	ldrh	r2, [r2, #0]
 80015e2:	4920      	ldr	r1, [pc, #128]	; (8001664 <ProtocolAnalysis+0x234>)
 80015e4:	e75b      	b.n	800149e <ProtocolAnalysis+0x6e>
				memset(TxData,0,sizeof(TxData));
 80015e6:	2280      	movs	r2, #128	; 0x80
 80015e8:	2100      	movs	r1, #0
 80015ea:	4814      	ldr	r0, [pc, #80]	; (800163c <ProtocolAnalysis+0x20c>)
 80015ec:	f002 f85e 	bl	80036ac <memset>
				sprintf(TxData,"55<ADDR_TCA9548A=%#x,Channel=%#x>33",ADDR_TCA9548A,chn);
 80015f0:	4b11      	ldr	r3, [pc, #68]	; (8001638 <ProtocolAnalysis+0x208>)
 80015f2:	4a10      	ldr	r2, [pc, #64]	; (8001634 <ProtocolAnalysis+0x204>)
 80015f4:	781b      	ldrb	r3, [r3, #0]
 80015f6:	7812      	ldrb	r2, [r2, #0]
 80015f8:	491b      	ldr	r1, [pc, #108]	; (8001668 <ProtocolAnalysis+0x238>)
 80015fa:	e750      	b.n	800149e <ProtocolAnalysis+0x6e>
 80015fc:	f3af 8000 	nop.w
 8001600:	b295e9e2 	.word	0xb295e9e2
 8001604:	bfbc710c 	.word	0xbfbc710c
 8001608:	6594af4f 	.word	0x6594af4f
 800160c:	4000e388 	.word	0x4000e388
 8001610:	a6b50b0f 	.word	0xa6b50b0f
 8001614:	bfe1c779 	.word	0xbfe1c779
 8001618:	9a6b50b1 	.word	0x9a6b50b1
 800161c:	40251c77 	.word	0x40251c77
 8001620:	00000000 	.word	0x00000000
 8001624:	407c2000 	.word	0x407c2000
 8001628:	20000225 	.word	0x20000225
 800162c:	08006de8 	.word	0x08006de8
 8001630:	20000215 	.word	0x20000215
 8001634:	20000001 	.word	0x20000001
 8001638:	2000020c 	.word	0x2000020c
 800163c:	20000228 	.word	0x20000228
 8001640:	08006e11 	.word	0x08006e11
 8001644:	08006e2c 	.word	0x08006e2c
 8001648:	08006e31 	.word	0x08006e31
 800164c:	08006e44 	.word	0x08006e44
 8001650:	20000018 	.word	0x20000018
 8001654:	20000000 	.word	0x20000000
 8001658:	20000010 	.word	0x20000010
 800165c:	20000008 	.word	0x20000008
 8001660:	c0490000 	.word	0xc0490000
 8001664:	08006e67 	.word	0x08006e67
 8001668:	08006e8f 	.word	0x08006e8f

0800166c <Reset_Handler>:
  .weak Reset_Handler
  .type Reset_Handler, %function
Reset_Handler:

/* Call the clock system initialization function.*/
    bl  SystemInit
 800166c:	f7ff fdd8 	bl	8001220 <SystemInit>

/* Copy the data segment initializers from flash to SRAM */
  ldr r0, =_sdata
 8001670:	480b      	ldr	r0, [pc, #44]	; (80016a0 <LoopFillZerobss+0xe>)
  ldr r1, =_edata
 8001672:	490c      	ldr	r1, [pc, #48]	; (80016a4 <LoopFillZerobss+0x12>)
  ldr r2, =_sidata
 8001674:	4a0c      	ldr	r2, [pc, #48]	; (80016a8 <LoopFillZerobss+0x16>)
  movs r3, #0
 8001676:	2300      	movs	r3, #0
  b LoopCopyDataInit
 8001678:	e002      	b.n	8001680 <LoopCopyDataInit>

0800167a <CopyDataInit>:

CopyDataInit:
  ldr r4, [r2, r3]
 800167a:	58d4      	ldr	r4, [r2, r3]
  str r4, [r0, r3]
 800167c:	50c4      	str	r4, [r0, r3]
  adds r3, r3, #4
 800167e:	3304      	adds	r3, #4

08001680 <LoopCopyDataInit>:

LoopCopyDataInit:
  adds r4, r0, r3
 8001680:	18c4      	adds	r4, r0, r3
  cmp r4, r1
 8001682:	428c      	cmp	r4, r1
  bcc CopyDataInit
 8001684:	d3f9      	bcc.n	800167a <CopyDataInit>
  
/* Zero fill the bss segment. */
  ldr r2, =_sbss
 8001686:	4a09      	ldr	r2, [pc, #36]	; (80016ac <LoopFillZerobss+0x1a>)
  ldr r4, =_ebss
 8001688:	4c09      	ldr	r4, [pc, #36]	; (80016b0 <LoopFillZerobss+0x1e>)
  movs r3, #0
 800168a:	2300      	movs	r3, #0
  b LoopFillZerobss
 800168c:	e001      	b.n	8001692 <LoopFillZerobss>

0800168e <FillZerobss>:

FillZerobss:
  str  r3, [r2]
 800168e:	6013      	str	r3, [r2, #0]
  adds r2, r2, #4
 8001690:	3204      	adds	r2, #4

08001692 <LoopFillZerobss>:

LoopFillZerobss:
  cmp r2, r4
 8001692:	42a2      	cmp	r2, r4
  bcc FillZerobss
 8001694:	d3fb      	bcc.n	800168e <FillZerobss>

/* Call static constructors */
    bl __libc_init_array
 8001696:	f002 f861 	bl	800375c <__libc_init_array>
/* Call the application's entry point.*/
  bl main
 800169a:	f7ff fba3 	bl	8000de4 <main>
  bx lr
 800169e:	4770      	bx	lr
  ldr r0, =_sdata
 80016a0:	20000000 	.word	0x20000000
  ldr r1, =_edata
 80016a4:	200001f0 	.word	0x200001f0
  ldr r2, =_sidata
 80016a8:	080072f8 	.word	0x080072f8
  ldr r2, =_sbss
 80016ac:	200001f0 	.word	0x200001f0
  ldr r4, =_ebss
 80016b0:	20000440 	.word	0x20000440

080016b4 <ADC1_2_IRQHandler>:
 * @retval : None
*/
    .section .text.Default_Handler,"ax",%progbits
Default_Handler:
Infinite_Loop:
  b Infinite_Loop
 80016b4:	e7fe      	b.n	80016b4 <ADC1_2_IRQHandler>
	...

080016b8 <HAL_InitTick>:
  *       implementation  in user file.
  * @param TickPriority Tick interrupt priority.
  * @retval HAL status
  */
__weak HAL_StatusTypeDef HAL_InitTick(uint32_t TickPriority)
{
 80016b8:	b538      	push	{r3, r4, r5, lr}
  /* Configure the SysTick to have interrupt in 1ms time basis*/
  if (HAL_SYSTICK_Config(SystemCoreClock / (1000U / uwTickFreq)) > 0U)
 80016ba:	4b0e      	ldr	r3, [pc, #56]	; (80016f4 <HAL_InitTick+0x3c>)
{
 80016bc:	4605      	mov	r5, r0
  if (HAL_SYSTICK_Config(SystemCoreClock / (1000U / uwTickFreq)) > 0U)
 80016be:	781a      	ldrb	r2, [r3, #0]
 80016c0:	f44f 737a 	mov.w	r3, #1000	; 0x3e8
 80016c4:	fbb3 f3f2 	udiv	r3, r3, r2
 80016c8:	4a0b      	ldr	r2, [pc, #44]	; (80016f8 <HAL_InitTick+0x40>)
 80016ca:	6810      	ldr	r0, [r2, #0]
 80016cc:	fbb0 f0f3 	udiv	r0, r0, r3
 80016d0:	f000 f88a 	bl	80017e8 <HAL_SYSTICK_Config>
 80016d4:	4604      	mov	r4, r0
 80016d6:	b958      	cbnz	r0, 80016f0 <HAL_InitTick+0x38>
  {
    return HAL_ERROR;
  }

  /* Configure the SysTick IRQ priority */
  if (TickPriority < (1UL << __NVIC_PRIO_BITS))
 80016d8:	2d0f      	cmp	r5, #15
 80016da:	d809      	bhi.n	80016f0 <HAL_InitTick+0x38>
  {
    HAL_NVIC_SetPriority(SysTick_IRQn, TickPriority, 0U);
 80016dc:	4602      	mov	r2, r0
 80016de:	4629      	mov	r1, r5
 80016e0:	f04f 30ff 	mov.w	r0, #4294967295
 80016e4:	f000 f842 	bl	800176c <HAL_NVIC_SetPriority>
    uwTickPrio = TickPriority;
 80016e8:	4620      	mov	r0, r4
 80016ea:	4b04      	ldr	r3, [pc, #16]	; (80016fc <HAL_InitTick+0x44>)
 80016ec:	601d      	str	r5, [r3, #0]
    return HAL_ERROR;
  }

  /* Return function status */
  return HAL_OK;
}
 80016ee:	bd38      	pop	{r3, r4, r5, pc}
    return HAL_ERROR;
 80016f0:	2001      	movs	r0, #1
 80016f2:	e7fc      	b.n	80016ee <HAL_InitTick+0x36>
 80016f4:	20000020 	.word	0x20000020
 80016f8:	2000001c 	.word	0x2000001c
 80016fc:	20000024 	.word	0x20000024

08001700 <HAL_Init>:
  __HAL_FLASH_PREFETCH_BUFFER_ENABLE();
 8001700:	4a07      	ldr	r2, [pc, #28]	; (8001720 <HAL_Init+0x20>)
{
 8001702:	b508      	push	{r3, lr}
  __HAL_FLASH_PREFETCH_BUFFER_ENABLE();
 8001704:	6813      	ldr	r3, [r2, #0]
  HAL_NVIC_SetPriorityGrouping(NVIC_PRIORITYGROUP_4);
 8001706:	2003      	movs	r0, #3
  __HAL_FLASH_PREFETCH_BUFFER_ENABLE();
 8001708:	f043 0310 	orr.w	r3, r3, #16
 800170c:	6013      	str	r3, [r2, #0]
  HAL_NVIC_SetPriorityGrouping(NVIC_PRIORITYGROUP_4);
 800170e:	f000 f81b 	bl	8001748 <HAL_NVIC_SetPriorityGrouping>
  HAL_InitTick(TICK_INT_PRIORITY);
 8001712:	200f      	movs	r0, #15
 8001714:	f7ff ffd0 	bl	80016b8 <HAL_InitTick>
  HAL_MspInit();
 8001718:	f7ff fcf8 	bl	800110c <HAL_MspInit>
}
 800171c:	2000      	movs	r0, #0
 800171e:	bd08      	pop	{r3, pc}
 8001720:	40022000 	.word	0x40022000

08001724 <HAL_IncTick>:
  *      implementations in user file.
  * @retval None
  */
__weak void HAL_IncTick(void)
{
  uwTick += uwTickFreq;
 8001724:	4a03      	ldr	r2, [pc, #12]	; (8001734 <HAL_IncTick+0x10>)
 8001726:	4b04      	ldr	r3, [pc, #16]	; (8001738 <HAL_IncTick+0x14>)
 8001728:	6811      	ldr	r1, [r2, #0]
 800172a:	781b      	ldrb	r3, [r3, #0]
 800172c:	440b      	add	r3, r1
 800172e:	6013      	str	r3, [r2, #0]
}
 8001730:	4770      	bx	lr
 8001732:	bf00      	nop
 8001734:	200002f0 	.word	0x200002f0
 8001738:	20000020 	.word	0x20000020

0800173c <HAL_GetTick>:
  *       implementations in user file.
  * @retval tick value
  */
__weak uint32_t HAL_GetTick(void)
{
  return uwTick;
 800173c:	4b01      	ldr	r3, [pc, #4]	; (8001744 <HAL_GetTick+0x8>)
 800173e:	6818      	ldr	r0, [r3, #0]
}
 8001740:	4770      	bx	lr
 8001742:	bf00      	nop
 8001744:	200002f0 	.word	0x200002f0

08001748 <HAL_NVIC_SetPriorityGrouping>:
__STATIC_INLINE void __NVIC_SetPriorityGrouping(uint32_t PriorityGroup)
{
  uint32_t reg_value;
  uint32_t PriorityGroupTmp = (PriorityGroup & (uint32_t)0x07UL);             /* only values 0..7 are used          */

  reg_value  =  SCB->AIRCR;                                                   /* read old register configuration    */
 8001748:	4907      	ldr	r1, [pc, #28]	; (8001768 <HAL_NVIC_SetPriorityGrouping+0x20>)
  reg_value &= ~((uint32_t)(SCB_AIRCR_VECTKEY_Msk | SCB_AIRCR_PRIGROUP_Msk)); /* clear bits to change               */
  reg_value  =  (reg_value                                   |
                ((uint32_t)0x5FAUL << SCB_AIRCR_VECTKEY_Pos) |
                (PriorityGroupTmp << SCB_AIRCR_PRIGROUP_Pos) );               /* Insert write key and priority group */
 800174a:	0203      	lsls	r3, r0, #8
  reg_value  =  SCB->AIRCR;                                                   /* read old register configuration    */
 800174c:	68ca      	ldr	r2, [r1, #12]
                (PriorityGroupTmp << SCB_AIRCR_PRIGROUP_Pos) );               /* Insert write key and priority group */
 800174e:	f403 63e0 	and.w	r3, r3, #1792	; 0x700
  reg_value &= ~((uint32_t)(SCB_AIRCR_VECTKEY_Msk | SCB_AIRCR_PRIGROUP_Msk)); /* clear bits to change               */
 8001752:	f422 62e0 	bic.w	r2, r2, #1792	; 0x700
 8001756:	0412      	lsls	r2, r2, #16
 8001758:	0c12      	lsrs	r2, r2, #16
                ((uint32_t)0x5FAUL << SCB_AIRCR_VECTKEY_Pos) |
 800175a:	4313      	orrs	r3, r2
  reg_value  =  (reg_value                                   |
 800175c:	f043 63bf 	orr.w	r3, r3, #100139008	; 0x5f80000
 8001760:	f443 3300 	orr.w	r3, r3, #131072	; 0x20000
  SCB->AIRCR =  reg_value;
 8001764:	60cb      	str	r3, [r1, #12]
  /* Check the parameters */
  assert_param(IS_NVIC_PRIORITY_GROUP(PriorityGroup));
  
  /* Set the PRIGROUP[10:8] bits according to the PriorityGroup parameter value */
  NVIC_SetPriorityGrouping(PriorityGroup);
}
 8001766:	4770      	bx	lr
 8001768:	e000ed00 	.word	0xe000ed00

0800176c <HAL_NVIC_SetPriority>:
  \details Reads the priority grouping field from the NVIC Interrupt Controller.
  \return                Priority grouping field (SCB->AIRCR [10:8] PRIGROUP field).
 */
__STATIC_INLINE uint32_t __NVIC_GetPriorityGrouping(void)
{
  return ((uint32_t)((SCB->AIRCR & SCB_AIRCR_PRIGROUP_Msk) >> SCB_AIRCR_PRIGROUP_Pos));
 800176c:	4b15      	ldr	r3, [pc, #84]	; (80017c4 <HAL_NVIC_SetPriority+0x58>)
  *         This parameter can be a value between 0 and 15
  *         A lower priority value indicates a higher priority.          
  * @retval None
  */
void HAL_NVIC_SetPriority(IRQn_Type IRQn, uint32_t PreemptPriority, uint32_t SubPriority)
{ 
 800176e:	b530      	push	{r4, r5, lr}
 8001770:	68dc      	ldr	r4, [r3, #12]
 8001772:	f3c4 2402 	ubfx	r4, r4, #8, #3
{
  uint32_t PriorityGroupTmp = (PriorityGroup & (uint32_t)0x07UL);   /* only values 0..7 are used          */
  uint32_t PreemptPriorityBits;
  uint32_t SubPriorityBits;

  PreemptPriorityBits = ((7UL - PriorityGroupTmp) > (uint32_t)(__NVIC_PRIO_BITS)) ? (uint32_t)(__NVIC_PRIO_BITS) : (uint32_t)(7UL - PriorityGroupTmp);
 8001776:	f1c4 0307 	rsb	r3, r4, #7
  SubPriorityBits     = ((PriorityGroupTmp + (uint32_t)(__NVIC_PRIO_BITS)) < (uint32_t)7UL) ? (uint32_t)0UL : (uint32_t)((PriorityGroupTmp - 7UL) + (uint32_t)(__NVIC_PRIO_BITS));
 800177a:	1d25      	adds	r5, r4, #4
  PreemptPriorityBits = ((7UL - PriorityGroupTmp) > (uint32_t)(__NVIC_PRIO_BITS)) ? (uint32_t)(__NVIC_PRIO_BITS) : (uint32_t)(7UL - PriorityGroupTmp);
 800177c:	2b04      	cmp	r3, #4
 800177e:	bf28      	it	cs
 8001780:	2304      	movcs	r3, #4
  SubPriorityBits     = ((PriorityGroupTmp + (uint32_t)(__NVIC_PRIO_BITS)) < (uint32_t)7UL) ? (uint32_t)0UL : (uint32_t)((PriorityGroupTmp - 7UL) + (uint32_t)(__NVIC_PRIO_BITS));
 8001782:	2d06      	cmp	r5, #6

  return (
           ((PreemptPriority & (uint32_t)((1UL << (PreemptPriorityBits)) - 1UL)) << SubPriorityBits) |
 8001784:	f04f 35ff 	mov.w	r5, #4294967295
  SubPriorityBits     = ((PriorityGroupTmp + (uint32_t)(__NVIC_PRIO_BITS)) < (uint32_t)7UL) ? (uint32_t)0UL : (uint32_t)((PriorityGroupTmp - 7UL) + (uint32_t)(__NVIC_PRIO_BITS));
 8001788:	bf94      	ite	ls
 800178a:	2400      	movls	r4, #0
 800178c:	3c03      	subhi	r4, #3
           ((PreemptPriority & (uint32_t)((1UL << (PreemptPriorityBits)) - 1UL)) << SubPriorityBits) |
 800178e:	fa05 f303 	lsl.w	r3, r5, r3
 8001792:	ea21 0303 	bic.w	r3, r1, r3
           ((SubPriority     & (uint32_t)((1UL << (SubPriorityBits    )) - 1UL)))
 8001796:	40a5      	lsls	r5, r4
 8001798:	ea22 0205 	bic.w	r2, r2, r5
           ((PreemptPriority & (uint32_t)((1UL << (PreemptPriorityBits)) - 1UL)) << SubPriorityBits) |
 800179c:	40a3      	lsls	r3, r4
  if ((int32_t)(IRQn) >= 0)
 800179e:	2800      	cmp	r0, #0
           ((PreemptPriority & (uint32_t)((1UL << (PreemptPriorityBits)) - 1UL)) << SubPriorityBits) |
 80017a0:	ea43 0302 	orr.w	r3, r3, r2
    NVIC->IP[((uint32_t)IRQn)]               = (uint8_t)((priority << (8U - __NVIC_PRIO_BITS)) & (uint32_t)0xFFUL);
 80017a4:	bfac      	ite	ge
 80017a6:	f100 4060 	addge.w	r0, r0, #3758096384	; 0xe0000000
    SCB->SHP[(((uint32_t)IRQn) & 0xFUL)-4UL] = (uint8_t)((priority << (8U - __NVIC_PRIO_BITS)) & (uint32_t)0xFFUL);
 80017aa:	4a07      	ldrlt	r2, [pc, #28]	; (80017c8 <HAL_NVIC_SetPriority+0x5c>)
    NVIC->IP[((uint32_t)IRQn)]               = (uint8_t)((priority << (8U - __NVIC_PRIO_BITS)) & (uint32_t)0xFFUL);
 80017ac:	ea4f 1303 	mov.w	r3, r3, lsl #4
 80017b0:	b2db      	uxtb	r3, r3
 80017b2:	bfab      	itete	ge
 80017b4:	f500 4061 	addge.w	r0, r0, #57600	; 0xe100
    SCB->SHP[(((uint32_t)IRQn) & 0xFUL)-4UL] = (uint8_t)((priority << (8U - __NVIC_PRIO_BITS)) & (uint32_t)0xFFUL);
 80017b8:	f000 000f 	andlt.w	r0, r0, #15
    NVIC->IP[((uint32_t)IRQn)]               = (uint8_t)((priority << (8U - __NVIC_PRIO_BITS)) & (uint32_t)0xFFUL);
 80017bc:	f880 3300 	strbge.w	r3, [r0, #768]	; 0x300
    SCB->SHP[(((uint32_t)IRQn) & 0xFUL)-4UL] = (uint8_t)((priority << (8U - __NVIC_PRIO_BITS)) & (uint32_t)0xFFUL);
 80017c0:	5413      	strblt	r3, [r2, r0]
  assert_param(IS_NVIC_PREEMPTION_PRIORITY(PreemptPriority));
  
  prioritygroup = NVIC_GetPriorityGrouping();
  
  NVIC_SetPriority(IRQn, NVIC_EncodePriority(prioritygroup, PreemptPriority, SubPriority));
}
 80017c2:	bd30      	pop	{r4, r5, pc}
 80017c4:	e000ed00 	.word	0xe000ed00
 80017c8:	e000ed14 	.word	0xe000ed14

080017cc <HAL_NVIC_EnableIRQ>:
  if ((int32_t)(IRQn) >= 0)
 80017cc:	2800      	cmp	r0, #0
 80017ce:	db07      	blt.n	80017e0 <HAL_NVIC_EnableIRQ+0x14>
    NVIC->ISER[(((uint32_t)IRQn) >> 5UL)] = (uint32_t)(1UL << (((uint32_t)IRQn) & 0x1FUL));
 80017d0:	2301      	movs	r3, #1
 80017d2:	0941      	lsrs	r1, r0, #5
 80017d4:	4a03      	ldr	r2, [pc, #12]	; (80017e4 <HAL_NVIC_EnableIRQ+0x18>)
 80017d6:	f000 001f 	and.w	r0, r0, #31
 80017da:	4083      	lsls	r3, r0
 80017dc:	f842 3021 	str.w	r3, [r2, r1, lsl #2]
  /* Check the parameters */
  assert_param(IS_NVIC_DEVICE_IRQ(IRQn));

  /* Enable interrupt */
  NVIC_EnableIRQ(IRQn);
}
 80017e0:	4770      	bx	lr
 80017e2:	bf00      	nop
 80017e4:	e000e100 	.word	0xe000e100

080017e8 <HAL_SYSTICK_Config>:
           function <b>SysTick_Config</b> is not included. In this case, the file <b><i>device</i>.h</b>
           must contain a vendor-specific implementation of this function.
 */
__STATIC_INLINE uint32_t SysTick_Config(uint32_t ticks)
{
  if ((ticks - 1UL) > SysTick_LOAD_RELOAD_Msk)
 80017e8:	3801      	subs	r0, #1
 80017ea:	f1b0 7f80 	cmp.w	r0, #16777216	; 0x1000000
 80017ee:	d20b      	bcs.n	8001808 <HAL_SYSTICK_Config+0x20>
  {
    return (1UL);                                                   /* Reload value impossible */
  }

  SysTick->LOAD  = (uint32_t)(ticks - 1UL);                         /* set reload register */
 80017f0:	f04f 23e0 	mov.w	r3, #3758153728	; 0xe000e000
    SCB->SHP[(((uint32_t)IRQn) & 0xFUL)-4UL] = (uint8_t)((priority << (8U - __NVIC_PRIO_BITS)) & (uint32_t)0xFFUL);
 80017f4:	21f0      	movs	r1, #240	; 0xf0
 80017f6:	4a05      	ldr	r2, [pc, #20]	; (800180c <HAL_SYSTICK_Config+0x24>)
  SysTick->LOAD  = (uint32_t)(ticks - 1UL);                         /* set reload register */
 80017f8:	6158      	str	r0, [r3, #20]
    SCB->SHP[(((uint32_t)IRQn) & 0xFUL)-4UL] = (uint8_t)((priority << (8U - __NVIC_PRIO_BITS)) & (uint32_t)0xFFUL);
 80017fa:	f882 1023 	strb.w	r1, [r2, #35]	; 0x23
  NVIC_SetPriority (SysTick_IRQn, (1UL << __NVIC_PRIO_BITS) - 1UL); /* set Priority for Systick Interrupt */
  SysTick->VAL   = 0UL;                                             /* Load the SysTick Counter Value */
 80017fe:	2000      	movs	r0, #0
  SysTick->CTRL  = SysTick_CTRL_CLKSOURCE_Msk |
 8001800:	2207      	movs	r2, #7
  SysTick->VAL   = 0UL;                                             /* Load the SysTick Counter Value */
 8001802:	6198      	str	r0, [r3, #24]
  SysTick->CTRL  = SysTick_CTRL_CLKSOURCE_Msk |
 8001804:	611a      	str	r2, [r3, #16]
                   SysTick_CTRL_TICKINT_Msk   |
                   SysTick_CTRL_ENABLE_Msk;                         /* Enable SysTick IRQ and SysTick Timer */
  return (0UL);                                                     /* Function successful */
 8001806:	4770      	bx	lr
    return (1UL);                                                   /* Reload value impossible */
 8001808:	2001      	movs	r0, #1
  *                  - 1  Function failed.
  */
uint32_t HAL_SYSTICK_Config(uint32_t TicksNumb)
{
   return SysTick_Config(TicksNumb);
}
 800180a:	4770      	bx	lr
 800180c:	e000ed00 	.word	0xe000ed00

08001810 <HAL_DMA_Abort>:
  */
HAL_StatusTypeDef HAL_DMA_Abort(DMA_HandleTypeDef *hdma)
{
  HAL_StatusTypeDef status = HAL_OK;
  
  if(hdma->State != HAL_DMA_STATE_BUSY)
 8001810:	f890 2021 	ldrb.w	r2, [r0, #33]	; 0x21
{
 8001814:	4603      	mov	r3, r0
  if(hdma->State != HAL_DMA_STATE_BUSY)
 8001816:	2a02      	cmp	r2, #2
 8001818:	d006      	beq.n	8001828 <HAL_DMA_Abort+0x18>
  {
    /* no transfer ongoing */
    hdma->ErrorCode = HAL_DMA_ERROR_NO_XFER;
 800181a:	2204      	movs	r2, #4
 800181c:	6382      	str	r2, [r0, #56]	; 0x38
    
    /* Process Unlocked */
    __HAL_UNLOCK(hdma);
    
    return HAL_ERROR;
 800181e:	2001      	movs	r0, #1
    __HAL_UNLOCK(hdma);
 8001820:	2200      	movs	r2, #0
 8001822:	f883 2020 	strb.w	r2, [r3, #32]

  /* Process Unlocked */
  __HAL_UNLOCK(hdma);      
  
  return status; 
}
 8001826:	4770      	bx	lr
    __HAL_DMA_DISABLE_IT(hdma, (DMA_IT_TC | DMA_IT_HT | DMA_IT_TE));
 8001828:	6802      	ldr	r2, [r0, #0]
    hdma->DmaBaseAddress->IFCR = (DMA_ISR_GIF1 << hdma->ChannelIndex);
 800182a:	6bc0      	ldr	r0, [r0, #60]	; 0x3c
    __HAL_DMA_DISABLE_IT(hdma, (DMA_IT_TC | DMA_IT_HT | DMA_IT_TE));
 800182c:	6811      	ldr	r1, [r2, #0]
 800182e:	f021 010e 	bic.w	r1, r1, #14
 8001832:	6011      	str	r1, [r2, #0]
    __HAL_DMA_DISABLE(hdma);
 8001834:	6811      	ldr	r1, [r2, #0]
 8001836:	f021 0101 	bic.w	r1, r1, #1
 800183a:	6011      	str	r1, [r2, #0]
    hdma->DmaBaseAddress->IFCR = (DMA_ISR_GIF1 << hdma->ChannelIndex);
 800183c:	2101      	movs	r1, #1
 800183e:	6c1a      	ldr	r2, [r3, #64]	; 0x40
 8001840:	fa01 f202 	lsl.w	r2, r1, r2
 8001844:	6042      	str	r2, [r0, #4]
  return status; 
 8001846:	2000      	movs	r0, #0
  hdma->State = HAL_DMA_STATE_READY;
 8001848:	f883 1021 	strb.w	r1, [r3, #33]	; 0x21
  return status; 
 800184c:	e7e8      	b.n	8001820 <HAL_DMA_Abort+0x10>
	...

08001850 <HAL_DMA_Abort_IT>:
  * @param  hdma  : pointer to a DMA_HandleTypeDef structure that contains
  *                 the configuration information for the specified DMA Channel.
  * @retval HAL status
  */
HAL_StatusTypeDef HAL_DMA_Abort_IT(DMA_HandleTypeDef *hdma)
{  
 8001850:	b510      	push	{r4, lr}
  HAL_StatusTypeDef status = HAL_OK;
  
  if(HAL_DMA_STATE_BUSY != hdma->State)
 8001852:	f890 3021 	ldrb.w	r3, [r0, #33]	; 0x21
 8001856:	2b02      	cmp	r3, #2
 8001858:	d003      	beq.n	8001862 <HAL_DMA_Abort_IT+0x12>
  {
    /* no transfer ongoing */
    hdma->ErrorCode = HAL_DMA_ERROR_NO_XFER;
 800185a:	2304      	movs	r3, #4
 800185c:	6383      	str	r3, [r0, #56]	; 0x38
        
    status = HAL_ERROR;
 800185e:	2001      	movs	r0, #1
    {
      hdma->XferAbortCallback(hdma);
    } 
  }
  return status;
}
 8001860:	bd10      	pop	{r4, pc}
    __HAL_DMA_DISABLE_IT(hdma, (DMA_IT_TC | DMA_IT_HT | DMA_IT_TE));
 8001862:	6803      	ldr	r3, [r0, #0]
 8001864:	681a      	ldr	r2, [r3, #0]
 8001866:	f022 020e 	bic.w	r2, r2, #14
 800186a:	601a      	str	r2, [r3, #0]
    __HAL_DMA_DISABLE(hdma);
 800186c:	681a      	ldr	r2, [r3, #0]
 800186e:	f022 0201 	bic.w	r2, r2, #1
 8001872:	601a      	str	r2, [r3, #0]
    __HAL_DMA_CLEAR_FLAG(hdma, __HAL_DMA_GET_GI_FLAG_INDEX(hdma));
 8001874:	4a18      	ldr	r2, [pc, #96]	; (80018d8 <HAL_DMA_Abort_IT+0x88>)
 8001876:	4293      	cmp	r3, r2
 8001878:	d01f      	beq.n	80018ba <HAL_DMA_Abort_IT+0x6a>
 800187a:	3214      	adds	r2, #20
 800187c:	4293      	cmp	r3, r2
 800187e:	d01e      	beq.n	80018be <HAL_DMA_Abort_IT+0x6e>
 8001880:	3214      	adds	r2, #20
 8001882:	4293      	cmp	r3, r2
 8001884:	d01d      	beq.n	80018c2 <HAL_DMA_Abort_IT+0x72>
 8001886:	3214      	adds	r2, #20
 8001888:	4293      	cmp	r3, r2
 800188a:	d01d      	beq.n	80018c8 <HAL_DMA_Abort_IT+0x78>
 800188c:	3214      	adds	r2, #20
 800188e:	4293      	cmp	r3, r2
 8001890:	d01d      	beq.n	80018ce <HAL_DMA_Abort_IT+0x7e>
 8001892:	3214      	adds	r2, #20
 8001894:	4293      	cmp	r3, r2
 8001896:	bf0c      	ite	eq
 8001898:	f44f 1380 	moveq.w	r3, #1048576	; 0x100000
 800189c:	f04f 7380 	movne.w	r3, #16777216	; 0x1000000
 80018a0:	4a0e      	ldr	r2, [pc, #56]	; (80018dc <HAL_DMA_Abort_IT+0x8c>)
    __HAL_UNLOCK(hdma);
 80018a2:	2400      	movs	r4, #0
    __HAL_DMA_CLEAR_FLAG(hdma, __HAL_DMA_GET_GI_FLAG_INDEX(hdma));
 80018a4:	6053      	str	r3, [r2, #4]
    hdma->State = HAL_DMA_STATE_READY;
 80018a6:	2301      	movs	r3, #1
 80018a8:	f880 3021 	strb.w	r3, [r0, #33]	; 0x21
    if(hdma->XferAbortCallback != NULL)
 80018ac:	6b43      	ldr	r3, [r0, #52]	; 0x34
    __HAL_UNLOCK(hdma);
 80018ae:	f880 4020 	strb.w	r4, [r0, #32]
    if(hdma->XferAbortCallback != NULL)
 80018b2:	b17b      	cbz	r3, 80018d4 <HAL_DMA_Abort_IT+0x84>
      hdma->XferAbortCallback(hdma);
 80018b4:	4798      	blx	r3
  HAL_StatusTypeDef status = HAL_OK;
 80018b6:	4620      	mov	r0, r4
 80018b8:	e7d2      	b.n	8001860 <HAL_DMA_Abort_IT+0x10>
    __HAL_DMA_CLEAR_FLAG(hdma, __HAL_DMA_GET_GI_FLAG_INDEX(hdma));
 80018ba:	2301      	movs	r3, #1
 80018bc:	e7f0      	b.n	80018a0 <HAL_DMA_Abort_IT+0x50>
 80018be:	2310      	movs	r3, #16
 80018c0:	e7ee      	b.n	80018a0 <HAL_DMA_Abort_IT+0x50>
 80018c2:	f44f 7380 	mov.w	r3, #256	; 0x100
 80018c6:	e7eb      	b.n	80018a0 <HAL_DMA_Abort_IT+0x50>
 80018c8:	f44f 5380 	mov.w	r3, #4096	; 0x1000
 80018cc:	e7e8      	b.n	80018a0 <HAL_DMA_Abort_IT+0x50>
 80018ce:	f44f 3380 	mov.w	r3, #65536	; 0x10000
 80018d2:	e7e5      	b.n	80018a0 <HAL_DMA_Abort_IT+0x50>
  HAL_StatusTypeDef status = HAL_OK;
 80018d4:	4618      	mov	r0, r3
 80018d6:	e7c3      	b.n	8001860 <HAL_DMA_Abort_IT+0x10>
 80018d8:	40020008 	.word	0x40020008
 80018dc:	40020000 	.word	0x40020000

080018e0 <HAL_GPIO_Init>:
  * @param  GPIO_Init: pointer to a GPIO_InitTypeDef structure that contains
  *         the configuration information for the specified GPIO peripheral.
  * @retval None
  */
void HAL_GPIO_Init(GPIO_TypeDef  *GPIOx, GPIO_InitTypeDef *GPIO_Init)
{
 80018e0:	e92d 4ff7 	stmdb	sp!, {r0, r1, r2, r4, r5, r6, r7, r8, r9, sl, fp, lr}
  uint32_t position = 0x00u;
  uint32_t ioposition;
  uint32_t iocurrent;
  uint32_t temp;
  uint32_t config = 0x00u;
 80018e4:	2200      	movs	r2, #0
  uint32_t position = 0x00u;
 80018e6:	4616      	mov	r6, r2
      /*--------------------- EXTI Mode Configuration ------------------------*/
      /* Configure the External Interrupt or event for the current IO */
      if ((GPIO_Init->Mode & EXTI_MODE) == EXTI_MODE)
      {
        /* Enable AFIO Clock */
        __HAL_RCC_AFIO_CLK_ENABLE();
 80018e8:	4f61      	ldr	r7, [pc, #388]	; (8001a70 <HAL_GPIO_Init+0x190>)
 80018ea:	4b62      	ldr	r3, [pc, #392]	; (8001a74 <HAL_GPIO_Init+0x194>)
      switch (GPIO_Init->Mode)
 80018ec:	f8df c188 	ldr.w	ip, [pc, #392]	; 8001a78 <HAL_GPIO_Init+0x198>
 80018f0:	f8df e188 	ldr.w	lr, [pc, #392]	; 8001a7c <HAL_GPIO_Init+0x19c>
  while (((GPIO_Init->Pin) >> position) != 0x00u)
 80018f4:	680d      	ldr	r5, [r1, #0]
 80018f6:	fa35 f406 	lsrs.w	r4, r5, r6
 80018fa:	d102      	bne.n	8001902 <HAL_GPIO_Init+0x22>
      }
    }

	position++;
  }
}
 80018fc:	b003      	add	sp, #12
 80018fe:	e8bd 8ff0 	ldmia.w	sp!, {r4, r5, r6, r7, r8, r9, sl, fp, pc}
    ioposition = (0x01uL << position);
 8001902:	f04f 0801 	mov.w	r8, #1
 8001906:	fa08 f806 	lsl.w	r8, r8, r6
    iocurrent = (uint32_t)(GPIO_Init->Pin) & ioposition;
 800190a:	ea05 0408 	and.w	r4, r5, r8
    if (iocurrent == ioposition)
 800190e:	ea38 0505 	bics.w	r5, r8, r5
 8001912:	d176      	bne.n	8001a02 <HAL_GPIO_Init+0x122>
      switch (GPIO_Init->Mode)
 8001914:	684d      	ldr	r5, [r1, #4]
 8001916:	2d03      	cmp	r5, #3
 8001918:	d807      	bhi.n	800192a <HAL_GPIO_Init+0x4a>
 800191a:	3d01      	subs	r5, #1
 800191c:	2d02      	cmp	r5, #2
 800191e:	f200 8081 	bhi.w	8001a24 <HAL_GPIO_Init+0x144>
 8001922:	e8df f005 	tbb	[pc, r5]
 8001926:	9691      	.short	0x9691
 8001928:	9c          	.byte	0x9c
 8001929:	00          	.byte	0x00
 800192a:	2d12      	cmp	r5, #18
 800192c:	f000 8094 	beq.w	8001a58 <HAL_GPIO_Init+0x178>
 8001930:	d869      	bhi.n	8001a06 <HAL_GPIO_Init+0x126>
 8001932:	2d11      	cmp	r5, #17
 8001934:	f000 808a 	beq.w	8001a4c <HAL_GPIO_Init+0x16c>
      configregister = (iocurrent < GPIO_PIN_8) ? &GPIOx->CRL     : &GPIOx->CRH;
 8001938:	2cff      	cmp	r4, #255	; 0xff
 800193a:	bf98      	it	ls
 800193c:	4682      	movls	sl, r0
      MODIFY_REG((*configregister), ((GPIO_CRL_MODE0 | GPIO_CRL_CNF0) << registeroffset), (config << registeroffset));
 800193e:	f04f 090f 	mov.w	r9, #15
      configregister = (iocurrent < GPIO_PIN_8) ? &GPIOx->CRL     : &GPIOx->CRH;
 8001942:	bf88      	it	hi
 8001944:	f100 0a04 	addhi.w	sl, r0, #4
 8001948:	ea4f 0586 	mov.w	r5, r6, lsl #2
      MODIFY_REG((*configregister), ((GPIO_CRL_MODE0 | GPIO_CRL_CNF0) << registeroffset), (config << registeroffset));
 800194c:	f8da 8000 	ldr.w	r8, [sl]
      registeroffset = (iocurrent < GPIO_PIN_8) ? (position << 2u) : ((position - 8u) << 2u);
 8001950:	bf88      	it	hi
 8001952:	3d20      	subhi	r5, #32
      MODIFY_REG((*configregister), ((GPIO_CRL_MODE0 | GPIO_CRL_CNF0) << registeroffset), (config << registeroffset));
 8001954:	fa09 fb05 	lsl.w	fp, r9, r5
 8001958:	ea28 080b 	bic.w	r8, r8, fp
 800195c:	fa02 f505 	lsl.w	r5, r2, r5
 8001960:	ea48 0505 	orr.w	r5, r8, r5
 8001964:	f8ca 5000 	str.w	r5, [sl]
      if ((GPIO_Init->Mode & EXTI_MODE) == EXTI_MODE)
 8001968:	f8d1 a004 	ldr.w	sl, [r1, #4]
 800196c:	f01a 5f80 	tst.w	sl, #268435456	; 0x10000000
 8001970:	d047      	beq.n	8001a02 <HAL_GPIO_Init+0x122>
        __HAL_RCC_AFIO_CLK_ENABLE();
 8001972:	69bd      	ldr	r5, [r7, #24]
 8001974:	f026 0803 	bic.w	r8, r6, #3
 8001978:	f045 0501 	orr.w	r5, r5, #1
 800197c:	61bd      	str	r5, [r7, #24]
 800197e:	69bd      	ldr	r5, [r7, #24]
 8001980:	f108 4880 	add.w	r8, r8, #1073741824	; 0x40000000
 8001984:	f005 0501 	and.w	r5, r5, #1
 8001988:	9501      	str	r5, [sp, #4]
 800198a:	f508 3880 	add.w	r8, r8, #65536	; 0x10000
        CLEAR_BIT(temp, (0x0Fu) << (4u * (position & 0x03u)));
 800198e:	f006 0b03 	and.w	fp, r6, #3
        __HAL_RCC_AFIO_CLK_ENABLE();
 8001992:	9d01      	ldr	r5, [sp, #4]
        CLEAR_BIT(temp, (0x0Fu) << (4u * (position & 0x03u)));
 8001994:	ea4f 0b8b 	mov.w	fp, fp, lsl #2
        temp = AFIO->EXTICR[position >> 2u];
 8001998:	f8d8 5008 	ldr.w	r5, [r8, #8]
        CLEAR_BIT(temp, (0x0Fu) << (4u * (position & 0x03u)));
 800199c:	fa09 f90b 	lsl.w	r9, r9, fp
 80019a0:	ea25 0909 	bic.w	r9, r5, r9
        SET_BIT(temp, (GPIO_GET_INDEX(GPIOx)) << (4u * (position & 0x03u)));
 80019a4:	4d36      	ldr	r5, [pc, #216]	; (8001a80 <HAL_GPIO_Init+0x1a0>)
 80019a6:	42a8      	cmp	r0, r5
 80019a8:	d05d      	beq.n	8001a66 <HAL_GPIO_Init+0x186>
 80019aa:	f505 6580 	add.w	r5, r5, #1024	; 0x400
 80019ae:	42a8      	cmp	r0, r5
 80019b0:	d05b      	beq.n	8001a6a <HAL_GPIO_Init+0x18a>
 80019b2:	f505 6580 	add.w	r5, r5, #1024	; 0x400
 80019b6:	42a8      	cmp	r0, r5
 80019b8:	bf0c      	ite	eq
 80019ba:	2502      	moveq	r5, #2
 80019bc:	2503      	movne	r5, #3
 80019be:	fa05 f50b 	lsl.w	r5, r5, fp
 80019c2:	ea45 0509 	orr.w	r5, r5, r9
        AFIO->EXTICR[position >> 2u] = temp;
 80019c6:	f8c8 5008 	str.w	r5, [r8, #8]
          SET_BIT(EXTI->RTSR, iocurrent);
 80019ca:	689d      	ldr	r5, [r3, #8]
        if ((GPIO_Init->Mode & RISING_EDGE) == RISING_EDGE)
 80019cc:	f41a 1f80 	tst.w	sl, #1048576	; 0x100000
          SET_BIT(EXTI->RTSR, iocurrent);
 80019d0:	bf14      	ite	ne
 80019d2:	4325      	orrne	r5, r4
          CLEAR_BIT(EXTI->RTSR, iocurrent);
 80019d4:	43a5      	biceq	r5, r4
 80019d6:	609d      	str	r5, [r3, #8]
          SET_BIT(EXTI->FTSR, iocurrent);
 80019d8:	68dd      	ldr	r5, [r3, #12]
        if ((GPIO_Init->Mode & FALLING_EDGE) == FALLING_EDGE)
 80019da:	f41a 1f00 	tst.w	sl, #2097152	; 0x200000
          SET_BIT(EXTI->FTSR, iocurrent);
 80019de:	bf14      	ite	ne
 80019e0:	4325      	orrne	r5, r4
          CLEAR_BIT(EXTI->FTSR, iocurrent);
 80019e2:	43a5      	biceq	r5, r4
 80019e4:	60dd      	str	r5, [r3, #12]
          SET_BIT(EXTI->EMR, iocurrent);
 80019e6:	685d      	ldr	r5, [r3, #4]
        if ((GPIO_Init->Mode & GPIO_MODE_EVT) == GPIO_MODE_EVT)
 80019e8:	f41a 3f00 	tst.w	sl, #131072	; 0x20000
          SET_BIT(EXTI->EMR, iocurrent);
 80019ec:	bf14      	ite	ne
 80019ee:	4325      	orrne	r5, r4
          CLEAR_BIT(EXTI->EMR, iocurrent);
 80019f0:	43a5      	biceq	r5, r4
 80019f2:	605d      	str	r5, [r3, #4]
          SET_BIT(EXTI->IMR, iocurrent);
 80019f4:	681d      	ldr	r5, [r3, #0]
        if ((GPIO_Init->Mode & GPIO_MODE_IT) == GPIO_MODE_IT)
 80019f6:	f41a 3f80 	tst.w	sl, #65536	; 0x10000
          SET_BIT(EXTI->IMR, iocurrent);
 80019fa:	bf14      	ite	ne
 80019fc:	4325      	orrne	r5, r4
          CLEAR_BIT(EXTI->IMR, iocurrent);
 80019fe:	43a5      	biceq	r5, r4
 8001a00:	601d      	str	r5, [r3, #0]
	position++;
 8001a02:	3601      	adds	r6, #1
 8001a04:	e776      	b.n	80018f4 <HAL_GPIO_Init+0x14>
      switch (GPIO_Init->Mode)
 8001a06:	f8df 907c 	ldr.w	r9, [pc, #124]	; 8001a84 <HAL_GPIO_Init+0x1a4>
 8001a0a:	454d      	cmp	r5, r9
 8001a0c:	d00a      	beq.n	8001a24 <HAL_GPIO_Init+0x144>
 8001a0e:	d815      	bhi.n	8001a3c <HAL_GPIO_Init+0x15c>
 8001a10:	4575      	cmp	r5, lr
 8001a12:	d007      	beq.n	8001a24 <HAL_GPIO_Init+0x144>
 8001a14:	f5a9 3980 	sub.w	r9, r9, #65536	; 0x10000
 8001a18:	454d      	cmp	r5, r9
 8001a1a:	d003      	beq.n	8001a24 <HAL_GPIO_Init+0x144>
 8001a1c:	f5a9 1980 	sub.w	r9, r9, #1048576	; 0x100000
 8001a20:	454d      	cmp	r5, r9
 8001a22:	d189      	bne.n	8001938 <HAL_GPIO_Init+0x58>
          if (GPIO_Init->Pull == GPIO_NOPULL)
 8001a24:	688a      	ldr	r2, [r1, #8]
 8001a26:	b1e2      	cbz	r2, 8001a62 <HAL_GPIO_Init+0x182>
          else if (GPIO_Init->Pull == GPIO_PULLUP)
 8001a28:	2a01      	cmp	r2, #1
            GPIOx->BSRR = ioposition;
 8001a2a:	bf08      	it	eq
 8001a2c:	f8c0 8010 	streq.w	r8, [r0, #16]
            config = GPIO_CR_MODE_INPUT + GPIO_CR_CNF_INPUT_PU_PD;
 8001a30:	f04f 0208 	mov.w	r2, #8
            GPIOx->BRR = ioposition;
 8001a34:	bf18      	it	ne
 8001a36:	f8c0 8014 	strne.w	r8, [r0, #20]
 8001a3a:	e77d      	b.n	8001938 <HAL_GPIO_Init+0x58>
      switch (GPIO_Init->Mode)
 8001a3c:	f8df 9048 	ldr.w	r9, [pc, #72]	; 8001a88 <HAL_GPIO_Init+0x1a8>
 8001a40:	454d      	cmp	r5, r9
 8001a42:	d0ef      	beq.n	8001a24 <HAL_GPIO_Init+0x144>
 8001a44:	4565      	cmp	r5, ip
 8001a46:	e7ec      	b.n	8001a22 <HAL_GPIO_Init+0x142>
          config = GPIO_Init->Speed + GPIO_CR_CNF_GP_OUTPUT_PP;
 8001a48:	68ca      	ldr	r2, [r1, #12]
          break;
 8001a4a:	e775      	b.n	8001938 <HAL_GPIO_Init+0x58>
          config = GPIO_Init->Speed + GPIO_CR_CNF_GP_OUTPUT_OD;
 8001a4c:	68ca      	ldr	r2, [r1, #12]
 8001a4e:	3204      	adds	r2, #4
          break;
 8001a50:	e772      	b.n	8001938 <HAL_GPIO_Init+0x58>
          config = GPIO_Init->Speed + GPIO_CR_CNF_AF_OUTPUT_PP;
 8001a52:	68ca      	ldr	r2, [r1, #12]
 8001a54:	3208      	adds	r2, #8
          break;
 8001a56:	e76f      	b.n	8001938 <HAL_GPIO_Init+0x58>
          config = GPIO_Init->Speed + GPIO_CR_CNF_AF_OUTPUT_OD;
 8001a58:	68ca      	ldr	r2, [r1, #12]
 8001a5a:	320c      	adds	r2, #12
          break;
 8001a5c:	e76c      	b.n	8001938 <HAL_GPIO_Init+0x58>
      switch (GPIO_Init->Mode)
 8001a5e:	2200      	movs	r2, #0
 8001a60:	e76a      	b.n	8001938 <HAL_GPIO_Init+0x58>
            config = GPIO_CR_MODE_INPUT + GPIO_CR_CNF_INPUT_FLOATING;
 8001a62:	2204      	movs	r2, #4
 8001a64:	e768      	b.n	8001938 <HAL_GPIO_Init+0x58>
        SET_BIT(temp, (GPIO_GET_INDEX(GPIOx)) << (4u * (position & 0x03u)));
 8001a66:	2500      	movs	r5, #0
 8001a68:	e7a9      	b.n	80019be <HAL_GPIO_Init+0xde>
 8001a6a:	2501      	movs	r5, #1
 8001a6c:	e7a7      	b.n	80019be <HAL_GPIO_Init+0xde>
 8001a6e:	bf00      	nop
 8001a70:	40021000 	.word	0x40021000
 8001a74:	40010400 	.word	0x40010400
 8001a78:	10320000 	.word	0x10320000
 8001a7c:	10120000 	.word	0x10120000
 8001a80:	40010800 	.word	0x40010800
 8001a84:	10220000 	.word	0x10220000
 8001a88:	10310000 	.word	0x10310000

08001a8c <HAL_GPIO_ReadPin>:
  GPIO_PinState bitstatus;

  /* Check the parameters */
  assert_param(IS_GPIO_PIN(GPIO_Pin));

  if ((GPIOx->IDR & GPIO_Pin) != (uint32_t)GPIO_PIN_RESET)
 8001a8c:	6883      	ldr	r3, [r0, #8]
 8001a8e:	4219      	tst	r1, r3
  else
  {
    bitstatus = GPIO_PIN_RESET;
  }
  return bitstatus;
}
 8001a90:	bf14      	ite	ne
 8001a92:	2001      	movne	r0, #1
 8001a94:	2000      	moveq	r0, #0
 8001a96:	4770      	bx	lr

08001a98 <HAL_GPIO_WritePin>:
{
  /* Check the parameters */
  assert_param(IS_GPIO_PIN(GPIO_Pin));
  assert_param(IS_GPIO_PIN_ACTION(PinState));

  if (PinState != GPIO_PIN_RESET)
 8001a98:	b10a      	cbz	r2, 8001a9e <HAL_GPIO_WritePin+0x6>
  {
    GPIOx->BSRR = GPIO_Pin;
  }
  else
  {
    GPIOx->BSRR = (uint32_t)GPIO_Pin << 16u;
 8001a9a:	6101      	str	r1, [r0, #16]
  }
}
 8001a9c:	4770      	bx	lr
    GPIOx->BSRR = (uint32_t)GPIO_Pin << 16u;
 8001a9e:	0409      	lsls	r1, r1, #16
 8001aa0:	e7fb      	b.n	8001a9a <HAL_GPIO_WritePin+0x2>
	...

08001aa4 <HAL_RCC_OscConfig>:
  *         supported by this macro. User should request a transition to HSE Off
  *         first and then HSE On or HSE Bypass.
  * @retval HAL status
  */
HAL_StatusTypeDef HAL_RCC_OscConfig(RCC_OscInitTypeDef  *RCC_OscInitStruct)
{
 8001aa4:	e92d 41f3 	stmdb	sp!, {r0, r1, r4, r5, r6, r7, r8, lr}
  uint32_t tickstart;
  uint32_t pll_config;

  /* Check Null pointer */
  if (RCC_OscInitStruct == NULL)
 8001aa8:	4605      	mov	r5, r0
 8001aaa:	b338      	cbz	r0, 8001afc <HAL_RCC_OscConfig+0x58>

  /* Check the parameters */
  assert_param(IS_RCC_OSCILLATORTYPE(RCC_OscInitStruct->OscillatorType));

  /*------------------------------- HSE Configuration ------------------------*/
  if (((RCC_OscInitStruct->OscillatorType) & RCC_OSCILLATORTYPE_HSE) == RCC_OSCILLATORTYPE_HSE)
 8001aac:	6803      	ldr	r3, [r0, #0]
 8001aae:	07db      	lsls	r3, r3, #31
 8001ab0:	d410      	bmi.n	8001ad4 <HAL_RCC_OscConfig+0x30>
        }
      }
    }
  }
  /*----------------------------- HSI Configuration --------------------------*/
  if (((RCC_OscInitStruct->OscillatorType) & RCC_OSCILLATORTYPE_HSI) == RCC_OSCILLATORTYPE_HSI)
 8001ab2:	682b      	ldr	r3, [r5, #0]
 8001ab4:	079f      	lsls	r7, r3, #30
 8001ab6:	d45e      	bmi.n	8001b76 <HAL_RCC_OscConfig+0xd2>
        }
      }
    }
  }
  /*------------------------------ LSI Configuration -------------------------*/
  if (((RCC_OscInitStruct->OscillatorType) & RCC_OSCILLATORTYPE_LSI) == RCC_OSCILLATORTYPE_LSI)
 8001ab8:	682b      	ldr	r3, [r5, #0]
 8001aba:	0719      	lsls	r1, r3, #28
 8001abc:	f100 8095 	bmi.w	8001bea <HAL_RCC_OscConfig+0x146>
        }
      }
    }
  }
  /*------------------------------ LSE Configuration -------------------------*/
  if (((RCC_OscInitStruct->OscillatorType) & RCC_OSCILLATORTYPE_LSE) == RCC_OSCILLATORTYPE_LSE)
 8001ac0:	682b      	ldr	r3, [r5, #0]
 8001ac2:	075a      	lsls	r2, r3, #29
 8001ac4:	f100 80c1 	bmi.w	8001c4a <HAL_RCC_OscConfig+0x1a6>

#endif /* RCC_CR_PLL2ON */
  /*-------------------------------- PLL Configuration -----------------------*/
  /* Check the parameters */
  assert_param(IS_RCC_PLL(RCC_OscInitStruct->PLL.PLLState));
  if ((RCC_OscInitStruct->PLL.PLLState) != RCC_PLL_NONE)
 8001ac8:	69e8      	ldr	r0, [r5, #28]
 8001aca:	2800      	cmp	r0, #0
 8001acc:	f040 812c 	bne.w	8001d28 <HAL_RCC_OscConfig+0x284>
        }
      }
    }
  }

  return HAL_OK;
 8001ad0:	2000      	movs	r0, #0
 8001ad2:	e029      	b.n	8001b28 <HAL_RCC_OscConfig+0x84>
    if ((__HAL_RCC_GET_SYSCLK_SOURCE() == RCC_SYSCLKSOURCE_STATUS_HSE)
 8001ad4:	4c90      	ldr	r4, [pc, #576]	; (8001d18 <HAL_RCC_OscConfig+0x274>)
 8001ad6:	6863      	ldr	r3, [r4, #4]
 8001ad8:	f003 030c 	and.w	r3, r3, #12
 8001adc:	2b04      	cmp	r3, #4
 8001ade:	d007      	beq.n	8001af0 <HAL_RCC_OscConfig+0x4c>
        || ((__HAL_RCC_GET_SYSCLK_SOURCE() == RCC_SYSCLKSOURCE_STATUS_PLLCLK) && (__HAL_RCC_GET_PLL_OSCSOURCE() == RCC_PLLSOURCE_HSE)))
 8001ae0:	6863      	ldr	r3, [r4, #4]
 8001ae2:	f003 030c 	and.w	r3, r3, #12
 8001ae6:	2b08      	cmp	r3, #8
 8001ae8:	d10a      	bne.n	8001b00 <HAL_RCC_OscConfig+0x5c>
 8001aea:	6863      	ldr	r3, [r4, #4]
 8001aec:	03de      	lsls	r6, r3, #15
 8001aee:	d507      	bpl.n	8001b00 <HAL_RCC_OscConfig+0x5c>
      if ((__HAL_RCC_GET_FLAG(RCC_FLAG_HSERDY) != RESET) && (RCC_OscInitStruct->HSEState == RCC_HSE_OFF))
 8001af0:	6823      	ldr	r3, [r4, #0]
 8001af2:	039c      	lsls	r4, r3, #14
 8001af4:	d5dd      	bpl.n	8001ab2 <HAL_RCC_OscConfig+0xe>
 8001af6:	686b      	ldr	r3, [r5, #4]
 8001af8:	2b00      	cmp	r3, #0
 8001afa:	d1da      	bne.n	8001ab2 <HAL_RCC_OscConfig+0xe>
          return HAL_ERROR;
 8001afc:	2001      	movs	r0, #1
 8001afe:	e013      	b.n	8001b28 <HAL_RCC_OscConfig+0x84>
      __HAL_RCC_HSE_CONFIG(RCC_OscInitStruct->HSEState);
 8001b00:	686b      	ldr	r3, [r5, #4]
 8001b02:	f5b3 3f80 	cmp.w	r3, #65536	; 0x10000
 8001b06:	d112      	bne.n	8001b2e <HAL_RCC_OscConfig+0x8a>
 8001b08:	6823      	ldr	r3, [r4, #0]
 8001b0a:	f443 3380 	orr.w	r3, r3, #65536	; 0x10000
 8001b0e:	6023      	str	r3, [r4, #0]
        tickstart = HAL_GetTick();
 8001b10:	f7ff fe14 	bl	800173c <HAL_GetTick>
 8001b14:	4606      	mov	r6, r0
        while (__HAL_RCC_GET_FLAG(RCC_FLAG_HSERDY) == RESET)
 8001b16:	6823      	ldr	r3, [r4, #0]
 8001b18:	0398      	lsls	r0, r3, #14
 8001b1a:	d4ca      	bmi.n	8001ab2 <HAL_RCC_OscConfig+0xe>
          if ((HAL_GetTick() - tickstart) > HSE_TIMEOUT_VALUE)
 8001b1c:	f7ff fe0e 	bl	800173c <HAL_GetTick>
 8001b20:	1b80      	subs	r0, r0, r6
 8001b22:	2864      	cmp	r0, #100	; 0x64
 8001b24:	d9f7      	bls.n	8001b16 <HAL_RCC_OscConfig+0x72>
            return HAL_TIMEOUT;
 8001b26:	2003      	movs	r0, #3
}
 8001b28:	b002      	add	sp, #8
 8001b2a:	e8bd 81f0 	ldmia.w	sp!, {r4, r5, r6, r7, r8, pc}
      __HAL_RCC_HSE_CONFIG(RCC_OscInitStruct->HSEState);
 8001b2e:	b99b      	cbnz	r3, 8001b58 <HAL_RCC_OscConfig+0xb4>
 8001b30:	6823      	ldr	r3, [r4, #0]
 8001b32:	f423 3380 	bic.w	r3, r3, #65536	; 0x10000
 8001b36:	6023      	str	r3, [r4, #0]
 8001b38:	6823      	ldr	r3, [r4, #0]
 8001b3a:	f423 2380 	bic.w	r3, r3, #262144	; 0x40000
 8001b3e:	6023      	str	r3, [r4, #0]
        tickstart = HAL_GetTick();
 8001b40:	f7ff fdfc 	bl	800173c <HAL_GetTick>
 8001b44:	4606      	mov	r6, r0
        while (__HAL_RCC_GET_FLAG(RCC_FLAG_HSERDY) != RESET)
 8001b46:	6823      	ldr	r3, [r4, #0]
 8001b48:	0399      	lsls	r1, r3, #14
 8001b4a:	d5b2      	bpl.n	8001ab2 <HAL_RCC_OscConfig+0xe>
          if ((HAL_GetTick() - tickstart) > HSE_TIMEOUT_VALUE)
 8001b4c:	f7ff fdf6 	bl	800173c <HAL_GetTick>
 8001b50:	1b80      	subs	r0, r0, r6
 8001b52:	2864      	cmp	r0, #100	; 0x64
 8001b54:	d9f7      	bls.n	8001b46 <HAL_RCC_OscConfig+0xa2>
 8001b56:	e7e6      	b.n	8001b26 <HAL_RCC_OscConfig+0x82>
      __HAL_RCC_HSE_CONFIG(RCC_OscInitStruct->HSEState);
 8001b58:	f5b3 2fa0 	cmp.w	r3, #327680	; 0x50000
 8001b5c:	6823      	ldr	r3, [r4, #0]
 8001b5e:	d103      	bne.n	8001b68 <HAL_RCC_OscConfig+0xc4>
 8001b60:	f443 2380 	orr.w	r3, r3, #262144	; 0x40000
 8001b64:	6023      	str	r3, [r4, #0]
 8001b66:	e7cf      	b.n	8001b08 <HAL_RCC_OscConfig+0x64>
 8001b68:	f423 3380 	bic.w	r3, r3, #65536	; 0x10000
 8001b6c:	6023      	str	r3, [r4, #0]
 8001b6e:	6823      	ldr	r3, [r4, #0]
 8001b70:	f423 2380 	bic.w	r3, r3, #262144	; 0x40000
 8001b74:	e7cb      	b.n	8001b0e <HAL_RCC_OscConfig+0x6a>
    if ((__HAL_RCC_GET_SYSCLK_SOURCE() == RCC_SYSCLKSOURCE_STATUS_HSI)
 8001b76:	4c68      	ldr	r4, [pc, #416]	; (8001d18 <HAL_RCC_OscConfig+0x274>)
 8001b78:	6863      	ldr	r3, [r4, #4]
 8001b7a:	f013 0f0c 	tst.w	r3, #12
 8001b7e:	d007      	beq.n	8001b90 <HAL_RCC_OscConfig+0xec>
        || ((__HAL_RCC_GET_SYSCLK_SOURCE() == RCC_SYSCLKSOURCE_STATUS_PLLCLK) && (__HAL_RCC_GET_PLL_OSCSOURCE() == RCC_PLLSOURCE_HSI_DIV2)))
 8001b80:	6863      	ldr	r3, [r4, #4]
 8001b82:	f003 030c 	and.w	r3, r3, #12
 8001b86:	2b08      	cmp	r3, #8
 8001b88:	d110      	bne.n	8001bac <HAL_RCC_OscConfig+0x108>
 8001b8a:	6863      	ldr	r3, [r4, #4]
 8001b8c:	03da      	lsls	r2, r3, #15
 8001b8e:	d40d      	bmi.n	8001bac <HAL_RCC_OscConfig+0x108>
      if ((__HAL_RCC_GET_FLAG(RCC_FLAG_HSIRDY) != RESET) && (RCC_OscInitStruct->HSIState != RCC_HSI_ON))
 8001b90:	6823      	ldr	r3, [r4, #0]
 8001b92:	079b      	lsls	r3, r3, #30
 8001b94:	d502      	bpl.n	8001b9c <HAL_RCC_OscConfig+0xf8>
 8001b96:	692b      	ldr	r3, [r5, #16]
 8001b98:	2b01      	cmp	r3, #1
 8001b9a:	d1af      	bne.n	8001afc <HAL_RCC_OscConfig+0x58>
        __HAL_RCC_HSI_CALIBRATIONVALUE_ADJUST(RCC_OscInitStruct->HSICalibrationValue);
 8001b9c:	6823      	ldr	r3, [r4, #0]
 8001b9e:	696a      	ldr	r2, [r5, #20]
 8001ba0:	f023 03f8 	bic.w	r3, r3, #248	; 0xf8
 8001ba4:	ea43 03c2 	orr.w	r3, r3, r2, lsl #3
 8001ba8:	6023      	str	r3, [r4, #0]
 8001baa:	e785      	b.n	8001ab8 <HAL_RCC_OscConfig+0x14>
      if (RCC_OscInitStruct->HSIState != RCC_HSI_OFF)
 8001bac:	692a      	ldr	r2, [r5, #16]
 8001bae:	4b5b      	ldr	r3, [pc, #364]	; (8001d1c <HAL_RCC_OscConfig+0x278>)
 8001bb0:	b16a      	cbz	r2, 8001bce <HAL_RCC_OscConfig+0x12a>
        __HAL_RCC_HSI_ENABLE();
 8001bb2:	2201      	movs	r2, #1
 8001bb4:	601a      	str	r2, [r3, #0]
        tickstart = HAL_GetTick();
 8001bb6:	f7ff fdc1 	bl	800173c <HAL_GetTick>
 8001bba:	4606      	mov	r6, r0
        while (__HAL_RCC_GET_FLAG(RCC_FLAG_HSIRDY) == RESET)
 8001bbc:	6823      	ldr	r3, [r4, #0]
 8001bbe:	079f      	lsls	r7, r3, #30
 8001bc0:	d4ec      	bmi.n	8001b9c <HAL_RCC_OscConfig+0xf8>
          if ((HAL_GetTick() - tickstart) > HSI_TIMEOUT_VALUE)
 8001bc2:	f7ff fdbb 	bl	800173c <HAL_GetTick>
 8001bc6:	1b80      	subs	r0, r0, r6
 8001bc8:	2802      	cmp	r0, #2
 8001bca:	d9f7      	bls.n	8001bbc <HAL_RCC_OscConfig+0x118>
 8001bcc:	e7ab      	b.n	8001b26 <HAL_RCC_OscConfig+0x82>
        __HAL_RCC_HSI_DISABLE();
 8001bce:	601a      	str	r2, [r3, #0]
        tickstart = HAL_GetTick();
 8001bd0:	f7ff fdb4 	bl	800173c <HAL_GetTick>
 8001bd4:	4606      	mov	r6, r0
        while (__HAL_RCC_GET_FLAG(RCC_FLAG_HSIRDY) != RESET)
 8001bd6:	6823      	ldr	r3, [r4, #0]
 8001bd8:	0798      	lsls	r0, r3, #30
 8001bda:	f57f af6d 	bpl.w	8001ab8 <HAL_RCC_OscConfig+0x14>
          if ((HAL_GetTick() - tickstart) > HSI_TIMEOUT_VALUE)
 8001bde:	f7ff fdad 	bl	800173c <HAL_GetTick>
 8001be2:	1b80      	subs	r0, r0, r6
 8001be4:	2802      	cmp	r0, #2
 8001be6:	d9f6      	bls.n	8001bd6 <HAL_RCC_OscConfig+0x132>
 8001be8:	e79d      	b.n	8001b26 <HAL_RCC_OscConfig+0x82>
    if (RCC_OscInitStruct->LSIState != RCC_LSI_OFF)
 8001bea:	69aa      	ldr	r2, [r5, #24]
 8001bec:	4e4a      	ldr	r6, [pc, #296]	; (8001d18 <HAL_RCC_OscConfig+0x274>)
 8001bee:	4b4b      	ldr	r3, [pc, #300]	; (8001d1c <HAL_RCC_OscConfig+0x278>)
 8001bf0:	b1e2      	cbz	r2, 8001c2c <HAL_RCC_OscConfig+0x188>
      __HAL_RCC_LSI_ENABLE();
 8001bf2:	2201      	movs	r2, #1
 8001bf4:	f8c3 2480 	str.w	r2, [r3, #1152]	; 0x480
      tickstart = HAL_GetTick();
 8001bf8:	f7ff fda0 	bl	800173c <HAL_GetTick>
 8001bfc:	4604      	mov	r4, r0
      while (__HAL_RCC_GET_FLAG(RCC_FLAG_LSIRDY) == RESET)
 8001bfe:	6a73      	ldr	r3, [r6, #36]	; 0x24
 8001c00:	079b      	lsls	r3, r3, #30
 8001c02:	d50d      	bpl.n	8001c20 <HAL_RCC_OscConfig+0x17c>
  * @param  mdelay: specifies the delay time length, in milliseconds.
  * @retval None
  */
static void RCC_Delay(uint32_t mdelay)
{
  __IO uint32_t Delay = mdelay * (SystemCoreClock / 8U / 1000U);
 8001c04:	f44f 52fa 	mov.w	r2, #8000	; 0x1f40
 8001c08:	4b45      	ldr	r3, [pc, #276]	; (8001d20 <HAL_RCC_OscConfig+0x27c>)
 8001c0a:	681b      	ldr	r3, [r3, #0]
 8001c0c:	fbb3 f3f2 	udiv	r3, r3, r2
 8001c10:	9301      	str	r3, [sp, #4]
  do
  {
    __NOP();
 8001c12:	bf00      	nop
  }
  while (Delay --);
 8001c14:	9b01      	ldr	r3, [sp, #4]
 8001c16:	1e5a      	subs	r2, r3, #1
 8001c18:	9201      	str	r2, [sp, #4]
 8001c1a:	2b00      	cmp	r3, #0
 8001c1c:	d1f9      	bne.n	8001c12 <HAL_RCC_OscConfig+0x16e>
 8001c1e:	e74f      	b.n	8001ac0 <HAL_RCC_OscConfig+0x1c>
        if ((HAL_GetTick() - tickstart) > LSI_TIMEOUT_VALUE)
 8001c20:	f7ff fd8c 	bl	800173c <HAL_GetTick>
 8001c24:	1b00      	subs	r0, r0, r4
 8001c26:	2802      	cmp	r0, #2
 8001c28:	d9e9      	bls.n	8001bfe <HAL_RCC_OscConfig+0x15a>
 8001c2a:	e77c      	b.n	8001b26 <HAL_RCC_OscConfig+0x82>
      __HAL_RCC_LSI_DISABLE();
 8001c2c:	f8c3 2480 	str.w	r2, [r3, #1152]	; 0x480
      tickstart = HAL_GetTick();
 8001c30:	f7ff fd84 	bl	800173c <HAL_GetTick>
 8001c34:	4604      	mov	r4, r0
      while (__HAL_RCC_GET_FLAG(RCC_FLAG_LSIRDY) != RESET)
 8001c36:	6a73      	ldr	r3, [r6, #36]	; 0x24
 8001c38:	079f      	lsls	r7, r3, #30
 8001c3a:	f57f af41 	bpl.w	8001ac0 <HAL_RCC_OscConfig+0x1c>
        if ((HAL_GetTick() - tickstart) > LSI_TIMEOUT_VALUE)
 8001c3e:	f7ff fd7d 	bl	800173c <HAL_GetTick>
 8001c42:	1b00      	subs	r0, r0, r4
 8001c44:	2802      	cmp	r0, #2
 8001c46:	d9f6      	bls.n	8001c36 <HAL_RCC_OscConfig+0x192>
 8001c48:	e76d      	b.n	8001b26 <HAL_RCC_OscConfig+0x82>
    if (__HAL_RCC_PWR_IS_CLK_DISABLED())
 8001c4a:	4c33      	ldr	r4, [pc, #204]	; (8001d18 <HAL_RCC_OscConfig+0x274>)
 8001c4c:	69e3      	ldr	r3, [r4, #28]
 8001c4e:	00d8      	lsls	r0, r3, #3
 8001c50:	d424      	bmi.n	8001c9c <HAL_RCC_OscConfig+0x1f8>
      pwrclkchanged = SET;
 8001c52:	2701      	movs	r7, #1
      __HAL_RCC_PWR_CLK_ENABLE();
 8001c54:	69e3      	ldr	r3, [r4, #28]
 8001c56:	f043 5380 	orr.w	r3, r3, #268435456	; 0x10000000
 8001c5a:	61e3      	str	r3, [r4, #28]
 8001c5c:	69e3      	ldr	r3, [r4, #28]
 8001c5e:	f003 5380 	and.w	r3, r3, #268435456	; 0x10000000
 8001c62:	9300      	str	r3, [sp, #0]
 8001c64:	9b00      	ldr	r3, [sp, #0]
    if (HAL_IS_BIT_CLR(PWR->CR, PWR_CR_DBP))
 8001c66:	4e2f      	ldr	r6, [pc, #188]	; (8001d24 <HAL_RCC_OscConfig+0x280>)
 8001c68:	6833      	ldr	r3, [r6, #0]
 8001c6a:	05d9      	lsls	r1, r3, #23
 8001c6c:	d518      	bpl.n	8001ca0 <HAL_RCC_OscConfig+0x1fc>
    __HAL_RCC_LSE_CONFIG(RCC_OscInitStruct->LSEState);
 8001c6e:	68eb      	ldr	r3, [r5, #12]
 8001c70:	2b01      	cmp	r3, #1
 8001c72:	d126      	bne.n	8001cc2 <HAL_RCC_OscConfig+0x21e>
 8001c74:	6a23      	ldr	r3, [r4, #32]
 8001c76:	f043 0301 	orr.w	r3, r3, #1
 8001c7a:	6223      	str	r3, [r4, #32]
      tickstart = HAL_GetTick();
 8001c7c:	f7ff fd5e 	bl	800173c <HAL_GetTick>
        if ((HAL_GetTick() - tickstart) > RCC_LSE_TIMEOUT_VALUE)
 8001c80:	f241 3888 	movw	r8, #5000	; 0x1388
      tickstart = HAL_GetTick();
 8001c84:	4606      	mov	r6, r0
      while (__HAL_RCC_GET_FLAG(RCC_FLAG_LSERDY) == RESET)
 8001c86:	6a23      	ldr	r3, [r4, #32]
 8001c88:	079b      	lsls	r3, r3, #30
 8001c8a:	d53f      	bpl.n	8001d0c <HAL_RCC_OscConfig+0x268>
    if (pwrclkchanged == SET)
 8001c8c:	2f00      	cmp	r7, #0
 8001c8e:	f43f af1b 	beq.w	8001ac8 <HAL_RCC_OscConfig+0x24>
      __HAL_RCC_PWR_CLK_DISABLE();
 8001c92:	69e3      	ldr	r3, [r4, #28]
 8001c94:	f023 5380 	bic.w	r3, r3, #268435456	; 0x10000000
 8001c98:	61e3      	str	r3, [r4, #28]
 8001c9a:	e715      	b.n	8001ac8 <HAL_RCC_OscConfig+0x24>
    FlagStatus       pwrclkchanged = RESET;
 8001c9c:	2700      	movs	r7, #0
 8001c9e:	e7e2      	b.n	8001c66 <HAL_RCC_OscConfig+0x1c2>
      SET_BIT(PWR->CR, PWR_CR_DBP);
 8001ca0:	6833      	ldr	r3, [r6, #0]
 8001ca2:	f443 7380 	orr.w	r3, r3, #256	; 0x100
 8001ca6:	6033      	str	r3, [r6, #0]
      tickstart = HAL_GetTick();
 8001ca8:	f7ff fd48 	bl	800173c <HAL_GetTick>
 8001cac:	4680      	mov	r8, r0
      while (HAL_IS_BIT_CLR(PWR->CR, PWR_CR_DBP))
 8001cae:	6833      	ldr	r3, [r6, #0]
 8001cb0:	05da      	lsls	r2, r3, #23
 8001cb2:	d4dc      	bmi.n	8001c6e <HAL_RCC_OscConfig+0x1ca>
        if ((HAL_GetTick() - tickstart) > RCC_DBP_TIMEOUT_VALUE)
 8001cb4:	f7ff fd42 	bl	800173c <HAL_GetTick>
 8001cb8:	eba0 0008 	sub.w	r0, r0, r8
 8001cbc:	2864      	cmp	r0, #100	; 0x64
 8001cbe:	d9f6      	bls.n	8001cae <HAL_RCC_OscConfig+0x20a>
 8001cc0:	e731      	b.n	8001b26 <HAL_RCC_OscConfig+0x82>
    __HAL_RCC_LSE_CONFIG(RCC_OscInitStruct->LSEState);
 8001cc2:	b9ab      	cbnz	r3, 8001cf0 <HAL_RCC_OscConfig+0x24c>
 8001cc4:	6a23      	ldr	r3, [r4, #32]
        if ((HAL_GetTick() - tickstart) > RCC_LSE_TIMEOUT_VALUE)
 8001cc6:	f241 3888 	movw	r8, #5000	; 0x1388
    __HAL_RCC_LSE_CONFIG(RCC_OscInitStruct->LSEState);
 8001cca:	f023 0301 	bic.w	r3, r3, #1
 8001cce:	6223      	str	r3, [r4, #32]
 8001cd0:	6a23      	ldr	r3, [r4, #32]
 8001cd2:	f023 0304 	bic.w	r3, r3, #4
 8001cd6:	6223      	str	r3, [r4, #32]
      tickstart = HAL_GetTick();
 8001cd8:	f7ff fd30 	bl	800173c <HAL_GetTick>
 8001cdc:	4606      	mov	r6, r0
      while (__HAL_RCC_GET_FLAG(RCC_FLAG_LSERDY) != RESET)
 8001cde:	6a23      	ldr	r3, [r4, #32]
 8001ce0:	0798      	lsls	r0, r3, #30
 8001ce2:	d5d3      	bpl.n	8001c8c <HAL_RCC_OscConfig+0x1e8>
        if ((HAL_GetTick() - tickstart) > RCC_LSE_TIMEOUT_VALUE)
 8001ce4:	f7ff fd2a 	bl	800173c <HAL_GetTick>
 8001ce8:	1b80      	subs	r0, r0, r6
 8001cea:	4540      	cmp	r0, r8
 8001cec:	d9f7      	bls.n	8001cde <HAL_RCC_OscConfig+0x23a>
 8001cee:	e71a      	b.n	8001b26 <HAL_RCC_OscConfig+0x82>
    __HAL_RCC_LSE_CONFIG(RCC_OscInitStruct->LSEState);
 8001cf0:	2b05      	cmp	r3, #5
 8001cf2:	6a23      	ldr	r3, [r4, #32]
 8001cf4:	d103      	bne.n	8001cfe <HAL_RCC_OscConfig+0x25a>
 8001cf6:	f043 0304 	orr.w	r3, r3, #4
 8001cfa:	6223      	str	r3, [r4, #32]
 8001cfc:	e7ba      	b.n	8001c74 <HAL_RCC_OscConfig+0x1d0>
 8001cfe:	f023 0301 	bic.w	r3, r3, #1
 8001d02:	6223      	str	r3, [r4, #32]
 8001d04:	6a23      	ldr	r3, [r4, #32]
 8001d06:	f023 0304 	bic.w	r3, r3, #4
 8001d0a:	e7b6      	b.n	8001c7a <HAL_RCC_OscConfig+0x1d6>
        if ((HAL_GetTick() - tickstart) > RCC_LSE_TIMEOUT_VALUE)
 8001d0c:	f7ff fd16 	bl	800173c <HAL_GetTick>
 8001d10:	1b80      	subs	r0, r0, r6
 8001d12:	4540      	cmp	r0, r8
 8001d14:	d9b7      	bls.n	8001c86 <HAL_RCC_OscConfig+0x1e2>
 8001d16:	e706      	b.n	8001b26 <HAL_RCC_OscConfig+0x82>
 8001d18:	40021000 	.word	0x40021000
 8001d1c:	42420000 	.word	0x42420000
 8001d20:	2000001c 	.word	0x2000001c
 8001d24:	40007000 	.word	0x40007000
    if (__HAL_RCC_GET_SYSCLK_SOURCE() != RCC_SYSCLKSOURCE_STATUS_PLLCLK)
 8001d28:	4c2a      	ldr	r4, [pc, #168]	; (8001dd4 <HAL_RCC_OscConfig+0x330>)
 8001d2a:	6863      	ldr	r3, [r4, #4]
 8001d2c:	f003 030c 	and.w	r3, r3, #12
 8001d30:	2b08      	cmp	r3, #8
 8001d32:	d03e      	beq.n	8001db2 <HAL_RCC_OscConfig+0x30e>
      if ((RCC_OscInitStruct->PLL.PLLState) == RCC_PLL_ON)
 8001d34:	2200      	movs	r2, #0
 8001d36:	4b28      	ldr	r3, [pc, #160]	; (8001dd8 <HAL_RCC_OscConfig+0x334>)
 8001d38:	2802      	cmp	r0, #2
        __HAL_RCC_PLL_DISABLE();
 8001d3a:	661a      	str	r2, [r3, #96]	; 0x60
      if ((RCC_OscInitStruct->PLL.PLLState) == RCC_PLL_ON)
 8001d3c:	d12c      	bne.n	8001d98 <HAL_RCC_OscConfig+0x2f4>
        tickstart = HAL_GetTick();
 8001d3e:	f7ff fcfd 	bl	800173c <HAL_GetTick>
 8001d42:	4606      	mov	r6, r0
        while (__HAL_RCC_GET_FLAG(RCC_FLAG_PLLRDY)  != RESET)
 8001d44:	6823      	ldr	r3, [r4, #0]
 8001d46:	0199      	lsls	r1, r3, #6
 8001d48:	d420      	bmi.n	8001d8c <HAL_RCC_OscConfig+0x2e8>
        if (RCC_OscInitStruct->PLL.PLLSource == RCC_PLLSOURCE_HSE)
 8001d4a:	6a2b      	ldr	r3, [r5, #32]
 8001d4c:	f5b3 3f80 	cmp.w	r3, #65536	; 0x10000
 8001d50:	d105      	bne.n	8001d5e <HAL_RCC_OscConfig+0x2ba>
          __HAL_RCC_HSE_PREDIV_CONFIG(RCC_OscInitStruct->HSEPredivValue);
 8001d52:	6862      	ldr	r2, [r4, #4]
 8001d54:	68a9      	ldr	r1, [r5, #8]
 8001d56:	f422 3200 	bic.w	r2, r2, #131072	; 0x20000
 8001d5a:	430a      	orrs	r2, r1
 8001d5c:	6062      	str	r2, [r4, #4]
        __HAL_RCC_PLL_CONFIG(RCC_OscInitStruct->PLL.PLLSource,
 8001d5e:	6a69      	ldr	r1, [r5, #36]	; 0x24
 8001d60:	6862      	ldr	r2, [r4, #4]
 8001d62:	430b      	orrs	r3, r1
 8001d64:	f422 1274 	bic.w	r2, r2, #3997696	; 0x3d0000
 8001d68:	4313      	orrs	r3, r2
        __HAL_RCC_PLL_ENABLE();
 8001d6a:	2201      	movs	r2, #1
        __HAL_RCC_PLL_CONFIG(RCC_OscInitStruct->PLL.PLLSource,
 8001d6c:	6063      	str	r3, [r4, #4]
        __HAL_RCC_PLL_ENABLE();
 8001d6e:	4b1a      	ldr	r3, [pc, #104]	; (8001dd8 <HAL_RCC_OscConfig+0x334>)
 8001d70:	661a      	str	r2, [r3, #96]	; 0x60
        tickstart = HAL_GetTick();
 8001d72:	f7ff fce3 	bl	800173c <HAL_GetTick>
 8001d76:	4605      	mov	r5, r0
        while (__HAL_RCC_GET_FLAG(RCC_FLAG_PLLRDY)  == RESET)
 8001d78:	6823      	ldr	r3, [r4, #0]
 8001d7a:	019a      	lsls	r2, r3, #6
 8001d7c:	f53f aea8 	bmi.w	8001ad0 <HAL_RCC_OscConfig+0x2c>
          if ((HAL_GetTick() - tickstart) > PLL_TIMEOUT_VALUE)
 8001d80:	f7ff fcdc 	bl	800173c <HAL_GetTick>
 8001d84:	1b40      	subs	r0, r0, r5
 8001d86:	2802      	cmp	r0, #2
 8001d88:	d9f6      	bls.n	8001d78 <HAL_RCC_OscConfig+0x2d4>
 8001d8a:	e6cc      	b.n	8001b26 <HAL_RCC_OscConfig+0x82>
          if ((HAL_GetTick() - tickstart) > PLL_TIMEOUT_VALUE)
 8001d8c:	f7ff fcd6 	bl	800173c <HAL_GetTick>
 8001d90:	1b80      	subs	r0, r0, r6
 8001d92:	2802      	cmp	r0, #2
 8001d94:	d9d6      	bls.n	8001d44 <HAL_RCC_OscConfig+0x2a0>
 8001d96:	e6c6      	b.n	8001b26 <HAL_RCC_OscConfig+0x82>
        tickstart = HAL_GetTick();
 8001d98:	f7ff fcd0 	bl	800173c <HAL_GetTick>
 8001d9c:	4605      	mov	r5, r0
        while (__HAL_RCC_GET_FLAG(RCC_FLAG_PLLRDY)  != RESET)
 8001d9e:	6823      	ldr	r3, [r4, #0]
 8001da0:	019b      	lsls	r3, r3, #6
 8001da2:	f57f ae95 	bpl.w	8001ad0 <HAL_RCC_OscConfig+0x2c>
          if ((HAL_GetTick() - tickstart) > PLL_TIMEOUT_VALUE)
 8001da6:	f7ff fcc9 	bl	800173c <HAL_GetTick>
 8001daa:	1b40      	subs	r0, r0, r5
 8001dac:	2802      	cmp	r0, #2
 8001dae:	d9f6      	bls.n	8001d9e <HAL_RCC_OscConfig+0x2fa>
 8001db0:	e6b9      	b.n	8001b26 <HAL_RCC_OscConfig+0x82>
      if ((RCC_OscInitStruct->PLL.PLLState) == RCC_PLL_OFF)
 8001db2:	2801      	cmp	r0, #1
 8001db4:	f43f aeb8 	beq.w	8001b28 <HAL_RCC_OscConfig+0x84>
        pll_config = RCC->CFGR;
 8001db8:	6863      	ldr	r3, [r4, #4]
        if ((READ_BIT(pll_config, RCC_CFGR_PLLSRC) != RCC_OscInitStruct->PLL.PLLSource) ||
 8001dba:	6a2a      	ldr	r2, [r5, #32]
 8001dbc:	f403 3180 	and.w	r1, r3, #65536	; 0x10000
 8001dc0:	4291      	cmp	r1, r2
 8001dc2:	f47f ae9b 	bne.w	8001afc <HAL_RCC_OscConfig+0x58>
 8001dc6:	6a6a      	ldr	r2, [r5, #36]	; 0x24
            (READ_BIT(pll_config, RCC_CFGR_PLLMULL) != RCC_OscInitStruct->PLL.PLLMUL))
 8001dc8:	f403 1370 	and.w	r3, r3, #3932160	; 0x3c0000
        if ((READ_BIT(pll_config, RCC_CFGR_PLLSRC) != RCC_OscInitStruct->PLL.PLLSource) ||
 8001dcc:	4293      	cmp	r3, r2
 8001dce:	f43f ae7f 	beq.w	8001ad0 <HAL_RCC_OscConfig+0x2c>
 8001dd2:	e693      	b.n	8001afc <HAL_RCC_OscConfig+0x58>
 8001dd4:	40021000 	.word	0x40021000
 8001dd8:	42420000 	.word	0x42420000

08001ddc <HAL_RCC_GetSysClockFreq>:
  tmpreg = RCC->CFGR;
 8001ddc:	4a0d      	ldr	r2, [pc, #52]	; (8001e14 <HAL_RCC_GetSysClockFreq+0x38>)
 8001dde:	6853      	ldr	r3, [r2, #4]
  switch (tmpreg & RCC_CFGR_SWS)
 8001de0:	f003 010c 	and.w	r1, r3, #12
 8001de4:	2908      	cmp	r1, #8
 8001de6:	d112      	bne.n	8001e0e <HAL_RCC_GetSysClockFreq+0x32>
      pllmul = aPLLMULFactorTable[(uint32_t)(tmpreg & RCC_CFGR_PLLMULL) >> RCC_CFGR_PLLMULL_Pos];
 8001de8:	480b      	ldr	r0, [pc, #44]	; (8001e18 <HAL_RCC_GetSysClockFreq+0x3c>)
 8001dea:	f3c3 4183 	ubfx	r1, r3, #18, #4
      if ((tmpreg & RCC_CFGR_PLLSRC) != RCC_PLLSOURCE_HSI_DIV2)
 8001dee:	03db      	lsls	r3, r3, #15
      pllmul = aPLLMULFactorTable[(uint32_t)(tmpreg & RCC_CFGR_PLLMULL) >> RCC_CFGR_PLLMULL_Pos];
 8001df0:	5c40      	ldrb	r0, [r0, r1]
      if ((tmpreg & RCC_CFGR_PLLSRC) != RCC_PLLSOURCE_HSI_DIV2)
 8001df2:	d509      	bpl.n	8001e08 <HAL_RCC_GetSysClockFreq+0x2c>
        prediv = aPredivFactorTable[(uint32_t)(RCC->CFGR & RCC_CFGR_PLLXTPRE) >> RCC_CFGR_PLLXTPRE_Pos];
 8001df4:	6853      	ldr	r3, [r2, #4]
        pllclk = (uint32_t)((HSE_VALUE  * pllmul) / prediv);
 8001df6:	4a09      	ldr	r2, [pc, #36]	; (8001e1c <HAL_RCC_GetSysClockFreq+0x40>)
        prediv = aPredivFactorTable[(uint32_t)(RCC->CFGR & RCC_CFGR_PLLXTPRE) >> RCC_CFGR_PLLXTPRE_Pos];
 8001df8:	f3c3 4340 	ubfx	r3, r3, #17, #1
        pllclk = (uint32_t)((HSE_VALUE  * pllmul) / prediv);
 8001dfc:	4350      	muls	r0, r2
        prediv = aPredivFactorTable[(uint32_t)(RCC->CFGR & RCC_CFGR_PLLXTPRE) >> RCC_CFGR_PLLXTPRE_Pos];
 8001dfe:	4a08      	ldr	r2, [pc, #32]	; (8001e20 <HAL_RCC_GetSysClockFreq+0x44>)
 8001e00:	5cd3      	ldrb	r3, [r2, r3]
        pllclk = (uint32_t)((HSE_VALUE  * pllmul) / prediv);
 8001e02:	fbb0 f0f3 	udiv	r0, r0, r3
 8001e06:	4770      	bx	lr
        pllclk = (uint32_t)((HSI_VALUE >> 1) * pllmul);
 8001e08:	4b06      	ldr	r3, [pc, #24]	; (8001e24 <HAL_RCC_GetSysClockFreq+0x48>)
 8001e0a:	4358      	muls	r0, r3
 8001e0c:	4770      	bx	lr
      sysclockfreq = HSE_VALUE;
 8001e0e:	4803      	ldr	r0, [pc, #12]	; (8001e1c <HAL_RCC_GetSysClockFreq+0x40>)
}
 8001e10:	4770      	bx	lr
 8001e12:	bf00      	nop
 8001e14:	40021000 	.word	0x40021000
 8001e18:	08006eb3 	.word	0x08006eb3
 8001e1c:	007a1200 	.word	0x007a1200
 8001e20:	08006ec3 	.word	0x08006ec3
 8001e24:	003d0900 	.word	0x003d0900

08001e28 <HAL_RCC_ClockConfig>:
{
 8001e28:	e92d 41f0 	stmdb	sp!, {r4, r5, r6, r7, r8, lr}
 8001e2c:	460d      	mov	r5, r1
  if (RCC_ClkInitStruct == NULL)
 8001e2e:	4604      	mov	r4, r0
 8001e30:	b910      	cbnz	r0, 8001e38 <HAL_RCC_ClockConfig+0x10>
    return HAL_ERROR;
 8001e32:	2001      	movs	r0, #1
}
 8001e34:	e8bd 81f0 	ldmia.w	sp!, {r4, r5, r6, r7, r8, pc}
  if (FLatency > __HAL_FLASH_GET_LATENCY())
 8001e38:	4a44      	ldr	r2, [pc, #272]	; (8001f4c <HAL_RCC_ClockConfig+0x124>)
 8001e3a:	6813      	ldr	r3, [r2, #0]
 8001e3c:	f003 0307 	and.w	r3, r3, #7
 8001e40:	428b      	cmp	r3, r1
 8001e42:	d328      	bcc.n	8001e96 <HAL_RCC_ClockConfig+0x6e>
if (((RCC_ClkInitStruct->ClockType) & RCC_CLOCKTYPE_HCLK) == RCC_CLOCKTYPE_HCLK)
 8001e44:	6821      	ldr	r1, [r4, #0]
 8001e46:	078e      	lsls	r6, r1, #30
 8001e48:	d430      	bmi.n	8001eac <HAL_RCC_ClockConfig+0x84>
  if (((RCC_ClkInitStruct->ClockType) & RCC_CLOCKTYPE_SYSCLK) == RCC_CLOCKTYPE_SYSCLK)
 8001e4a:	07ca      	lsls	r2, r1, #31
 8001e4c:	d443      	bmi.n	8001ed6 <HAL_RCC_ClockConfig+0xae>
  if (FLatency < __HAL_FLASH_GET_LATENCY())
 8001e4e:	4a3f      	ldr	r2, [pc, #252]	; (8001f4c <HAL_RCC_ClockConfig+0x124>)
 8001e50:	6813      	ldr	r3, [r2, #0]
 8001e52:	f003 0307 	and.w	r3, r3, #7
 8001e56:	42ab      	cmp	r3, r5
 8001e58:	d865      	bhi.n	8001f26 <HAL_RCC_ClockConfig+0xfe>
if (((RCC_ClkInitStruct->ClockType) & RCC_CLOCKTYPE_PCLK1) == RCC_CLOCKTYPE_PCLK1)
 8001e5a:	6822      	ldr	r2, [r4, #0]
 8001e5c:	4d3c      	ldr	r5, [pc, #240]	; (8001f50 <HAL_RCC_ClockConfig+0x128>)
 8001e5e:	f012 0f04 	tst.w	r2, #4
 8001e62:	d16c      	bne.n	8001f3e <HAL_RCC_ClockConfig+0x116>
  if (((RCC_ClkInitStruct->ClockType) & RCC_CLOCKTYPE_PCLK2) == RCC_CLOCKTYPE_PCLK2)
 8001e64:	0713      	lsls	r3, r2, #28
 8001e66:	d506      	bpl.n	8001e76 <HAL_RCC_ClockConfig+0x4e>
    MODIFY_REG(RCC->CFGR, RCC_CFGR_PPRE2, ((RCC_ClkInitStruct->APB2CLKDivider) << 3));
 8001e68:	686b      	ldr	r3, [r5, #4]
 8001e6a:	6922      	ldr	r2, [r4, #16]
 8001e6c:	f423 5360 	bic.w	r3, r3, #14336	; 0x3800
 8001e70:	ea43 03c2 	orr.w	r3, r3, r2, lsl #3
 8001e74:	606b      	str	r3, [r5, #4]
  SystemCoreClock = HAL_RCC_GetSysClockFreq() >> AHBPrescTable[(RCC->CFGR & RCC_CFGR_HPRE) >> RCC_CFGR_HPRE_Pos];
 8001e76:	f7ff ffb1 	bl	8001ddc <HAL_RCC_GetSysClockFreq>
 8001e7a:	686b      	ldr	r3, [r5, #4]
 8001e7c:	4a35      	ldr	r2, [pc, #212]	; (8001f54 <HAL_RCC_ClockConfig+0x12c>)
 8001e7e:	f3c3 1303 	ubfx	r3, r3, #4, #4
 8001e82:	5cd3      	ldrb	r3, [r2, r3]
 8001e84:	40d8      	lsrs	r0, r3
 8001e86:	4b34      	ldr	r3, [pc, #208]	; (8001f58 <HAL_RCC_ClockConfig+0x130>)
 8001e88:	6018      	str	r0, [r3, #0]
  HAL_InitTick(uwTickPrio);
 8001e8a:	4b34      	ldr	r3, [pc, #208]	; (8001f5c <HAL_RCC_ClockConfig+0x134>)
 8001e8c:	6818      	ldr	r0, [r3, #0]
 8001e8e:	f7ff fc13 	bl	80016b8 <HAL_InitTick>
  return HAL_OK;
 8001e92:	2000      	movs	r0, #0
 8001e94:	e7ce      	b.n	8001e34 <HAL_RCC_ClockConfig+0xc>
    __HAL_FLASH_SET_LATENCY(FLatency);
 8001e96:	6813      	ldr	r3, [r2, #0]
 8001e98:	f023 0307 	bic.w	r3, r3, #7
 8001e9c:	430b      	orrs	r3, r1
 8001e9e:	6013      	str	r3, [r2, #0]
    if (__HAL_FLASH_GET_LATENCY() != FLatency)
 8001ea0:	6813      	ldr	r3, [r2, #0]
 8001ea2:	f003 0307 	and.w	r3, r3, #7
 8001ea6:	428b      	cmp	r3, r1
 8001ea8:	d1c3      	bne.n	8001e32 <HAL_RCC_ClockConfig+0xa>
 8001eaa:	e7cb      	b.n	8001e44 <HAL_RCC_ClockConfig+0x1c>
    if (((RCC_ClkInitStruct->ClockType) & RCC_CLOCKTYPE_PCLK1) == RCC_CLOCKTYPE_PCLK1)
 8001eac:	4b28      	ldr	r3, [pc, #160]	; (8001f50 <HAL_RCC_ClockConfig+0x128>)
 8001eae:	f011 0f04 	tst.w	r1, #4
      MODIFY_REG(RCC->CFGR, RCC_CFGR_PPRE1, RCC_HCLK_DIV16);
 8001eb2:	bf1e      	ittt	ne
 8001eb4:	685a      	ldrne	r2, [r3, #4]
 8001eb6:	f442 62e0 	orrne.w	r2, r2, #1792	; 0x700
 8001eba:	605a      	strne	r2, [r3, #4]
    if (((RCC_ClkInitStruct->ClockType) & RCC_CLOCKTYPE_PCLK2) == RCC_CLOCKTYPE_PCLK2)
 8001ebc:	0708      	lsls	r0, r1, #28
      MODIFY_REG(RCC->CFGR, RCC_CFGR_PPRE2, (RCC_HCLK_DIV16 << 3));
 8001ebe:	bf42      	ittt	mi
 8001ec0:	685a      	ldrmi	r2, [r3, #4]
 8001ec2:	f442 5260 	orrmi.w	r2, r2, #14336	; 0x3800
 8001ec6:	605a      	strmi	r2, [r3, #4]
    MODIFY_REG(RCC->CFGR, RCC_CFGR_HPRE, RCC_ClkInitStruct->AHBCLKDivider);
 8001ec8:	685a      	ldr	r2, [r3, #4]
 8001eca:	68a0      	ldr	r0, [r4, #8]
 8001ecc:	f022 02f0 	bic.w	r2, r2, #240	; 0xf0
 8001ed0:	4302      	orrs	r2, r0
 8001ed2:	605a      	str	r2, [r3, #4]
 8001ed4:	e7b9      	b.n	8001e4a <HAL_RCC_ClockConfig+0x22>
    if (RCC_ClkInitStruct->SYSCLKSource == RCC_SYSCLKSOURCE_HSE)
 8001ed6:	6862      	ldr	r2, [r4, #4]
 8001ed8:	4e1d      	ldr	r6, [pc, #116]	; (8001f50 <HAL_RCC_ClockConfig+0x128>)
 8001eda:	2a01      	cmp	r2, #1
      if (__HAL_RCC_GET_FLAG(RCC_FLAG_HSERDY) == RESET)
 8001edc:	6833      	ldr	r3, [r6, #0]
    if (RCC_ClkInitStruct->SYSCLKSource == RCC_SYSCLKSOURCE_HSE)
 8001ede:	d11a      	bne.n	8001f16 <HAL_RCC_ClockConfig+0xee>
      if (__HAL_RCC_GET_FLAG(RCC_FLAG_HSERDY) == RESET)
 8001ee0:	f413 3f00 	tst.w	r3, #131072	; 0x20000
      if (__HAL_RCC_GET_FLAG(RCC_FLAG_HSIRDY) == RESET)
 8001ee4:	d0a5      	beq.n	8001e32 <HAL_RCC_ClockConfig+0xa>
    __HAL_RCC_SYSCLK_CONFIG(RCC_ClkInitStruct->SYSCLKSource);
 8001ee6:	6873      	ldr	r3, [r6, #4]
      if ((HAL_GetTick() - tickstart) > CLOCKSWITCH_TIMEOUT_VALUE)
 8001ee8:	f241 3888 	movw	r8, #5000	; 0x1388
    __HAL_RCC_SYSCLK_CONFIG(RCC_ClkInitStruct->SYSCLKSource);
 8001eec:	f023 0303 	bic.w	r3, r3, #3
 8001ef0:	4313      	orrs	r3, r2
 8001ef2:	6073      	str	r3, [r6, #4]
    tickstart = HAL_GetTick();
 8001ef4:	f7ff fc22 	bl	800173c <HAL_GetTick>
 8001ef8:	4607      	mov	r7, r0
    while (__HAL_RCC_GET_SYSCLK_SOURCE() != (RCC_ClkInitStruct->SYSCLKSource << RCC_CFGR_SWS_Pos))
 8001efa:	6873      	ldr	r3, [r6, #4]
 8001efc:	6862      	ldr	r2, [r4, #4]
 8001efe:	f003 030c 	and.w	r3, r3, #12
 8001f02:	ebb3 0f82 	cmp.w	r3, r2, lsl #2
 8001f06:	d0a2      	beq.n	8001e4e <HAL_RCC_ClockConfig+0x26>
      if ((HAL_GetTick() - tickstart) > CLOCKSWITCH_TIMEOUT_VALUE)
 8001f08:	f7ff fc18 	bl	800173c <HAL_GetTick>
 8001f0c:	1bc0      	subs	r0, r0, r7
 8001f0e:	4540      	cmp	r0, r8
 8001f10:	d9f3      	bls.n	8001efa <HAL_RCC_ClockConfig+0xd2>
        return HAL_TIMEOUT;
 8001f12:	2003      	movs	r0, #3
 8001f14:	e78e      	b.n	8001e34 <HAL_RCC_ClockConfig+0xc>
    else if (RCC_ClkInitStruct->SYSCLKSource == RCC_SYSCLKSOURCE_PLLCLK)
 8001f16:	2a02      	cmp	r2, #2
 8001f18:	d102      	bne.n	8001f20 <HAL_RCC_ClockConfig+0xf8>
      if (__HAL_RCC_GET_FLAG(RCC_FLAG_PLLRDY) == RESET)
 8001f1a:	f013 7f00 	tst.w	r3, #33554432	; 0x2000000
 8001f1e:	e7e1      	b.n	8001ee4 <HAL_RCC_ClockConfig+0xbc>
      if (__HAL_RCC_GET_FLAG(RCC_FLAG_HSIRDY) == RESET)
 8001f20:	f013 0f02 	tst.w	r3, #2
 8001f24:	e7de      	b.n	8001ee4 <HAL_RCC_ClockConfig+0xbc>
    __HAL_FLASH_SET_LATENCY(FLatency);
 8001f26:	6813      	ldr	r3, [r2, #0]
 8001f28:	f023 0307 	bic.w	r3, r3, #7
 8001f2c:	432b      	orrs	r3, r5
 8001f2e:	6013      	str	r3, [r2, #0]
    if (__HAL_FLASH_GET_LATENCY() != FLatency)
 8001f30:	6813      	ldr	r3, [r2, #0]
 8001f32:	f003 0307 	and.w	r3, r3, #7
 8001f36:	42ab      	cmp	r3, r5
 8001f38:	f47f af7b 	bne.w	8001e32 <HAL_RCC_ClockConfig+0xa>
 8001f3c:	e78d      	b.n	8001e5a <HAL_RCC_ClockConfig+0x32>
    MODIFY_REG(RCC->CFGR, RCC_CFGR_PPRE1, RCC_ClkInitStruct->APB1CLKDivider);
 8001f3e:	686b      	ldr	r3, [r5, #4]
 8001f40:	68e1      	ldr	r1, [r4, #12]
 8001f42:	f423 63e0 	bic.w	r3, r3, #1792	; 0x700
 8001f46:	430b      	orrs	r3, r1
 8001f48:	606b      	str	r3, [r5, #4]
 8001f4a:	e78b      	b.n	8001e64 <HAL_RCC_ClockConfig+0x3c>
 8001f4c:	40022000 	.word	0x40022000
 8001f50:	40021000 	.word	0x40021000
 8001f54:	08006df9 	.word	0x08006df9
 8001f58:	2000001c 	.word	0x2000001c
 8001f5c:	20000024 	.word	0x20000024

08001f60 <HAL_RCC_GetPCLK1Freq>:
  return (HAL_RCC_GetHCLKFreq() >> APBPrescTable[(RCC->CFGR & RCC_CFGR_PPRE1) >> RCC_CFGR_PPRE1_Pos]);
 8001f60:	4b04      	ldr	r3, [pc, #16]	; (8001f74 <HAL_RCC_GetPCLK1Freq+0x14>)
 8001f62:	4a05      	ldr	r2, [pc, #20]	; (8001f78 <HAL_RCC_GetPCLK1Freq+0x18>)
 8001f64:	685b      	ldr	r3, [r3, #4]
 8001f66:	f3c3 2302 	ubfx	r3, r3, #8, #3
 8001f6a:	5cd3      	ldrb	r3, [r2, r3]
 8001f6c:	4a03      	ldr	r2, [pc, #12]	; (8001f7c <HAL_RCC_GetPCLK1Freq+0x1c>)
 8001f6e:	6810      	ldr	r0, [r2, #0]
}
 8001f70:	40d8      	lsrs	r0, r3
 8001f72:	4770      	bx	lr
 8001f74:	40021000 	.word	0x40021000
 8001f78:	08006e09 	.word	0x08006e09
 8001f7c:	2000001c 	.word	0x2000001c

08001f80 <HAL_RCC_GetPCLK2Freq>:
  return (HAL_RCC_GetHCLKFreq() >> APBPrescTable[(RCC->CFGR & RCC_CFGR_PPRE2) >> RCC_CFGR_PPRE2_Pos]);
 8001f80:	4b04      	ldr	r3, [pc, #16]	; (8001f94 <HAL_RCC_GetPCLK2Freq+0x14>)
 8001f82:	4a05      	ldr	r2, [pc, #20]	; (8001f98 <HAL_RCC_GetPCLK2Freq+0x18>)
 8001f84:	685b      	ldr	r3, [r3, #4]
 8001f86:	f3c3 23c2 	ubfx	r3, r3, #11, #3
 8001f8a:	5cd3      	ldrb	r3, [r2, r3]
 8001f8c:	4a03      	ldr	r2, [pc, #12]	; (8001f9c <HAL_RCC_GetPCLK2Freq+0x1c>)
 8001f8e:	6810      	ldr	r0, [r2, #0]
}
 8001f90:	40d8      	lsrs	r0, r3
 8001f92:	4770      	bx	lr
 8001f94:	40021000 	.word	0x40021000
 8001f98:	08006e09 	.word	0x08006e09
 8001f9c:	2000001c 	.word	0x2000001c

08001fa0 <UART_EndRxTransfer>:
  * @retval None
  */
static void UART_EndRxTransfer(UART_HandleTypeDef *huart)
{
  /* Disable RXNE, PE and ERR (Frame error, noise error, overrun error) interrupts */
  ATOMIC_CLEAR_BIT(huart->Instance->CR1, (USART_CR1_RXNEIE | USART_CR1_PEIE));
 8001fa0:	6802      	ldr	r2, [r0, #0]
 */
__STATIC_FORCEINLINE uint32_t __LDREXW(volatile uint32_t *addr)
{
    uint32_t result;

   __ASM volatile ("ldrex %0, %1" : "=r" (result) : "Q" (*addr) );
 8001fa2:	f102 030c 	add.w	r3, r2, #12
 8001fa6:	e853 3f00 	ldrex	r3, [r3]
 8001faa:	f423 7390 	bic.w	r3, r3, #288	; 0x120
 */
__STATIC_FORCEINLINE uint32_t __STREXW(uint32_t value, volatile uint32_t *addr)
{
   uint32_t result;

   __ASM volatile ("strex %0, %2, %1" : "=&r" (result), "=Q" (*addr) : "r" (value) );
 8001fae:	320c      	adds	r2, #12
 8001fb0:	e842 3100 	strex	r1, r3, [r2]
   return(result);
 8001fb4:	6802      	ldr	r2, [r0, #0]
 8001fb6:	2900      	cmp	r1, #0
 8001fb8:	d1f2      	bne.n	8001fa0 <UART_EndRxTransfer>
   __ASM volatile ("ldrex %0, %1" : "=r" (result) : "Q" (*addr) );
 8001fba:	f102 0314 	add.w	r3, r2, #20
 8001fbe:	e853 3f00 	ldrex	r3, [r3]
  ATOMIC_CLEAR_BIT(huart->Instance->CR3, USART_CR3_EIE);
 8001fc2:	f023 0301 	bic.w	r3, r3, #1
   __ASM volatile ("strex %0, %2, %1" : "=&r" (result), "=Q" (*addr) : "r" (value) );
 8001fc6:	f102 0c14 	add.w	ip, r2, #20
 8001fca:	e84c 3100 	strex	r1, r3, [ip]
 8001fce:	2900      	cmp	r1, #0
 8001fd0:	d1f3      	bne.n	8001fba <UART_EndRxTransfer+0x1a>

  /* In case of reception waiting for IDLE event, disable also the IDLE IE interrupt source */
  if (huart->ReceptionType == HAL_UART_RECEPTION_TOIDLE)
 8001fd2:	6b03      	ldr	r3, [r0, #48]	; 0x30
 8001fd4:	2b01      	cmp	r3, #1
 8001fd6:	d10b      	bne.n	8001ff0 <UART_EndRxTransfer+0x50>
   __ASM volatile ("ldrex %0, %1" : "=r" (result) : "Q" (*addr) );
 8001fd8:	f102 030c 	add.w	r3, r2, #12
 8001fdc:	e853 3f00 	ldrex	r3, [r3]
  {
    ATOMIC_CLEAR_BIT(huart->Instance->CR1, USART_CR1_IDLEIE);
 8001fe0:	f023 0310 	bic.w	r3, r3, #16
   __ASM volatile ("strex %0, %2, %1" : "=&r" (result), "=Q" (*addr) : "r" (value) );
 8001fe4:	f102 0c0c 	add.w	ip, r2, #12
 8001fe8:	e84c 3100 	strex	r1, r3, [ip]
 8001fec:	2900      	cmp	r1, #0
 8001fee:	d1f3      	bne.n	8001fd8 <UART_EndRxTransfer+0x38>
  }

  /* At end of Rx process, restore huart->RxState to Ready */
  huart->RxState = HAL_UART_STATE_READY;
 8001ff0:	2320      	movs	r3, #32
 8001ff2:	f880 3042 	strb.w	r3, [r0, #66]	; 0x42
  huart->ReceptionType = HAL_UART_RECEPTION_STANDARD;
 8001ff6:	2300      	movs	r3, #0
 8001ff8:	6303      	str	r3, [r0, #48]	; 0x30
}
 8001ffa:	4770      	bx	lr

08001ffc <UART_SetConfig>:
  * @param  huart  Pointer to a UART_HandleTypeDef structure that contains
  *                the configuration information for the specified UART module.
  * @retval None
  */
static void UART_SetConfig(UART_HandleTypeDef *huart)
{
 8001ffc:	b510      	push	{r4, lr}
 8001ffe:	4604      	mov	r4, r0
  assert_param(IS_UART_MODE(huart->Init.Mode));

  /*-------------------------- USART CR2 Configuration -----------------------*/
  /* Configure the UART Stop Bits: Set STOP[13:12] bits
     according to huart->Init.StopBits value */
  MODIFY_REG(huart->Instance->CR2, USART_CR2_STOP, huart->Init.StopBits);
 8002000:	6803      	ldr	r3, [r0, #0]
 8002002:	68c1      	ldr	r1, [r0, #12]
 8002004:	691a      	ldr	r2, [r3, #16]
 8002006:	f422 5240 	bic.w	r2, r2, #12288	; 0x3000
 800200a:	430a      	orrs	r2, r1
 800200c:	611a      	str	r2, [r3, #16]
  tmpreg = (uint32_t)huart->Init.WordLength | huart->Init.Parity | huart->Init.Mode | huart->Init.OverSampling;
  MODIFY_REG(huart->Instance->CR1,
             (uint32_t)(USART_CR1_M | USART_CR1_PCE | USART_CR1_PS | USART_CR1_TE | USART_CR1_RE | USART_CR1_OVER8),
             tmpreg);
#else
  tmpreg = (uint32_t)huart->Init.WordLength | huart->Init.Parity | huart->Init.Mode;
 800200e:	6882      	ldr	r2, [r0, #8]
 8002010:	6900      	ldr	r0, [r0, #16]
  MODIFY_REG(huart->Instance->CR1,
 8002012:	68d9      	ldr	r1, [r3, #12]
  tmpreg = (uint32_t)huart->Init.WordLength | huart->Init.Parity | huart->Init.Mode;
 8002014:	4302      	orrs	r2, r0
 8002016:	6960      	ldr	r0, [r4, #20]
  MODIFY_REG(huart->Instance->CR1,
 8002018:	f421 51b0 	bic.w	r1, r1, #5632	; 0x1600
 800201c:	f021 010c 	bic.w	r1, r1, #12
  tmpreg = (uint32_t)huart->Init.WordLength | huart->Init.Parity | huart->Init.Mode;
 8002020:	4302      	orrs	r2, r0
  MODIFY_REG(huart->Instance->CR1,
 8002022:	430a      	orrs	r2, r1
 8002024:	60da      	str	r2, [r3, #12]
             tmpreg);
#endif /* USART_CR1_OVER8 */

  /*-------------------------- USART CR3 Configuration -----------------------*/
  /* Configure the UART HFC: Set CTSE and RTSE bits according to huart->Init.HwFlowCtl value */
  MODIFY_REG(huart->Instance->CR3, (USART_CR3_RTSE | USART_CR3_CTSE), huart->Init.HwFlowCtl);
 8002026:	695a      	ldr	r2, [r3, #20]
 8002028:	69a1      	ldr	r1, [r4, #24]
 800202a:	f422 7240 	bic.w	r2, r2, #768	; 0x300
 800202e:	430a      	orrs	r2, r1
 8002030:	615a      	str	r2, [r3, #20]


  if(huart->Instance == USART1)
 8002032:	4a0e      	ldr	r2, [pc, #56]	; (800206c <UART_SetConfig+0x70>)
 8002034:	4293      	cmp	r3, r2
 8002036:	d115      	bne.n	8002064 <UART_SetConfig+0x68>
  {
    pclk = HAL_RCC_GetPCLK2Freq();
 8002038:	f7ff ffa2 	bl	8001f80 <HAL_RCC_GetPCLK2Freq>
  else
  {
    huart->Instance->BRR = UART_BRR_SAMPLING16(pclk, huart->Init.BaudRate);
  }
#else
  huart->Instance->BRR = UART_BRR_SAMPLING16(pclk, huart->Init.BaudRate);
 800203c:	2319      	movs	r3, #25
 800203e:	4343      	muls	r3, r0
 8002040:	6862      	ldr	r2, [r4, #4]
 8002042:	6820      	ldr	r0, [r4, #0]
 8002044:	0092      	lsls	r2, r2, #2
 8002046:	fbb3 f3f2 	udiv	r3, r3, r2
 800204a:	2264      	movs	r2, #100	; 0x64
 800204c:	fbb3 f1f2 	udiv	r1, r3, r2
 8002050:	fb02 3311 	mls	r3, r2, r1, r3
 8002054:	011b      	lsls	r3, r3, #4
 8002056:	3332      	adds	r3, #50	; 0x32
 8002058:	fbb3 f3f2 	udiv	r3, r3, r2
 800205c:	eb03 1301 	add.w	r3, r3, r1, lsl #4
 8002060:	6083      	str	r3, [r0, #8]
#endif /* USART_CR1_OVER8 */
}
 8002062:	bd10      	pop	{r4, pc}
    pclk = HAL_RCC_GetPCLK1Freq();
 8002064:	f7ff ff7c 	bl	8001f60 <HAL_RCC_GetPCLK1Freq>
 8002068:	e7e8      	b.n	800203c <UART_SetConfig+0x40>
 800206a:	bf00      	nop
 800206c:	40013800 	.word	0x40013800

08002070 <UART_WaitOnFlagUntilTimeout.constprop.0>:
static HAL_StatusTypeDef UART_WaitOnFlagUntilTimeout(UART_HandleTypeDef *huart, uint32_t Flag, FlagStatus Status,
 8002070:	b5f8      	push	{r3, r4, r5, r6, r7, lr}
 8002072:	4604      	mov	r4, r0
 8002074:	460e      	mov	r6, r1
 8002076:	4617      	mov	r7, r2
 8002078:	461d      	mov	r5, r3
  while ((__HAL_UART_GET_FLAG(huart, Flag) ? SET : RESET) == Status)
 800207a:	6822      	ldr	r2, [r4, #0]
 800207c:	6813      	ldr	r3, [r2, #0]
 800207e:	ea36 0303 	bics.w	r3, r6, r3
 8002082:	d101      	bne.n	8002088 <UART_WaitOnFlagUntilTimeout.constprop.0+0x18>
  return HAL_OK;
 8002084:	2000      	movs	r0, #0
 8002086:	e028      	b.n	80020da <UART_WaitOnFlagUntilTimeout.constprop.0+0x6a>
    if (Timeout != HAL_MAX_DELAY)
 8002088:	1c6b      	adds	r3, r5, #1
 800208a:	d0f7      	beq.n	800207c <UART_WaitOnFlagUntilTimeout.constprop.0+0xc>
      if ((Timeout == 0U) || ((HAL_GetTick() - Tickstart) > Timeout))
 800208c:	b125      	cbz	r5, 8002098 <UART_WaitOnFlagUntilTimeout.constprop.0+0x28>
 800208e:	f7ff fb55 	bl	800173c <HAL_GetTick>
 8002092:	1bc0      	subs	r0, r0, r7
 8002094:	4285      	cmp	r5, r0
 8002096:	d2f0      	bcs.n	800207a <UART_WaitOnFlagUntilTimeout.constprop.0+0xa>
        ATOMIC_CLEAR_BIT(huart->Instance->CR1, (USART_CR1_RXNEIE | USART_CR1_PEIE | USART_CR1_TXEIE));
 8002098:	6822      	ldr	r2, [r4, #0]
   __ASM volatile ("ldrex %0, %1" : "=r" (result) : "Q" (*addr) );
 800209a:	f102 030c 	add.w	r3, r2, #12
 800209e:	e853 3f00 	ldrex	r3, [r3]
 80020a2:	f423 73d0 	bic.w	r3, r3, #416	; 0x1a0
   __ASM volatile ("strex %0, %2, %1" : "=&r" (result), "=Q" (*addr) : "r" (value) );
 80020a6:	320c      	adds	r2, #12
 80020a8:	e842 3000 	strex	r0, r3, [r2]
   return(result);
 80020ac:	6821      	ldr	r1, [r4, #0]
 80020ae:	2800      	cmp	r0, #0
 80020b0:	d1f2      	bne.n	8002098 <UART_WaitOnFlagUntilTimeout.constprop.0+0x28>
   __ASM volatile ("ldrex %0, %1" : "=r" (result) : "Q" (*addr) );
 80020b2:	f101 0314 	add.w	r3, r1, #20
 80020b6:	e853 3f00 	ldrex	r3, [r3]
        ATOMIC_CLEAR_BIT(huart->Instance->CR3, USART_CR3_EIE);
 80020ba:	f023 0301 	bic.w	r3, r3, #1
   __ASM volatile ("strex %0, %2, %1" : "=&r" (result), "=Q" (*addr) : "r" (value) );
 80020be:	f101 0014 	add.w	r0, r1, #20
 80020c2:	e840 3200 	strex	r2, r3, [r0]
 80020c6:	2a00      	cmp	r2, #0
 80020c8:	d1f3      	bne.n	80020b2 <UART_WaitOnFlagUntilTimeout.constprop.0+0x42>
        huart->gState  = HAL_UART_STATE_READY;
 80020ca:	2320      	movs	r3, #32
        __HAL_UNLOCK(huart);
 80020cc:	2003      	movs	r0, #3
        huart->gState  = HAL_UART_STATE_READY;
 80020ce:	f884 3041 	strb.w	r3, [r4, #65]	; 0x41
        __HAL_UNLOCK(huart);
 80020d2:	f884 2040 	strb.w	r2, [r4, #64]	; 0x40
        huart->RxState = HAL_UART_STATE_READY;
 80020d6:	f884 3042 	strb.w	r3, [r4, #66]	; 0x42
}
 80020da:	bdf8      	pop	{r3, r4, r5, r6, r7, pc}

080020dc <HAL_UART_Init>:
{
 80020dc:	b510      	push	{r4, lr}
  if (huart == NULL)
 80020de:	4604      	mov	r4, r0
 80020e0:	b348      	cbz	r0, 8002136 <HAL_UART_Init+0x5a>
  if (huart->gState == HAL_UART_STATE_RESET)
 80020e2:	f890 3041 	ldrb.w	r3, [r0, #65]	; 0x41
 80020e6:	f003 02ff 	and.w	r2, r3, #255	; 0xff
 80020ea:	b91b      	cbnz	r3, 80020f4 <HAL_UART_Init+0x18>
    huart->Lock = HAL_UNLOCKED;
 80020ec:	f880 2040 	strb.w	r2, [r0, #64]	; 0x40
    HAL_UART_MspInit(huart);
 80020f0:	f7ff f8b4 	bl	800125c <HAL_UART_MspInit>
  huart->gState = HAL_UART_STATE_BUSY;
 80020f4:	2324      	movs	r3, #36	; 0x24
  __HAL_UART_DISABLE(huart);
 80020f6:	6822      	ldr	r2, [r4, #0]
  huart->gState = HAL_UART_STATE_BUSY;
 80020f8:	f884 3041 	strb.w	r3, [r4, #65]	; 0x41
  __HAL_UART_DISABLE(huart);
 80020fc:	68d3      	ldr	r3, [r2, #12]
  UART_SetConfig(huart);
 80020fe:	4620      	mov	r0, r4
  __HAL_UART_DISABLE(huart);
 8002100:	f423 5300 	bic.w	r3, r3, #8192	; 0x2000
 8002104:	60d3      	str	r3, [r2, #12]
  UART_SetConfig(huart);
 8002106:	f7ff ff79 	bl	8001ffc <UART_SetConfig>
  CLEAR_BIT(huart->Instance->CR2, (USART_CR2_LINEN | USART_CR2_CLKEN));
 800210a:	6823      	ldr	r3, [r4, #0]
  huart->ErrorCode = HAL_UART_ERROR_NONE;
 800210c:	2000      	movs	r0, #0
  CLEAR_BIT(huart->Instance->CR2, (USART_CR2_LINEN | USART_CR2_CLKEN));
 800210e:	691a      	ldr	r2, [r3, #16]
 8002110:	f422 4290 	bic.w	r2, r2, #18432	; 0x4800
 8002114:	611a      	str	r2, [r3, #16]
  CLEAR_BIT(huart->Instance->CR3, (USART_CR3_SCEN | USART_CR3_HDSEL | USART_CR3_IREN));
 8002116:	695a      	ldr	r2, [r3, #20]
 8002118:	f022 022a 	bic.w	r2, r2, #42	; 0x2a
 800211c:	615a      	str	r2, [r3, #20]
  __HAL_UART_ENABLE(huart);
 800211e:	68da      	ldr	r2, [r3, #12]
 8002120:	f442 5200 	orr.w	r2, r2, #8192	; 0x2000
 8002124:	60da      	str	r2, [r3, #12]
  huart->gState = HAL_UART_STATE_READY;
 8002126:	2320      	movs	r3, #32
  huart->ErrorCode = HAL_UART_ERROR_NONE;
 8002128:	6460      	str	r0, [r4, #68]	; 0x44
  huart->gState = HAL_UART_STATE_READY;
 800212a:	f884 3041 	strb.w	r3, [r4, #65]	; 0x41
  huart->RxState = HAL_UART_STATE_READY;
 800212e:	f884 3042 	strb.w	r3, [r4, #66]	; 0x42
  huart->RxEventType = HAL_UART_RXEVENT_TC;
 8002132:	6360      	str	r0, [r4, #52]	; 0x34
}
 8002134:	bd10      	pop	{r4, pc}
    return HAL_ERROR;
 8002136:	2001      	movs	r0, #1
 8002138:	e7fc      	b.n	8002134 <HAL_UART_Init+0x58>

0800213a <HAL_UART_Transmit>:
{
 800213a:	e92d 43f8 	stmdb	sp!, {r3, r4, r5, r6, r7, r8, r9, lr}
 800213e:	4699      	mov	r9, r3
  if (huart->gState == HAL_UART_STATE_READY)
 8002140:	f890 3041 	ldrb.w	r3, [r0, #65]	; 0x41
{
 8002144:	4604      	mov	r4, r0
  if (huart->gState == HAL_UART_STATE_READY)
 8002146:	2b20      	cmp	r3, #32
{
 8002148:	460e      	mov	r6, r1
 800214a:	4617      	mov	r7, r2
  if (huart->gState == HAL_UART_STATE_READY)
 800214c:	d13c      	bne.n	80021c8 <HAL_UART_Transmit+0x8e>
    if ((pData == NULL) || (Size == 0U))
 800214e:	2900      	cmp	r1, #0
 8002150:	d03c      	beq.n	80021cc <HAL_UART_Transmit+0x92>
 8002152:	2a00      	cmp	r2, #0
 8002154:	d03a      	beq.n	80021cc <HAL_UART_Transmit+0x92>
    huart->gState = HAL_UART_STATE_BUSY_TX;
 8002156:	2321      	movs	r3, #33	; 0x21
    huart->ErrorCode = HAL_UART_ERROR_NONE;
 8002158:	2500      	movs	r5, #0
 800215a:	6445      	str	r5, [r0, #68]	; 0x44
    huart->gState = HAL_UART_STATE_BUSY_TX;
 800215c:	f880 3041 	strb.w	r3, [r0, #65]	; 0x41
    tickstart = HAL_GetTick();
 8002160:	f7ff faec 	bl	800173c <HAL_GetTick>
    if ((huart->Init.WordLength == UART_WORDLENGTH_9B) && (huart->Init.Parity == UART_PARITY_NONE))
 8002164:	68a3      	ldr	r3, [r4, #8]
    tickstart = HAL_GetTick();
 8002166:	4680      	mov	r8, r0
    if ((huart->Init.WordLength == UART_WORDLENGTH_9B) && (huart->Init.Parity == UART_PARITY_NONE))
 8002168:	f5b3 5f80 	cmp.w	r3, #4096	; 0x1000
    huart->TxXferSize = Size;
 800216c:	84a7      	strh	r7, [r4, #36]	; 0x24
    huart->TxXferCount = Size;
 800216e:	84e7      	strh	r7, [r4, #38]	; 0x26
    if ((huart->Init.WordLength == UART_WORDLENGTH_9B) && (huart->Init.Parity == UART_PARITY_NONE))
 8002170:	d103      	bne.n	800217a <HAL_UART_Transmit+0x40>
 8002172:	6923      	ldr	r3, [r4, #16]
 8002174:	b90b      	cbnz	r3, 800217a <HAL_UART_Transmit+0x40>
 8002176:	4635      	mov	r5, r6
      pdata8bits  = NULL;
 8002178:	461e      	mov	r6, r3
    while (huart->TxXferCount > 0U)
 800217a:	8ce3      	ldrh	r3, [r4, #38]	; 0x26
 800217c:	b29b      	uxth	r3, r3
 800217e:	b953      	cbnz	r3, 8002196 <HAL_UART_Transmit+0x5c>
    if (UART_WaitOnFlagUntilTimeout(huart, UART_FLAG_TC, RESET, tickstart, Timeout) != HAL_OK)
 8002180:	464b      	mov	r3, r9
 8002182:	4642      	mov	r2, r8
 8002184:	2140      	movs	r1, #64	; 0x40
 8002186:	4620      	mov	r0, r4
 8002188:	f7ff ff72 	bl	8002070 <UART_WaitOnFlagUntilTimeout.constprop.0>
 800218c:	b950      	cbnz	r0, 80021a4 <HAL_UART_Transmit+0x6a>
    huart->gState = HAL_UART_STATE_READY;
 800218e:	2320      	movs	r3, #32
 8002190:	f884 3041 	strb.w	r3, [r4, #65]	; 0x41
    return HAL_OK;
 8002194:	e007      	b.n	80021a6 <HAL_UART_Transmit+0x6c>
      if (UART_WaitOnFlagUntilTimeout(huart, UART_FLAG_TXE, RESET, tickstart, Timeout) != HAL_OK)
 8002196:	464b      	mov	r3, r9
 8002198:	4642      	mov	r2, r8
 800219a:	2180      	movs	r1, #128	; 0x80
 800219c:	4620      	mov	r0, r4
 800219e:	f7ff ff67 	bl	8002070 <UART_WaitOnFlagUntilTimeout.constprop.0>
 80021a2:	b110      	cbz	r0, 80021aa <HAL_UART_Transmit+0x70>
        return HAL_TIMEOUT;
 80021a4:	2003      	movs	r0, #3
}
 80021a6:	e8bd 83f8 	ldmia.w	sp!, {r3, r4, r5, r6, r7, r8, r9, pc}
        huart->Instance->DR = (uint16_t)(*pdata16bits & 0x01FFU);
 80021aa:	6822      	ldr	r2, [r4, #0]
      if (pdata8bits == NULL)
 80021ac:	b94e      	cbnz	r6, 80021c2 <HAL_UART_Transmit+0x88>
        huart->Instance->DR = (uint16_t)(*pdata16bits & 0x01FFU);
 80021ae:	f835 3b02 	ldrh.w	r3, [r5], #2
 80021b2:	f3c3 0308 	ubfx	r3, r3, #0, #9
        huart->Instance->DR = (uint8_t)(*pdata8bits & 0xFFU);
 80021b6:	6053      	str	r3, [r2, #4]
      huart->TxXferCount--;
 80021b8:	8ce1      	ldrh	r1, [r4, #38]	; 0x26
 80021ba:	3901      	subs	r1, #1
 80021bc:	b289      	uxth	r1, r1
 80021be:	84e1      	strh	r1, [r4, #38]	; 0x26
 80021c0:	e7db      	b.n	800217a <HAL_UART_Transmit+0x40>
        huart->Instance->DR = (uint8_t)(*pdata8bits & 0xFFU);
 80021c2:	f816 3b01 	ldrb.w	r3, [r6], #1
 80021c6:	e7f6      	b.n	80021b6 <HAL_UART_Transmit+0x7c>
    return HAL_BUSY;
 80021c8:	2002      	movs	r0, #2
 80021ca:	e7ec      	b.n	80021a6 <HAL_UART_Transmit+0x6c>
      return  HAL_ERROR;
 80021cc:	2001      	movs	r0, #1
 80021ce:	e7ea      	b.n	80021a6 <HAL_UART_Transmit+0x6c>

080021d0 <HAL_UART_TxCpltCallback>:
 80021d0:	4770      	bx	lr

080021d2 <HAL_UART_ErrorCallback>:
 80021d2:	4770      	bx	lr

080021d4 <UART_DMAAbortOnError>:
{
 80021d4:	b508      	push	{r3, lr}
  huart->RxXferCount = 0x00U;
 80021d6:	2300      	movs	r3, #0
  UART_HandleTypeDef *huart = (UART_HandleTypeDef *)((DMA_HandleTypeDef *)hdma)->Parent;
 80021d8:	6a40      	ldr	r0, [r0, #36]	; 0x24
  huart->RxXferCount = 0x00U;
 80021da:	85c3      	strh	r3, [r0, #46]	; 0x2e
  huart->TxXferCount = 0x00U;
 80021dc:	84c3      	strh	r3, [r0, #38]	; 0x26
  HAL_UART_ErrorCallback(huart);
 80021de:	f7ff fff8 	bl	80021d2 <HAL_UART_ErrorCallback>
}
 80021e2:	bd08      	pop	{r3, pc}

080021e4 <HAL_UARTEx_RxEventCallback>:
}
 80021e4:	4770      	bx	lr

080021e6 <UART_Receive_IT.isra.0>:
  if (huart->RxState == HAL_UART_STATE_BUSY_RX)
 80021e6:	f890 3042 	ldrb.w	r3, [r0, #66]	; 0x42
static HAL_StatusTypeDef UART_Receive_IT(UART_HandleTypeDef *huart)
 80021ea:	b507      	push	{r0, r1, r2, lr}
  if (huart->RxState == HAL_UART_STATE_BUSY_RX)
 80021ec:	2b22      	cmp	r3, #34	; 0x22
 80021ee:	d142      	bne.n	8002276 <UART_Receive_IT.isra.0+0x90>
    if ((huart->Init.WordLength == UART_WORDLENGTH_9B) && (huart->Init.Parity == UART_PARITY_NONE))
 80021f0:	6881      	ldr	r1, [r0, #8]
      pdata16bits = (uint16_t *) huart->pRxBuffPtr;
 80021f2:	6a83      	ldr	r3, [r0, #40]	; 0x28
    if ((huart->Init.WordLength == UART_WORDLENGTH_9B) && (huart->Init.Parity == UART_PARITY_NONE))
 80021f4:	f5b1 5f80 	cmp.w	r1, #4096	; 0x1000
      *pdata16bits = (uint16_t)(huart->Instance->DR & (uint16_t)0x01FF);
 80021f8:	6802      	ldr	r2, [r0, #0]
    if ((huart->Init.WordLength == UART_WORDLENGTH_9B) && (huart->Init.Parity == UART_PARITY_NONE))
 80021fa:	d13f      	bne.n	800227c <UART_Receive_IT.isra.0+0x96>
 80021fc:	6901      	ldr	r1, [r0, #16]
 80021fe:	2900      	cmp	r1, #0
 8002200:	d13f      	bne.n	8002282 <UART_Receive_IT.isra.0+0x9c>
      *pdata16bits = (uint16_t)(huart->Instance->DR & (uint16_t)0x01FF);
 8002202:	6852      	ldr	r2, [r2, #4]
 8002204:	f3c2 0208 	ubfx	r2, r2, #0, #9
 8002208:	f823 2b02 	strh.w	r2, [r3], #2
      huart->pRxBuffPtr += 2U;
 800220c:	6283      	str	r3, [r0, #40]	; 0x28
    if (--huart->RxXferCount == 0U)
 800220e:	8dc3      	ldrh	r3, [r0, #46]	; 0x2e
 8002210:	3b01      	subs	r3, #1
 8002212:	b29b      	uxth	r3, r3
 8002214:	85c3      	strh	r3, [r0, #46]	; 0x2e
 8002216:	2b00      	cmp	r3, #0
 8002218:	d12d      	bne.n	8002276 <UART_Receive_IT.isra.0+0x90>
      __HAL_UART_DISABLE_IT(huart, UART_IT_RXNE);
 800221a:	6802      	ldr	r2, [r0, #0]
 800221c:	68d1      	ldr	r1, [r2, #12]
 800221e:	f021 0120 	bic.w	r1, r1, #32
 8002222:	60d1      	str	r1, [r2, #12]
      __HAL_UART_DISABLE_IT(huart, UART_IT_PE);
 8002224:	68d1      	ldr	r1, [r2, #12]
 8002226:	f421 7180 	bic.w	r1, r1, #256	; 0x100
 800222a:	60d1      	str	r1, [r2, #12]
      __HAL_UART_DISABLE_IT(huart, UART_IT_ERR);
 800222c:	6951      	ldr	r1, [r2, #20]
 800222e:	f021 0101 	bic.w	r1, r1, #1
 8002232:	6151      	str	r1, [r2, #20]
      huart->RxState = HAL_UART_STATE_READY;
 8002234:	2220      	movs	r2, #32
 8002236:	f880 2042 	strb.w	r2, [r0, #66]	; 0x42
      huart->RxEventType = HAL_UART_RXEVENT_TC;
 800223a:	6343      	str	r3, [r0, #52]	; 0x34
      if (huart->ReceptionType == HAL_UART_RECEPTION_TOIDLE)
 800223c:	6b02      	ldr	r2, [r0, #48]	; 0x30
 800223e:	2a01      	cmp	r2, #1
 8002240:	6802      	ldr	r2, [r0, #0]
 8002242:	d128      	bne.n	8002296 <UART_Receive_IT.isra.0+0xb0>
        huart->ReceptionType = HAL_UART_RECEPTION_STANDARD;
 8002244:	6303      	str	r3, [r0, #48]	; 0x30
   __ASM volatile ("ldrex %0, %1" : "=r" (result) : "Q" (*addr) );
 8002246:	f102 030c 	add.w	r3, r2, #12
 800224a:	e853 3f00 	ldrex	r3, [r3]
        ATOMIC_CLEAR_BIT(huart->Instance->CR1, USART_CR1_IDLEIE);
 800224e:	f023 0310 	bic.w	r3, r3, #16
   __ASM volatile ("strex %0, %2, %1" : "=&r" (result), "=Q" (*addr) : "r" (value) );
 8002252:	f102 0c0c 	add.w	ip, r2, #12
 8002256:	e84c 3100 	strex	r1, r3, [ip]
 800225a:	2900      	cmp	r1, #0
 800225c:	d1f3      	bne.n	8002246 <UART_Receive_IT.isra.0+0x60>
        if (__HAL_UART_GET_FLAG(huart, UART_FLAG_IDLE))
 800225e:	6813      	ldr	r3, [r2, #0]
 8002260:	06db      	lsls	r3, r3, #27
 8002262:	d505      	bpl.n	8002270 <UART_Receive_IT.isra.0+0x8a>
          __HAL_UART_CLEAR_IDLEFLAG(huart);
 8002264:	9101      	str	r1, [sp, #4]
 8002266:	6813      	ldr	r3, [r2, #0]
 8002268:	9301      	str	r3, [sp, #4]
 800226a:	6853      	ldr	r3, [r2, #4]
 800226c:	9301      	str	r3, [sp, #4]
 800226e:	9b01      	ldr	r3, [sp, #4]
        HAL_UARTEx_RxEventCallback(huart, huart->RxXferSize);
 8002270:	8d81      	ldrh	r1, [r0, #44]	; 0x2c
 8002272:	f7ff ffb7 	bl	80021e4 <HAL_UARTEx_RxEventCallback>
}
 8002276:	b003      	add	sp, #12
 8002278:	f85d fb04 	ldr.w	pc, [sp], #4
      if ((huart->Init.WordLength == UART_WORDLENGTH_9B) || ((huart->Init.WordLength == UART_WORDLENGTH_8B) && (huart->Init.Parity == UART_PARITY_NONE)))
 800227c:	b939      	cbnz	r1, 800228e <UART_Receive_IT.isra.0+0xa8>
 800227e:	6901      	ldr	r1, [r0, #16]
 8002280:	b929      	cbnz	r1, 800228e <UART_Receive_IT.isra.0+0xa8>
        *pdata8bits = (uint8_t)(huart->Instance->DR & (uint8_t)0x00FF);
 8002282:	6852      	ldr	r2, [r2, #4]
 8002284:	b2d2      	uxtb	r2, r2
 8002286:	701a      	strb	r2, [r3, #0]
      huart->pRxBuffPtr += 1U;
 8002288:	6a83      	ldr	r3, [r0, #40]	; 0x28
 800228a:	3301      	adds	r3, #1
 800228c:	e7be      	b.n	800220c <UART_Receive_IT.isra.0+0x26>
        *pdata8bits = (uint8_t)(huart->Instance->DR & (uint8_t)0x007F);
 800228e:	6852      	ldr	r2, [r2, #4]
 8002290:	f002 027f 	and.w	r2, r2, #127	; 0x7f
 8002294:	e7f7      	b.n	8002286 <UART_Receive_IT.isra.0+0xa0>
        HAL_UART_RxCpltCallback(huart);
 8002296:	f7ff f83f 	bl	8001318 <HAL_UART_RxCpltCallback>
 800229a:	e7ec      	b.n	8002276 <UART_Receive_IT.isra.0+0x90>

0800229c <HAL_UART_IRQHandler>:
  uint32_t isrflags   = READ_REG(huart->Instance->SR);
 800229c:	6803      	ldr	r3, [r0, #0]
{
 800229e:	b573      	push	{r0, r1, r4, r5, r6, lr}
  uint32_t isrflags   = READ_REG(huart->Instance->SR);
 80022a0:	681a      	ldr	r2, [r3, #0]
{
 80022a2:	4604      	mov	r4, r0
  if (errorflags == RESET)
 80022a4:	0716      	lsls	r6, r2, #28
  uint32_t cr1its     = READ_REG(huart->Instance->CR1);
 80022a6:	68d9      	ldr	r1, [r3, #12]
  uint32_t cr3its     = READ_REG(huart->Instance->CR3);
 80022a8:	695d      	ldr	r5, [r3, #20]
  if (errorflags == RESET)
 80022aa:	d108      	bne.n	80022be <HAL_UART_IRQHandler+0x22>
    if (((isrflags & USART_SR_RXNE) != RESET) && ((cr1its & USART_CR1_RXNEIE) != RESET))
 80022ac:	0696      	lsls	r6, r2, #26
 80022ae:	d568      	bpl.n	8002382 <HAL_UART_IRQHandler+0xe6>
 80022b0:	068d      	lsls	r5, r1, #26
 80022b2:	d566      	bpl.n	8002382 <HAL_UART_IRQHandler+0xe6>
}
 80022b4:	b002      	add	sp, #8
 80022b6:	e8bd 4070 	ldmia.w	sp!, {r4, r5, r6, lr}
      UART_Receive_IT(huart);
 80022ba:	f7ff bf94 	b.w	80021e6 <UART_Receive_IT.isra.0>
  if ((errorflags != RESET) && (((cr3its & USART_CR3_EIE) != RESET)
 80022be:	f005 0001 	and.w	r0, r5, #1
                                || ((cr1its & (USART_CR1_RXNEIE | USART_CR1_PEIE)) != RESET)))
 80022c2:	f401 7590 	and.w	r5, r1, #288	; 0x120
 80022c6:	4305      	orrs	r5, r0
 80022c8:	d05b      	beq.n	8002382 <HAL_UART_IRQHandler+0xe6>
    if (((isrflags & USART_SR_PE) != RESET) && ((cr1its & USART_CR1_PEIE) != RESET))
 80022ca:	07d6      	lsls	r6, r2, #31
 80022cc:	d505      	bpl.n	80022da <HAL_UART_IRQHandler+0x3e>
 80022ce:	05cd      	lsls	r5, r1, #23
      huart->ErrorCode |= HAL_UART_ERROR_PE;
 80022d0:	bf42      	ittt	mi
 80022d2:	6c63      	ldrmi	r3, [r4, #68]	; 0x44
 80022d4:	f043 0301 	orrmi.w	r3, r3, #1
 80022d8:	6463      	strmi	r3, [r4, #68]	; 0x44
    if (((isrflags & USART_SR_NE) != RESET) && ((cr3its & USART_CR3_EIE) != RESET))
 80022da:	0753      	lsls	r3, r2, #29
 80022dc:	d504      	bpl.n	80022e8 <HAL_UART_IRQHandler+0x4c>
 80022de:	b118      	cbz	r0, 80022e8 <HAL_UART_IRQHandler+0x4c>
      huart->ErrorCode |= HAL_UART_ERROR_NE;
 80022e0:	6c63      	ldr	r3, [r4, #68]	; 0x44
 80022e2:	f043 0302 	orr.w	r3, r3, #2
 80022e6:	6463      	str	r3, [r4, #68]	; 0x44
    if (((isrflags & USART_SR_FE) != RESET) && ((cr3its & USART_CR3_EIE) != RESET))
 80022e8:	0796      	lsls	r6, r2, #30
 80022ea:	d504      	bpl.n	80022f6 <HAL_UART_IRQHandler+0x5a>
 80022ec:	b118      	cbz	r0, 80022f6 <HAL_UART_IRQHandler+0x5a>
      huart->ErrorCode |= HAL_UART_ERROR_FE;
 80022ee:	6c63      	ldr	r3, [r4, #68]	; 0x44
 80022f0:	f043 0304 	orr.w	r3, r3, #4
 80022f4:	6463      	str	r3, [r4, #68]	; 0x44
    if (((isrflags & USART_SR_ORE) != RESET) && (((cr1its & USART_CR1_RXNEIE) != RESET)
 80022f6:	0715      	lsls	r5, r2, #28
 80022f8:	d507      	bpl.n	800230a <HAL_UART_IRQHandler+0x6e>
 80022fa:	f001 0320 	and.w	r3, r1, #32
 80022fe:	4303      	orrs	r3, r0
      huart->ErrorCode |= HAL_UART_ERROR_ORE;
 8002300:	bf1e      	ittt	ne
 8002302:	6c63      	ldrne	r3, [r4, #68]	; 0x44
 8002304:	f043 0308 	orrne.w	r3, r3, #8
 8002308:	6463      	strne	r3, [r4, #68]	; 0x44
    if (huart->ErrorCode != HAL_UART_ERROR_NONE)
 800230a:	6c63      	ldr	r3, [r4, #68]	; 0x44
 800230c:	2b00      	cmp	r3, #0
 800230e:	d032      	beq.n	8002376 <HAL_UART_IRQHandler+0xda>
      if (((isrflags & USART_SR_RXNE) != RESET) && ((cr1its & USART_CR1_RXNEIE) != RESET))
 8002310:	0692      	lsls	r2, r2, #26
 8002312:	d504      	bpl.n	800231e <HAL_UART_IRQHandler+0x82>
 8002314:	068b      	lsls	r3, r1, #26
 8002316:	d502      	bpl.n	800231e <HAL_UART_IRQHandler+0x82>
        UART_Receive_IT(huart);
 8002318:	4620      	mov	r0, r4
 800231a:	f7ff ff64 	bl	80021e6 <UART_Receive_IT.isra.0>
      dmarequest = HAL_IS_BIT_SET(huart->Instance->CR3, USART_CR3_DMAR);
 800231e:	6826      	ldr	r6, [r4, #0]
        UART_EndRxTransfer(huart);
 8002320:	4620      	mov	r0, r4
      dmarequest = HAL_IS_BIT_SET(huart->Instance->CR3, USART_CR3_DMAR);
 8002322:	6973      	ldr	r3, [r6, #20]
      if (((huart->ErrorCode & HAL_UART_ERROR_ORE) != RESET) || dmarequest)
 8002324:	6c62      	ldr	r2, [r4, #68]	; 0x44
      dmarequest = HAL_IS_BIT_SET(huart->Instance->CR3, USART_CR3_DMAR);
 8002326:	f003 0340 	and.w	r3, r3, #64	; 0x40
      if (((huart->ErrorCode & HAL_UART_ERROR_ORE) != RESET) || dmarequest)
 800232a:	f002 0208 	and.w	r2, r2, #8
 800232e:	ea53 0502 	orrs.w	r5, r3, r2
 8002332:	d022      	beq.n	800237a <HAL_UART_IRQHandler+0xde>
        UART_EndRxTransfer(huart);
 8002334:	f7ff fe34 	bl	8001fa0 <UART_EndRxTransfer>
        if (HAL_IS_BIT_SET(huart->Instance->CR3, USART_CR3_DMAR))
 8002338:	6973      	ldr	r3, [r6, #20]
 800233a:	065e      	lsls	r6, r3, #25
 800233c:	d518      	bpl.n	8002370 <HAL_UART_IRQHandler+0xd4>
          ATOMIC_CLEAR_BIT(huart->Instance->CR3, USART_CR3_DMAR);
 800233e:	6822      	ldr	r2, [r4, #0]
   __ASM volatile ("ldrex %0, %1" : "=r" (result) : "Q" (*addr) );
 8002340:	f102 0314 	add.w	r3, r2, #20
 8002344:	e853 3f00 	ldrex	r3, [r3]
 8002348:	f023 0340 	bic.w	r3, r3, #64	; 0x40
   __ASM volatile ("strex %0, %2, %1" : "=&r" (result), "=Q" (*addr) : "r" (value) );
 800234c:	3214      	adds	r2, #20
 800234e:	e842 3100 	strex	r1, r3, [r2]
 8002352:	2900      	cmp	r1, #0
 8002354:	d1f3      	bne.n	800233e <HAL_UART_IRQHandler+0xa2>
          if (huart->hdmarx != NULL)
 8002356:	6be0      	ldr	r0, [r4, #60]	; 0x3c
 8002358:	b150      	cbz	r0, 8002370 <HAL_UART_IRQHandler+0xd4>
            huart->hdmarx->XferAbortCallback = UART_DMAAbortOnError;
 800235a:	4b74      	ldr	r3, [pc, #464]	; (800252c <HAL_UART_IRQHandler+0x290>)
 800235c:	6343      	str	r3, [r0, #52]	; 0x34
            if (HAL_DMA_Abort_IT(huart->hdmarx) != HAL_OK)
 800235e:	f7ff fa77 	bl	8001850 <HAL_DMA_Abort_IT>
 8002362:	b140      	cbz	r0, 8002376 <HAL_UART_IRQHandler+0xda>
              huart->hdmarx->XferAbortCallback(huart->hdmarx);
 8002364:	6be0      	ldr	r0, [r4, #60]	; 0x3c
 8002366:	6b43      	ldr	r3, [r0, #52]	; 0x34
}
 8002368:	b002      	add	sp, #8
 800236a:	e8bd 4070 	ldmia.w	sp!, {r4, r5, r6, lr}
              huart->hdmarx->XferAbortCallback(huart->hdmarx);
 800236e:	4718      	bx	r3
            HAL_UART_ErrorCallback(huart);
 8002370:	4620      	mov	r0, r4
 8002372:	f7ff ff2e 	bl	80021d2 <HAL_UART_ErrorCallback>
}
 8002376:	b002      	add	sp, #8
 8002378:	bd70      	pop	{r4, r5, r6, pc}
        HAL_UART_ErrorCallback(huart);
 800237a:	f7ff ff2a 	bl	80021d2 <HAL_UART_ErrorCallback>
        huart->ErrorCode = HAL_UART_ERROR_NONE;
 800237e:	6465      	str	r5, [r4, #68]	; 0x44
 8002380:	e7f9      	b.n	8002376 <HAL_UART_IRQHandler+0xda>
  if ((huart->ReceptionType == HAL_UART_RECEPTION_TOIDLE)
 8002382:	6b20      	ldr	r0, [r4, #48]	; 0x30
 8002384:	2801      	cmp	r0, #1
 8002386:	f040 8094 	bne.w	80024b2 <HAL_UART_IRQHandler+0x216>
      && ((isrflags & USART_SR_IDLE) != 0U)
 800238a:	06d5      	lsls	r5, r2, #27
 800238c:	f140 8091 	bpl.w	80024b2 <HAL_UART_IRQHandler+0x216>
      && ((cr1its & USART_SR_IDLE) != 0U))
 8002390:	06c8      	lsls	r0, r1, #27
 8002392:	f140 808e 	bpl.w	80024b2 <HAL_UART_IRQHandler+0x216>
    __HAL_UART_CLEAR_IDLEFLAG(huart);
 8002396:	2200      	movs	r2, #0
 8002398:	9201      	str	r2, [sp, #4]
 800239a:	681a      	ldr	r2, [r3, #0]
 800239c:	9201      	str	r2, [sp, #4]
 800239e:	685a      	ldr	r2, [r3, #4]
 80023a0:	9201      	str	r2, [sp, #4]
 80023a2:	9a01      	ldr	r2, [sp, #4]
    if (HAL_IS_BIT_SET(huart->Instance->CR3, USART_CR3_DMAR))
 80023a4:	695a      	ldr	r2, [r3, #20]
 80023a6:	0652      	lsls	r2, r2, #25
 80023a8:	d54d      	bpl.n	8002446 <HAL_UART_IRQHandler+0x1aa>
      uint16_t nb_remaining_rx_data = (uint16_t) __HAL_DMA_GET_COUNTER(huart->hdmarx);
 80023aa:	6be1      	ldr	r1, [r4, #60]	; 0x3c
 80023ac:	680a      	ldr	r2, [r1, #0]
 80023ae:	6852      	ldr	r2, [r2, #4]
 80023b0:	b292      	uxth	r2, r2
      if ((nb_remaining_rx_data > 0U)
 80023b2:	2a00      	cmp	r2, #0
 80023b4:	d0df      	beq.n	8002376 <HAL_UART_IRQHandler+0xda>
          && (nb_remaining_rx_data < huart->RxXferSize))
 80023b6:	8da0      	ldrh	r0, [r4, #44]	; 0x2c
 80023b8:	4290      	cmp	r0, r2
 80023ba:	d9dc      	bls.n	8002376 <HAL_UART_IRQHandler+0xda>
        huart->RxXferCount = nb_remaining_rx_data;
 80023bc:	85e2      	strh	r2, [r4, #46]	; 0x2e
        if (huart->hdmarx->Init.Mode != DMA_CIRCULAR)
 80023be:	698a      	ldr	r2, [r1, #24]
 80023c0:	2a20      	cmp	r2, #32
 80023c2:	d036      	beq.n	8002432 <HAL_UART_IRQHandler+0x196>
   __ASM volatile ("ldrex %0, %1" : "=r" (result) : "Q" (*addr) );
 80023c4:	f103 020c 	add.w	r2, r3, #12
 80023c8:	e852 2f00 	ldrex	r2, [r2]
          ATOMIC_CLEAR_BIT(huart->Instance->CR1, USART_CR1_PEIE);
 80023cc:	f422 7280 	bic.w	r2, r2, #256	; 0x100
   __ASM volatile ("strex %0, %2, %1" : "=&r" (result), "=Q" (*addr) : "r" (value) );
 80023d0:	f103 000c 	add.w	r0, r3, #12
 80023d4:	e840 2100 	strex	r1, r2, [r0]
 80023d8:	2900      	cmp	r1, #0
 80023da:	d1f3      	bne.n	80023c4 <HAL_UART_IRQHandler+0x128>
   __ASM volatile ("ldrex %0, %1" : "=r" (result) : "Q" (*addr) );
 80023dc:	f103 0214 	add.w	r2, r3, #20
 80023e0:	e852 2f00 	ldrex	r2, [r2]
          ATOMIC_CLEAR_BIT(huart->Instance->CR3, USART_CR3_EIE);
 80023e4:	f022 0201 	bic.w	r2, r2, #1
   __ASM volatile ("strex %0, %2, %1" : "=&r" (result), "=Q" (*addr) : "r" (value) );
 80023e8:	f103 0014 	add.w	r0, r3, #20
 80023ec:	e840 2100 	strex	r1, r2, [r0]
 80023f0:	2900      	cmp	r1, #0
 80023f2:	d1f3      	bne.n	80023dc <HAL_UART_IRQHandler+0x140>
   __ASM volatile ("ldrex %0, %1" : "=r" (result) : "Q" (*addr) );
 80023f4:	f103 0214 	add.w	r2, r3, #20
 80023f8:	e852 2f00 	ldrex	r2, [r2]
          ATOMIC_CLEAR_BIT(huart->Instance->CR3, USART_CR3_DMAR);
 80023fc:	f022 0240 	bic.w	r2, r2, #64	; 0x40
   __ASM volatile ("strex %0, %2, %1" : "=&r" (result), "=Q" (*addr) : "r" (value) );
 8002400:	f103 0014 	add.w	r0, r3, #20
 8002404:	e840 2100 	strex	r1, r2, [r0]
 8002408:	2900      	cmp	r1, #0
 800240a:	d1f3      	bne.n	80023f4 <HAL_UART_IRQHandler+0x158>
          huart->RxState = HAL_UART_STATE_READY;
 800240c:	2220      	movs	r2, #32
 800240e:	f884 2042 	strb.w	r2, [r4, #66]	; 0x42
          huart->ReceptionType = HAL_UART_RECEPTION_STANDARD;
 8002412:	6321      	str	r1, [r4, #48]	; 0x30
   __ASM volatile ("ldrex %0, %1" : "=r" (result) : "Q" (*addr) );
 8002414:	f103 020c 	add.w	r2, r3, #12
 8002418:	e852 2f00 	ldrex	r2, [r2]
          ATOMIC_CLEAR_BIT(huart->Instance->CR1, USART_CR1_IDLEIE);
 800241c:	f022 0210 	bic.w	r2, r2, #16
   __ASM volatile ("strex %0, %2, %1" : "=&r" (result), "=Q" (*addr) : "r" (value) );
 8002420:	f103 000c 	add.w	r0, r3, #12
 8002424:	e840 2100 	strex	r1, r2, [r0]
 8002428:	2900      	cmp	r1, #0
 800242a:	d1f3      	bne.n	8002414 <HAL_UART_IRQHandler+0x178>
          (void)HAL_DMA_Abort(huart->hdmarx);
 800242c:	6be0      	ldr	r0, [r4, #60]	; 0x3c
 800242e:	f7ff f9ef 	bl	8001810 <HAL_DMA_Abort>
        huart->RxEventType = HAL_UART_RXEVENT_IDLE;
 8002432:	2302      	movs	r3, #2
 8002434:	6363      	str	r3, [r4, #52]	; 0x34
        HAL_UARTEx_RxEventCallback(huart, (huart->RxXferSize - huart->RxXferCount));
 8002436:	8de3      	ldrh	r3, [r4, #46]	; 0x2e
 8002438:	8da1      	ldrh	r1, [r4, #44]	; 0x2c
 800243a:	1ac9      	subs	r1, r1, r3
 800243c:	b289      	uxth	r1, r1
        HAL_UARTEx_RxEventCallback(huart, nb_rx_data);
 800243e:	4620      	mov	r0, r4
 8002440:	f7ff fed0 	bl	80021e4 <HAL_UARTEx_RxEventCallback>
 8002444:	e797      	b.n	8002376 <HAL_UART_IRQHandler+0xda>
      uint16_t nb_rx_data = huart->RxXferSize - huart->RxXferCount;
 8002446:	8de2      	ldrh	r2, [r4, #46]	; 0x2e
      if ((huart->RxXferCount > 0U)
 8002448:	8de0      	ldrh	r0, [r4, #46]	; 0x2e
      uint16_t nb_rx_data = huart->RxXferSize - huart->RxXferCount;
 800244a:	8da1      	ldrh	r1, [r4, #44]	; 0x2c
      if ((huart->RxXferCount > 0U)
 800244c:	b280      	uxth	r0, r0
      uint16_t nb_rx_data = huart->RxXferSize - huart->RxXferCount;
 800244e:	b292      	uxth	r2, r2
      if ((huart->RxXferCount > 0U)
 8002450:	2800      	cmp	r0, #0
 8002452:	d090      	beq.n	8002376 <HAL_UART_IRQHandler+0xda>
      uint16_t nb_rx_data = huart->RxXferSize - huart->RxXferCount;
 8002454:	1a89      	subs	r1, r1, r2
 8002456:	b289      	uxth	r1, r1
          && (nb_rx_data > 0U))
 8002458:	2900      	cmp	r1, #0
 800245a:	d08c      	beq.n	8002376 <HAL_UART_IRQHandler+0xda>
   __ASM volatile ("ldrex %0, %1" : "=r" (result) : "Q" (*addr) );
 800245c:	f103 020c 	add.w	r2, r3, #12
 8002460:	e852 2f00 	ldrex	r2, [r2]
        ATOMIC_CLEAR_BIT(huart->Instance->CR1, (USART_CR1_RXNEIE | USART_CR1_PEIE));
 8002464:	f422 7290 	bic.w	r2, r2, #288	; 0x120
   __ASM volatile ("strex %0, %2, %1" : "=&r" (result), "=Q" (*addr) : "r" (value) );
 8002468:	f103 050c 	add.w	r5, r3, #12
 800246c:	e845 2000 	strex	r0, r2, [r5]
 8002470:	2800      	cmp	r0, #0
 8002472:	d1f3      	bne.n	800245c <HAL_UART_IRQHandler+0x1c0>
   __ASM volatile ("ldrex %0, %1" : "=r" (result) : "Q" (*addr) );
 8002474:	f103 0214 	add.w	r2, r3, #20
 8002478:	e852 2f00 	ldrex	r2, [r2]
        ATOMIC_CLEAR_BIT(huart->Instance->CR3, USART_CR3_EIE);
 800247c:	f022 0201 	bic.w	r2, r2, #1
   __ASM volatile ("strex %0, %2, %1" : "=&r" (result), "=Q" (*addr) : "r" (value) );
 8002480:	f103 0514 	add.w	r5, r3, #20
 8002484:	e845 2000 	strex	r0, r2, [r5]
 8002488:	2800      	cmp	r0, #0
 800248a:	d1f3      	bne.n	8002474 <HAL_UART_IRQHandler+0x1d8>
        huart->RxState = HAL_UART_STATE_READY;
 800248c:	2220      	movs	r2, #32
 800248e:	f884 2042 	strb.w	r2, [r4, #66]	; 0x42
        huart->ReceptionType = HAL_UART_RECEPTION_STANDARD;
 8002492:	6320      	str	r0, [r4, #48]	; 0x30
   __ASM volatile ("ldrex %0, %1" : "=r" (result) : "Q" (*addr) );
 8002494:	f103 020c 	add.w	r2, r3, #12
 8002498:	e852 2f00 	ldrex	r2, [r2]
        ATOMIC_CLEAR_BIT(huart->Instance->CR1, USART_CR1_IDLEIE);
 800249c:	f022 0210 	bic.w	r2, r2, #16
   __ASM volatile ("strex %0, %2, %1" : "=&r" (result), "=Q" (*addr) : "r" (value) );
 80024a0:	f103 050c 	add.w	r5, r3, #12
 80024a4:	e845 2000 	strex	r0, r2, [r5]
 80024a8:	2800      	cmp	r0, #0
 80024aa:	d1f3      	bne.n	8002494 <HAL_UART_IRQHandler+0x1f8>
        huart->RxEventType = HAL_UART_RXEVENT_IDLE;
 80024ac:	2302      	movs	r3, #2
 80024ae:	6363      	str	r3, [r4, #52]	; 0x34
 80024b0:	e7c5      	b.n	800243e <HAL_UART_IRQHandler+0x1a2>
  if (((isrflags & USART_SR_TXE) != RESET) && ((cr1its & USART_CR1_TXEIE) != RESET))
 80024b2:	0616      	lsls	r6, r2, #24
 80024b4:	d528      	bpl.n	8002508 <HAL_UART_IRQHandler+0x26c>
 80024b6:	060d      	lsls	r5, r1, #24
 80024b8:	d526      	bpl.n	8002508 <HAL_UART_IRQHandler+0x26c>
  if (huart->gState == HAL_UART_STATE_BUSY_TX)
 80024ba:	f894 2041 	ldrb.w	r2, [r4, #65]	; 0x41
 80024be:	2a21      	cmp	r2, #33	; 0x21
 80024c0:	f47f af59 	bne.w	8002376 <HAL_UART_IRQHandler+0xda>
    if ((huart->Init.WordLength == UART_WORDLENGTH_9B) && (huart->Init.Parity == UART_PARITY_NONE))
 80024c4:	68a1      	ldr	r1, [r4, #8]
      tmp = (const uint16_t *) huart->pTxBuffPtr;
 80024c6:	6a22      	ldr	r2, [r4, #32]
    if ((huart->Init.WordLength == UART_WORDLENGTH_9B) && (huart->Init.Parity == UART_PARITY_NONE))
 80024c8:	f5b1 5f80 	cmp.w	r1, #4096	; 0x1000
 80024cc:	d117      	bne.n	80024fe <HAL_UART_IRQHandler+0x262>
 80024ce:	6921      	ldr	r1, [r4, #16]
 80024d0:	b9a9      	cbnz	r1, 80024fe <HAL_UART_IRQHandler+0x262>
      huart->Instance->DR = (uint16_t)(*tmp & (uint16_t)0x01FF);
 80024d2:	f832 1b02 	ldrh.w	r1, [r2], #2
 80024d6:	f3c1 0108 	ubfx	r1, r1, #0, #9
 80024da:	6059      	str	r1, [r3, #4]
      huart->pTxBuffPtr += 2U;
 80024dc:	6222      	str	r2, [r4, #32]
    if (--huart->TxXferCount == 0U)
 80024de:	8ce2      	ldrh	r2, [r4, #38]	; 0x26
 80024e0:	3a01      	subs	r2, #1
 80024e2:	b292      	uxth	r2, r2
 80024e4:	84e2      	strh	r2, [r4, #38]	; 0x26
 80024e6:	2a00      	cmp	r2, #0
 80024e8:	f47f af45 	bne.w	8002376 <HAL_UART_IRQHandler+0xda>
      __HAL_UART_DISABLE_IT(huart, UART_IT_TXE);
 80024ec:	68da      	ldr	r2, [r3, #12]
 80024ee:	f022 0280 	bic.w	r2, r2, #128	; 0x80
 80024f2:	60da      	str	r2, [r3, #12]
      __HAL_UART_ENABLE_IT(huart, UART_IT_TC);
 80024f4:	68da      	ldr	r2, [r3, #12]
 80024f6:	f042 0240 	orr.w	r2, r2, #64	; 0x40
 80024fa:	60da      	str	r2, [r3, #12]
 80024fc:	e73b      	b.n	8002376 <HAL_UART_IRQHandler+0xda>
      huart->Instance->DR = (uint8_t)(*huart->pTxBuffPtr++ & (uint8_t)0x00FF);
 80024fe:	1c51      	adds	r1, r2, #1
 8002500:	6221      	str	r1, [r4, #32]
 8002502:	7812      	ldrb	r2, [r2, #0]
 8002504:	605a      	str	r2, [r3, #4]
 8002506:	e7ea      	b.n	80024de <HAL_UART_IRQHandler+0x242>
  if (((isrflags & USART_SR_TC) != RESET) && ((cr1its & USART_CR1_TCIE) != RESET))
 8002508:	0650      	lsls	r0, r2, #25
 800250a:	f57f af34 	bpl.w	8002376 <HAL_UART_IRQHandler+0xda>
 800250e:	064a      	lsls	r2, r1, #25
 8002510:	f57f af31 	bpl.w	8002376 <HAL_UART_IRQHandler+0xda>
  __HAL_UART_DISABLE_IT(huart, UART_IT_TC);
 8002514:	68da      	ldr	r2, [r3, #12]
  HAL_UART_TxCpltCallback(huart);
 8002516:	4620      	mov	r0, r4
  __HAL_UART_DISABLE_IT(huart, UART_IT_TC);
 8002518:	f022 0240 	bic.w	r2, r2, #64	; 0x40
 800251c:	60da      	str	r2, [r3, #12]
  huart->gState = HAL_UART_STATE_READY;
 800251e:	2320      	movs	r3, #32
 8002520:	f884 3041 	strb.w	r3, [r4, #65]	; 0x41
  HAL_UART_TxCpltCallback(huart);
 8002524:	f7ff fe54 	bl	80021d0 <HAL_UART_TxCpltCallback>
  return HAL_OK;
 8002528:	e725      	b.n	8002376 <HAL_UART_IRQHandler+0xda>
 800252a:	bf00      	nop
 800252c:	080021d5 	.word	0x080021d5

08002530 <UART_Start_Receive_IT>:
  huart->ErrorCode = HAL_UART_ERROR_NONE;
 8002530:	2300      	movs	r3, #0
  huart->RxXferCount = Size;
 8002532:	85c2      	strh	r2, [r0, #46]	; 0x2e
  huart->ErrorCode = HAL_UART_ERROR_NONE;
 8002534:	6443      	str	r3, [r0, #68]	; 0x44
  huart->RxState = HAL_UART_STATE_BUSY_RX;
 8002536:	2322      	movs	r3, #34	; 0x22
  huart->RxXferSize = Size;
 8002538:	8582      	strh	r2, [r0, #44]	; 0x2c
  if (huart->Init.Parity != UART_PARITY_NONE)
 800253a:	6902      	ldr	r2, [r0, #16]
  huart->RxState = HAL_UART_STATE_BUSY_RX;
 800253c:	f880 3042 	strb.w	r3, [r0, #66]	; 0x42
  huart->pRxBuffPtr = pData;
 8002540:	6281      	str	r1, [r0, #40]	; 0x28
    __HAL_UART_ENABLE_IT(huart, UART_IT_PE);
 8002542:	6803      	ldr	r3, [r0, #0]
  if (huart->Init.Parity != UART_PARITY_NONE)
 8002544:	b11a      	cbz	r2, 800254e <UART_Start_Receive_IT+0x1e>
    __HAL_UART_ENABLE_IT(huart, UART_IT_PE);
 8002546:	68da      	ldr	r2, [r3, #12]
 8002548:	f442 7280 	orr.w	r2, r2, #256	; 0x100
 800254c:	60da      	str	r2, [r3, #12]
  __HAL_UART_ENABLE_IT(huart, UART_IT_ERR);
 800254e:	695a      	ldr	r2, [r3, #20]
}
 8002550:	2000      	movs	r0, #0
  __HAL_UART_ENABLE_IT(huart, UART_IT_ERR);
 8002552:	f042 0201 	orr.w	r2, r2, #1
 8002556:	615a      	str	r2, [r3, #20]
  __HAL_UART_ENABLE_IT(huart, UART_IT_RXNE);
 8002558:	68da      	ldr	r2, [r3, #12]
 800255a:	f042 0220 	orr.w	r2, r2, #32
 800255e:	60da      	str	r2, [r3, #12]
}
 8002560:	4770      	bx	lr

08002562 <HAL_UART_Receive_IT>:
{
 8002562:	b470      	push	{r4, r5, r6}
  if (huart->RxState == HAL_UART_STATE_READY)
 8002564:	f890 6042 	ldrb.w	r6, [r0, #66]	; 0x42
 8002568:	2e20      	cmp	r6, #32
 800256a:	d106      	bne.n	800257a <HAL_UART_Receive_IT+0x18>
    if ((pData == NULL) || (Size == 0U))
 800256c:	b141      	cbz	r1, 8002580 <HAL_UART_Receive_IT+0x1e>
 800256e:	b13a      	cbz	r2, 8002580 <HAL_UART_Receive_IT+0x1e>
    huart->ReceptionType = HAL_UART_RECEPTION_STANDARD;
 8002570:	2400      	movs	r4, #0
 8002572:	6304      	str	r4, [r0, #48]	; 0x30
}
 8002574:	bc70      	pop	{r4, r5, r6}
    return (UART_Start_Receive_IT(huart, pData, Size));
 8002576:	f7ff bfdb 	b.w	8002530 <UART_Start_Receive_IT>
    return HAL_BUSY;
 800257a:	2002      	movs	r0, #2
}
 800257c:	bc70      	pop	{r4, r5, r6}
 800257e:	4770      	bx	lr
      return HAL_ERROR;
 8002580:	2001      	movs	r0, #1
 8002582:	e7fb      	b.n	800257c <HAL_UART_Receive_IT+0x1a>

08002584 <__cvt>:
 8002584:	2b00      	cmp	r3, #0
 8002586:	e92d 47f0 	stmdb	sp!, {r4, r5, r6, r7, r8, r9, sl, lr}
 800258a:	461f      	mov	r7, r3
 800258c:	bfbb      	ittet	lt
 800258e:	f103 4300 	addlt.w	r3, r3, #2147483648	; 0x80000000
 8002592:	461f      	movlt	r7, r3
 8002594:	2300      	movge	r3, #0
 8002596:	232d      	movlt	r3, #45	; 0x2d
 8002598:	b088      	sub	sp, #32
 800259a:	4614      	mov	r4, r2
 800259c:	9a12      	ldr	r2, [sp, #72]	; 0x48
 800259e:	9d10      	ldr	r5, [sp, #64]	; 0x40
 80025a0:	7013      	strb	r3, [r2, #0]
 80025a2:	9b14      	ldr	r3, [sp, #80]	; 0x50
 80025a4:	f8dd a04c 	ldr.w	sl, [sp, #76]	; 0x4c
 80025a8:	f023 0820 	bic.w	r8, r3, #32
 80025ac:	f1b8 0f46 	cmp.w	r8, #70	; 0x46
 80025b0:	d005      	beq.n	80025be <__cvt+0x3a>
 80025b2:	f1b8 0f45 	cmp.w	r8, #69	; 0x45
 80025b6:	d100      	bne.n	80025ba <__cvt+0x36>
 80025b8:	3501      	adds	r5, #1
 80025ba:	2302      	movs	r3, #2
 80025bc:	e000      	b.n	80025c0 <__cvt+0x3c>
 80025be:	2303      	movs	r3, #3
 80025c0:	aa07      	add	r2, sp, #28
 80025c2:	9204      	str	r2, [sp, #16]
 80025c4:	aa06      	add	r2, sp, #24
 80025c6:	e9cd a202 	strd	sl, r2, [sp, #8]
 80025ca:	e9cd 3500 	strd	r3, r5, [sp]
 80025ce:	4622      	mov	r2, r4
 80025d0:	463b      	mov	r3, r7
 80025d2:	f001 f989 	bl	80038e8 <_dtoa_r>
 80025d6:	f1b8 0f47 	cmp.w	r8, #71	; 0x47
 80025da:	4606      	mov	r6, r0
 80025dc:	d102      	bne.n	80025e4 <__cvt+0x60>
 80025de:	9b11      	ldr	r3, [sp, #68]	; 0x44
 80025e0:	07db      	lsls	r3, r3, #31
 80025e2:	d522      	bpl.n	800262a <__cvt+0xa6>
 80025e4:	f1b8 0f46 	cmp.w	r8, #70	; 0x46
 80025e8:	eb06 0905 	add.w	r9, r6, r5
 80025ec:	d110      	bne.n	8002610 <__cvt+0x8c>
 80025ee:	7833      	ldrb	r3, [r6, #0]
 80025f0:	2b30      	cmp	r3, #48	; 0x30
 80025f2:	d10a      	bne.n	800260a <__cvt+0x86>
 80025f4:	2200      	movs	r2, #0
 80025f6:	2300      	movs	r3, #0
 80025f8:	4620      	mov	r0, r4
 80025fa:	4639      	mov	r1, r7
 80025fc:	f7fe f9d4 	bl	80009a8 <__aeabi_dcmpeq>
 8002600:	b918      	cbnz	r0, 800260a <__cvt+0x86>
 8002602:	f1c5 0501 	rsb	r5, r5, #1
 8002606:	f8ca 5000 	str.w	r5, [sl]
 800260a:	f8da 3000 	ldr.w	r3, [sl]
 800260e:	4499      	add	r9, r3
 8002610:	2200      	movs	r2, #0
 8002612:	2300      	movs	r3, #0
 8002614:	4620      	mov	r0, r4
 8002616:	4639      	mov	r1, r7
 8002618:	f7fe f9c6 	bl	80009a8 <__aeabi_dcmpeq>
 800261c:	b108      	cbz	r0, 8002622 <__cvt+0x9e>
 800261e:	f8cd 901c 	str.w	r9, [sp, #28]
 8002622:	2230      	movs	r2, #48	; 0x30
 8002624:	9b07      	ldr	r3, [sp, #28]
 8002626:	454b      	cmp	r3, r9
 8002628:	d307      	bcc.n	800263a <__cvt+0xb6>
 800262a:	4630      	mov	r0, r6
 800262c:	9b07      	ldr	r3, [sp, #28]
 800262e:	9a15      	ldr	r2, [sp, #84]	; 0x54
 8002630:	1b9b      	subs	r3, r3, r6
 8002632:	6013      	str	r3, [r2, #0]
 8002634:	b008      	add	sp, #32
 8002636:	e8bd 87f0 	ldmia.w	sp!, {r4, r5, r6, r7, r8, r9, sl, pc}
 800263a:	1c59      	adds	r1, r3, #1
 800263c:	9107      	str	r1, [sp, #28]
 800263e:	701a      	strb	r2, [r3, #0]
 8002640:	e7f0      	b.n	8002624 <__cvt+0xa0>

08002642 <__exponent>:
 8002642:	4603      	mov	r3, r0
 8002644:	b5f7      	push	{r0, r1, r2, r4, r5, r6, r7, lr}
 8002646:	2900      	cmp	r1, #0
 8002648:	f803 2b02 	strb.w	r2, [r3], #2
 800264c:	bfb6      	itet	lt
 800264e:	222d      	movlt	r2, #45	; 0x2d
 8002650:	222b      	movge	r2, #43	; 0x2b
 8002652:	4249      	neglt	r1, r1
 8002654:	2909      	cmp	r1, #9
 8002656:	7042      	strb	r2, [r0, #1]
 8002658:	dd2a      	ble.n	80026b0 <__exponent+0x6e>
 800265a:	f10d 0207 	add.w	r2, sp, #7
 800265e:	4617      	mov	r7, r2
 8002660:	260a      	movs	r6, #10
 8002662:	fb91 f5f6 	sdiv	r5, r1, r6
 8002666:	4694      	mov	ip, r2
 8002668:	fb06 1415 	mls	r4, r6, r5, r1
 800266c:	3430      	adds	r4, #48	; 0x30
 800266e:	f80c 4c01 	strb.w	r4, [ip, #-1]
 8002672:	460c      	mov	r4, r1
 8002674:	2c63      	cmp	r4, #99	; 0x63
 8002676:	4629      	mov	r1, r5
 8002678:	f102 32ff 	add.w	r2, r2, #4294967295
 800267c:	dcf1      	bgt.n	8002662 <__exponent+0x20>
 800267e:	3130      	adds	r1, #48	; 0x30
 8002680:	f1ac 0402 	sub.w	r4, ip, #2
 8002684:	f802 1c01 	strb.w	r1, [r2, #-1]
 8002688:	4622      	mov	r2, r4
 800268a:	1c41      	adds	r1, r0, #1
 800268c:	42ba      	cmp	r2, r7
 800268e:	d30a      	bcc.n	80026a6 <__exponent+0x64>
 8002690:	f10d 0209 	add.w	r2, sp, #9
 8002694:	eba2 020c 	sub.w	r2, r2, ip
 8002698:	42bc      	cmp	r4, r7
 800269a:	bf88      	it	hi
 800269c:	2200      	movhi	r2, #0
 800269e:	4413      	add	r3, r2
 80026a0:	1a18      	subs	r0, r3, r0
 80026a2:	b003      	add	sp, #12
 80026a4:	bdf0      	pop	{r4, r5, r6, r7, pc}
 80026a6:	f812 5b01 	ldrb.w	r5, [r2], #1
 80026aa:	f801 5f01 	strb.w	r5, [r1, #1]!
 80026ae:	e7ed      	b.n	800268c <__exponent+0x4a>
 80026b0:	2330      	movs	r3, #48	; 0x30
 80026b2:	3130      	adds	r1, #48	; 0x30
 80026b4:	7083      	strb	r3, [r0, #2]
 80026b6:	70c1      	strb	r1, [r0, #3]
 80026b8:	1d03      	adds	r3, r0, #4
 80026ba:	e7f1      	b.n	80026a0 <__exponent+0x5e>

080026bc <_printf_float>:
 80026bc:	e92d 4ff0 	stmdb	sp!, {r4, r5, r6, r7, r8, r9, sl, fp, lr}
 80026c0:	b091      	sub	sp, #68	; 0x44
 80026c2:	460c      	mov	r4, r1
 80026c4:	f8dd 8068 	ldr.w	r8, [sp, #104]	; 0x68
 80026c8:	4616      	mov	r6, r2
 80026ca:	461f      	mov	r7, r3
 80026cc:	4605      	mov	r5, r0
 80026ce:	f000 fff5 	bl	80036bc <_localeconv_r>
 80026d2:	6803      	ldr	r3, [r0, #0]
 80026d4:	4618      	mov	r0, r3
 80026d6:	9309      	str	r3, [sp, #36]	; 0x24
 80026d8:	f7fd fd3a 	bl	8000150 <strlen>
 80026dc:	2300      	movs	r3, #0
 80026de:	930e      	str	r3, [sp, #56]	; 0x38
 80026e0:	f8d8 3000 	ldr.w	r3, [r8]
 80026e4:	900a      	str	r0, [sp, #40]	; 0x28
 80026e6:	3307      	adds	r3, #7
 80026e8:	f023 0307 	bic.w	r3, r3, #7
 80026ec:	f103 0208 	add.w	r2, r3, #8
 80026f0:	f894 9018 	ldrb.w	r9, [r4, #24]
 80026f4:	f8d4 b000 	ldr.w	fp, [r4]
 80026f8:	f8c8 2000 	str.w	r2, [r8]
 80026fc:	e9d3 a800 	ldrd	sl, r8, [r3]
 8002700:	4652      	mov	r2, sl
 8002702:	4643      	mov	r3, r8
 8002704:	e9c4 2312 	strd	r2, r3, [r4, #72]	; 0x48
 8002708:	f028 4300 	bic.w	r3, r8, #2147483648	; 0x80000000
 800270c:	930b      	str	r3, [sp, #44]	; 0x2c
 800270e:	f04f 32ff 	mov.w	r2, #4294967295
 8002712:	4650      	mov	r0, sl
 8002714:	4b9c      	ldr	r3, [pc, #624]	; (8002988 <_printf_float+0x2cc>)
 8002716:	990b      	ldr	r1, [sp, #44]	; 0x2c
 8002718:	f7fe f978 	bl	8000a0c <__aeabi_dcmpun>
 800271c:	bb70      	cbnz	r0, 800277c <_printf_float+0xc0>
 800271e:	f04f 32ff 	mov.w	r2, #4294967295
 8002722:	4650      	mov	r0, sl
 8002724:	4b98      	ldr	r3, [pc, #608]	; (8002988 <_printf_float+0x2cc>)
 8002726:	990b      	ldr	r1, [sp, #44]	; 0x2c
 8002728:	f7fe f952 	bl	80009d0 <__aeabi_dcmple>
 800272c:	bb30      	cbnz	r0, 800277c <_printf_float+0xc0>
 800272e:	2200      	movs	r2, #0
 8002730:	2300      	movs	r3, #0
 8002732:	4650      	mov	r0, sl
 8002734:	4641      	mov	r1, r8
 8002736:	f7fe f941 	bl	80009bc <__aeabi_dcmplt>
 800273a:	b110      	cbz	r0, 8002742 <_printf_float+0x86>
 800273c:	232d      	movs	r3, #45	; 0x2d
 800273e:	f884 3043 	strb.w	r3, [r4, #67]	; 0x43
 8002742:	4a92      	ldr	r2, [pc, #584]	; (800298c <_printf_float+0x2d0>)
 8002744:	4b92      	ldr	r3, [pc, #584]	; (8002990 <_printf_float+0x2d4>)
 8002746:	f1b9 0f47 	cmp.w	r9, #71	; 0x47
 800274a:	bf94      	ite	ls
 800274c:	4690      	movls	r8, r2
 800274e:	4698      	movhi	r8, r3
 8002750:	2303      	movs	r3, #3
 8002752:	f04f 0a00 	mov.w	sl, #0
 8002756:	6123      	str	r3, [r4, #16]
 8002758:	f02b 0304 	bic.w	r3, fp, #4
 800275c:	6023      	str	r3, [r4, #0]
 800275e:	4633      	mov	r3, r6
 8002760:	4621      	mov	r1, r4
 8002762:	4628      	mov	r0, r5
 8002764:	9700      	str	r7, [sp, #0]
 8002766:	aa0f      	add	r2, sp, #60	; 0x3c
 8002768:	f000 f9d6 	bl	8002b18 <_printf_common>
 800276c:	3001      	adds	r0, #1
 800276e:	f040 8090 	bne.w	8002892 <_printf_float+0x1d6>
 8002772:	f04f 30ff 	mov.w	r0, #4294967295
 8002776:	b011      	add	sp, #68	; 0x44
 8002778:	e8bd 8ff0 	ldmia.w	sp!, {r4, r5, r6, r7, r8, r9, sl, fp, pc}
 800277c:	4652      	mov	r2, sl
 800277e:	4643      	mov	r3, r8
 8002780:	4650      	mov	r0, sl
 8002782:	4641      	mov	r1, r8
 8002784:	f7fe f942 	bl	8000a0c <__aeabi_dcmpun>
 8002788:	b148      	cbz	r0, 800279e <_printf_float+0xe2>
 800278a:	f1b8 0f00 	cmp.w	r8, #0
 800278e:	bfb8      	it	lt
 8002790:	232d      	movlt	r3, #45	; 0x2d
 8002792:	4a80      	ldr	r2, [pc, #512]	; (8002994 <_printf_float+0x2d8>)
 8002794:	bfb8      	it	lt
 8002796:	f884 3043 	strblt.w	r3, [r4, #67]	; 0x43
 800279a:	4b7f      	ldr	r3, [pc, #508]	; (8002998 <_printf_float+0x2dc>)
 800279c:	e7d3      	b.n	8002746 <_printf_float+0x8a>
 800279e:	6863      	ldr	r3, [r4, #4]
 80027a0:	f009 01df 	and.w	r1, r9, #223	; 0xdf
 80027a4:	1c5a      	adds	r2, r3, #1
 80027a6:	d142      	bne.n	800282e <_printf_float+0x172>
 80027a8:	2306      	movs	r3, #6
 80027aa:	6063      	str	r3, [r4, #4]
 80027ac:	2200      	movs	r2, #0
 80027ae:	9206      	str	r2, [sp, #24]
 80027b0:	aa0e      	add	r2, sp, #56	; 0x38
 80027b2:	e9cd 9204 	strd	r9, r2, [sp, #16]
 80027b6:	aa0d      	add	r2, sp, #52	; 0x34
 80027b8:	f44b 6380 	orr.w	r3, fp, #1024	; 0x400
 80027bc:	9203      	str	r2, [sp, #12]
 80027be:	f10d 0233 	add.w	r2, sp, #51	; 0x33
 80027c2:	e9cd 3201 	strd	r3, r2, [sp, #4]
 80027c6:	6023      	str	r3, [r4, #0]
 80027c8:	6863      	ldr	r3, [r4, #4]
 80027ca:	4652      	mov	r2, sl
 80027cc:	9300      	str	r3, [sp, #0]
 80027ce:	4628      	mov	r0, r5
 80027d0:	4643      	mov	r3, r8
 80027d2:	910b      	str	r1, [sp, #44]	; 0x2c
 80027d4:	f7ff fed6 	bl	8002584 <__cvt>
 80027d8:	990b      	ldr	r1, [sp, #44]	; 0x2c
 80027da:	4680      	mov	r8, r0
 80027dc:	2947      	cmp	r1, #71	; 0x47
 80027de:	990d      	ldr	r1, [sp, #52]	; 0x34
 80027e0:	d108      	bne.n	80027f4 <_printf_float+0x138>
 80027e2:	1cc8      	adds	r0, r1, #3
 80027e4:	db02      	blt.n	80027ec <_printf_float+0x130>
 80027e6:	6863      	ldr	r3, [r4, #4]
 80027e8:	4299      	cmp	r1, r3
 80027ea:	dd40      	ble.n	800286e <_printf_float+0x1b2>
 80027ec:	f1a9 0902 	sub.w	r9, r9, #2
 80027f0:	fa5f f989 	uxtb.w	r9, r9
 80027f4:	f1b9 0f65 	cmp.w	r9, #101	; 0x65
 80027f8:	d81f      	bhi.n	800283a <_printf_float+0x17e>
 80027fa:	464a      	mov	r2, r9
 80027fc:	3901      	subs	r1, #1
 80027fe:	f104 0050 	add.w	r0, r4, #80	; 0x50
 8002802:	910d      	str	r1, [sp, #52]	; 0x34
 8002804:	f7ff ff1d 	bl	8002642 <__exponent>
 8002808:	9a0e      	ldr	r2, [sp, #56]	; 0x38
 800280a:	4682      	mov	sl, r0
 800280c:	1813      	adds	r3, r2, r0
 800280e:	2a01      	cmp	r2, #1
 8002810:	6123      	str	r3, [r4, #16]
 8002812:	dc02      	bgt.n	800281a <_printf_float+0x15e>
 8002814:	6822      	ldr	r2, [r4, #0]
 8002816:	07d2      	lsls	r2, r2, #31
 8002818:	d501      	bpl.n	800281e <_printf_float+0x162>
 800281a:	3301      	adds	r3, #1
 800281c:	6123      	str	r3, [r4, #16]
 800281e:	f89d 3033 	ldrb.w	r3, [sp, #51]	; 0x33
 8002822:	2b00      	cmp	r3, #0
 8002824:	d09b      	beq.n	800275e <_printf_float+0xa2>
 8002826:	232d      	movs	r3, #45	; 0x2d
 8002828:	f884 3043 	strb.w	r3, [r4, #67]	; 0x43
 800282c:	e797      	b.n	800275e <_printf_float+0xa2>
 800282e:	2947      	cmp	r1, #71	; 0x47
 8002830:	d1bc      	bne.n	80027ac <_printf_float+0xf0>
 8002832:	2b00      	cmp	r3, #0
 8002834:	d1ba      	bne.n	80027ac <_printf_float+0xf0>
 8002836:	2301      	movs	r3, #1
 8002838:	e7b7      	b.n	80027aa <_printf_float+0xee>
 800283a:	f1b9 0f66 	cmp.w	r9, #102	; 0x66
 800283e:	d118      	bne.n	8002872 <_printf_float+0x1b6>
 8002840:	2900      	cmp	r1, #0
 8002842:	6863      	ldr	r3, [r4, #4]
 8002844:	dd0b      	ble.n	800285e <_printf_float+0x1a2>
 8002846:	6121      	str	r1, [r4, #16]
 8002848:	b913      	cbnz	r3, 8002850 <_printf_float+0x194>
 800284a:	6822      	ldr	r2, [r4, #0]
 800284c:	07d0      	lsls	r0, r2, #31
 800284e:	d502      	bpl.n	8002856 <_printf_float+0x19a>
 8002850:	3301      	adds	r3, #1
 8002852:	440b      	add	r3, r1
 8002854:	6123      	str	r3, [r4, #16]
 8002856:	f04f 0a00 	mov.w	sl, #0
 800285a:	65a1      	str	r1, [r4, #88]	; 0x58
 800285c:	e7df      	b.n	800281e <_printf_float+0x162>
 800285e:	b913      	cbnz	r3, 8002866 <_printf_float+0x1aa>
 8002860:	6822      	ldr	r2, [r4, #0]
 8002862:	07d2      	lsls	r2, r2, #31
 8002864:	d501      	bpl.n	800286a <_printf_float+0x1ae>
 8002866:	3302      	adds	r3, #2
 8002868:	e7f4      	b.n	8002854 <_printf_float+0x198>
 800286a:	2301      	movs	r3, #1
 800286c:	e7f2      	b.n	8002854 <_printf_float+0x198>
 800286e:	f04f 0967 	mov.w	r9, #103	; 0x67
 8002872:	9b0e      	ldr	r3, [sp, #56]	; 0x38
 8002874:	4299      	cmp	r1, r3
 8002876:	db05      	blt.n	8002884 <_printf_float+0x1c8>
 8002878:	6823      	ldr	r3, [r4, #0]
 800287a:	6121      	str	r1, [r4, #16]
 800287c:	07d8      	lsls	r0, r3, #31
 800287e:	d5ea      	bpl.n	8002856 <_printf_float+0x19a>
 8002880:	1c4b      	adds	r3, r1, #1
 8002882:	e7e7      	b.n	8002854 <_printf_float+0x198>
 8002884:	2900      	cmp	r1, #0
 8002886:	bfcc      	ite	gt
 8002888:	2201      	movgt	r2, #1
 800288a:	f1c1 0202 	rsble	r2, r1, #2
 800288e:	4413      	add	r3, r2
 8002890:	e7e0      	b.n	8002854 <_printf_float+0x198>
 8002892:	6823      	ldr	r3, [r4, #0]
 8002894:	055a      	lsls	r2, r3, #21
 8002896:	d407      	bmi.n	80028a8 <_printf_float+0x1ec>
 8002898:	6923      	ldr	r3, [r4, #16]
 800289a:	4642      	mov	r2, r8
 800289c:	4631      	mov	r1, r6
 800289e:	4628      	mov	r0, r5
 80028a0:	47b8      	blx	r7
 80028a2:	3001      	adds	r0, #1
 80028a4:	d12b      	bne.n	80028fe <_printf_float+0x242>
 80028a6:	e764      	b.n	8002772 <_printf_float+0xb6>
 80028a8:	f1b9 0f65 	cmp.w	r9, #101	; 0x65
 80028ac:	f240 80dd 	bls.w	8002a6a <_printf_float+0x3ae>
 80028b0:	e9d4 0112 	ldrd	r0, r1, [r4, #72]	; 0x48
 80028b4:	2200      	movs	r2, #0
 80028b6:	2300      	movs	r3, #0
 80028b8:	f7fe f876 	bl	80009a8 <__aeabi_dcmpeq>
 80028bc:	2800      	cmp	r0, #0
 80028be:	d033      	beq.n	8002928 <_printf_float+0x26c>
 80028c0:	2301      	movs	r3, #1
 80028c2:	4631      	mov	r1, r6
 80028c4:	4628      	mov	r0, r5
 80028c6:	4a35      	ldr	r2, [pc, #212]	; (800299c <_printf_float+0x2e0>)
 80028c8:	47b8      	blx	r7
 80028ca:	3001      	adds	r0, #1
 80028cc:	f43f af51 	beq.w	8002772 <_printf_float+0xb6>
 80028d0:	e9dd 230d 	ldrd	r2, r3, [sp, #52]	; 0x34
 80028d4:	429a      	cmp	r2, r3
 80028d6:	db02      	blt.n	80028de <_printf_float+0x222>
 80028d8:	6823      	ldr	r3, [r4, #0]
 80028da:	07d8      	lsls	r0, r3, #31
 80028dc:	d50f      	bpl.n	80028fe <_printf_float+0x242>
 80028de:	e9dd 2309 	ldrd	r2, r3, [sp, #36]	; 0x24
 80028e2:	4631      	mov	r1, r6
 80028e4:	4628      	mov	r0, r5
 80028e6:	47b8      	blx	r7
 80028e8:	3001      	adds	r0, #1
 80028ea:	f43f af42 	beq.w	8002772 <_printf_float+0xb6>
 80028ee:	f04f 0800 	mov.w	r8, #0
 80028f2:	f104 091a 	add.w	r9, r4, #26
 80028f6:	9b0e      	ldr	r3, [sp, #56]	; 0x38
 80028f8:	3b01      	subs	r3, #1
 80028fa:	4543      	cmp	r3, r8
 80028fc:	dc09      	bgt.n	8002912 <_printf_float+0x256>
 80028fe:	6823      	ldr	r3, [r4, #0]
 8002900:	079b      	lsls	r3, r3, #30
 8002902:	f100 8104 	bmi.w	8002b0e <_printf_float+0x452>
 8002906:	68e0      	ldr	r0, [r4, #12]
 8002908:	9b0f      	ldr	r3, [sp, #60]	; 0x3c
 800290a:	4298      	cmp	r0, r3
 800290c:	bfb8      	it	lt
 800290e:	4618      	movlt	r0, r3
 8002910:	e731      	b.n	8002776 <_printf_float+0xba>
 8002912:	2301      	movs	r3, #1
 8002914:	464a      	mov	r2, r9
 8002916:	4631      	mov	r1, r6
 8002918:	4628      	mov	r0, r5
 800291a:	47b8      	blx	r7
 800291c:	3001      	adds	r0, #1
 800291e:	f43f af28 	beq.w	8002772 <_printf_float+0xb6>
 8002922:	f108 0801 	add.w	r8, r8, #1
 8002926:	e7e6      	b.n	80028f6 <_printf_float+0x23a>
 8002928:	9b0d      	ldr	r3, [sp, #52]	; 0x34
 800292a:	2b00      	cmp	r3, #0
 800292c:	dc38      	bgt.n	80029a0 <_printf_float+0x2e4>
 800292e:	2301      	movs	r3, #1
 8002930:	4631      	mov	r1, r6
 8002932:	4628      	mov	r0, r5
 8002934:	4a19      	ldr	r2, [pc, #100]	; (800299c <_printf_float+0x2e0>)
 8002936:	47b8      	blx	r7
 8002938:	3001      	adds	r0, #1
 800293a:	f43f af1a 	beq.w	8002772 <_printf_float+0xb6>
 800293e:	e9dd 320d 	ldrd	r3, r2, [sp, #52]	; 0x34
 8002942:	4313      	orrs	r3, r2
 8002944:	d102      	bne.n	800294c <_printf_float+0x290>
 8002946:	6823      	ldr	r3, [r4, #0]
 8002948:	07d9      	lsls	r1, r3, #31
 800294a:	d5d8      	bpl.n	80028fe <_printf_float+0x242>
 800294c:	e9dd 2309 	ldrd	r2, r3, [sp, #36]	; 0x24
 8002950:	4631      	mov	r1, r6
 8002952:	4628      	mov	r0, r5
 8002954:	47b8      	blx	r7
 8002956:	3001      	adds	r0, #1
 8002958:	f43f af0b 	beq.w	8002772 <_printf_float+0xb6>
 800295c:	f04f 0900 	mov.w	r9, #0
 8002960:	f104 0a1a 	add.w	sl, r4, #26
 8002964:	9b0d      	ldr	r3, [sp, #52]	; 0x34
 8002966:	425b      	negs	r3, r3
 8002968:	454b      	cmp	r3, r9
 800296a:	dc01      	bgt.n	8002970 <_printf_float+0x2b4>
 800296c:	9b0e      	ldr	r3, [sp, #56]	; 0x38
 800296e:	e794      	b.n	800289a <_printf_float+0x1de>
 8002970:	2301      	movs	r3, #1
 8002972:	4652      	mov	r2, sl
 8002974:	4631      	mov	r1, r6
 8002976:	4628      	mov	r0, r5
 8002978:	47b8      	blx	r7
 800297a:	3001      	adds	r0, #1
 800297c:	f43f aef9 	beq.w	8002772 <_printf_float+0xb6>
 8002980:	f109 0901 	add.w	r9, r9, #1
 8002984:	e7ee      	b.n	8002964 <_printf_float+0x2a8>
 8002986:	bf00      	nop
 8002988:	7fefffff 	.word	0x7fefffff
 800298c:	08006ec5 	.word	0x08006ec5
 8002990:	08006ec9 	.word	0x08006ec9
 8002994:	08006ecd 	.word	0x08006ecd
 8002998:	08006ed1 	.word	0x08006ed1
 800299c:	08006ed5 	.word	0x08006ed5
 80029a0:	9a0e      	ldr	r2, [sp, #56]	; 0x38
 80029a2:	6da3      	ldr	r3, [r4, #88]	; 0x58
 80029a4:	429a      	cmp	r2, r3
 80029a6:	bfa8      	it	ge
 80029a8:	461a      	movge	r2, r3
 80029aa:	2a00      	cmp	r2, #0
 80029ac:	4691      	mov	r9, r2
 80029ae:	dc37      	bgt.n	8002a20 <_printf_float+0x364>
 80029b0:	f04f 0b00 	mov.w	fp, #0
 80029b4:	ea29 79e9 	bic.w	r9, r9, r9, asr #31
 80029b8:	f104 021a 	add.w	r2, r4, #26
 80029bc:	f8d4 a058 	ldr.w	sl, [r4, #88]	; 0x58
 80029c0:	ebaa 0309 	sub.w	r3, sl, r9
 80029c4:	455b      	cmp	r3, fp
 80029c6:	dc33      	bgt.n	8002a30 <_printf_float+0x374>
 80029c8:	e9dd 230d 	ldrd	r2, r3, [sp, #52]	; 0x34
 80029cc:	429a      	cmp	r2, r3
 80029ce:	db3b      	blt.n	8002a48 <_printf_float+0x38c>
 80029d0:	6823      	ldr	r3, [r4, #0]
 80029d2:	07da      	lsls	r2, r3, #31
 80029d4:	d438      	bmi.n	8002a48 <_printf_float+0x38c>
 80029d6:	e9dd 320d 	ldrd	r3, r2, [sp, #52]	; 0x34
 80029da:	eba2 0903 	sub.w	r9, r2, r3
 80029de:	eba2 020a 	sub.w	r2, r2, sl
 80029e2:	4591      	cmp	r9, r2
 80029e4:	bfa8      	it	ge
 80029e6:	4691      	movge	r9, r2
 80029e8:	f1b9 0f00 	cmp.w	r9, #0
 80029ec:	dc34      	bgt.n	8002a58 <_printf_float+0x39c>
 80029ee:	f04f 0800 	mov.w	r8, #0
 80029f2:	ea29 79e9 	bic.w	r9, r9, r9, asr #31
 80029f6:	f104 0a1a 	add.w	sl, r4, #26
 80029fa:	e9dd 230d 	ldrd	r2, r3, [sp, #52]	; 0x34
 80029fe:	1a9b      	subs	r3, r3, r2
 8002a00:	eba3 0309 	sub.w	r3, r3, r9
 8002a04:	4543      	cmp	r3, r8
 8002a06:	f77f af7a 	ble.w	80028fe <_printf_float+0x242>
 8002a0a:	2301      	movs	r3, #1
 8002a0c:	4652      	mov	r2, sl
 8002a0e:	4631      	mov	r1, r6
 8002a10:	4628      	mov	r0, r5
 8002a12:	47b8      	blx	r7
 8002a14:	3001      	adds	r0, #1
 8002a16:	f43f aeac 	beq.w	8002772 <_printf_float+0xb6>
 8002a1a:	f108 0801 	add.w	r8, r8, #1
 8002a1e:	e7ec      	b.n	80029fa <_printf_float+0x33e>
 8002a20:	4613      	mov	r3, r2
 8002a22:	4631      	mov	r1, r6
 8002a24:	4642      	mov	r2, r8
 8002a26:	4628      	mov	r0, r5
 8002a28:	47b8      	blx	r7
 8002a2a:	3001      	adds	r0, #1
 8002a2c:	d1c0      	bne.n	80029b0 <_printf_float+0x2f4>
 8002a2e:	e6a0      	b.n	8002772 <_printf_float+0xb6>
 8002a30:	2301      	movs	r3, #1
 8002a32:	4631      	mov	r1, r6
 8002a34:	4628      	mov	r0, r5
 8002a36:	920b      	str	r2, [sp, #44]	; 0x2c
 8002a38:	47b8      	blx	r7
 8002a3a:	3001      	adds	r0, #1
 8002a3c:	f43f ae99 	beq.w	8002772 <_printf_float+0xb6>
 8002a40:	9a0b      	ldr	r2, [sp, #44]	; 0x2c
 8002a42:	f10b 0b01 	add.w	fp, fp, #1
 8002a46:	e7b9      	b.n	80029bc <_printf_float+0x300>
 8002a48:	4631      	mov	r1, r6
 8002a4a:	e9dd 2309 	ldrd	r2, r3, [sp, #36]	; 0x24
 8002a4e:	4628      	mov	r0, r5
 8002a50:	47b8      	blx	r7
 8002a52:	3001      	adds	r0, #1
 8002a54:	d1bf      	bne.n	80029d6 <_printf_float+0x31a>
 8002a56:	e68c      	b.n	8002772 <_printf_float+0xb6>
 8002a58:	464b      	mov	r3, r9
 8002a5a:	4631      	mov	r1, r6
 8002a5c:	4628      	mov	r0, r5
 8002a5e:	eb08 020a 	add.w	r2, r8, sl
 8002a62:	47b8      	blx	r7
 8002a64:	3001      	adds	r0, #1
 8002a66:	d1c2      	bne.n	80029ee <_printf_float+0x332>
 8002a68:	e683      	b.n	8002772 <_printf_float+0xb6>
 8002a6a:	9a0e      	ldr	r2, [sp, #56]	; 0x38
 8002a6c:	2a01      	cmp	r2, #1
 8002a6e:	dc01      	bgt.n	8002a74 <_printf_float+0x3b8>
 8002a70:	07db      	lsls	r3, r3, #31
 8002a72:	d539      	bpl.n	8002ae8 <_printf_float+0x42c>
 8002a74:	2301      	movs	r3, #1
 8002a76:	4642      	mov	r2, r8
 8002a78:	4631      	mov	r1, r6
 8002a7a:	4628      	mov	r0, r5
 8002a7c:	47b8      	blx	r7
 8002a7e:	3001      	adds	r0, #1
 8002a80:	f43f ae77 	beq.w	8002772 <_printf_float+0xb6>
 8002a84:	e9dd 2309 	ldrd	r2, r3, [sp, #36]	; 0x24
 8002a88:	4631      	mov	r1, r6
 8002a8a:	4628      	mov	r0, r5
 8002a8c:	47b8      	blx	r7
 8002a8e:	3001      	adds	r0, #1
 8002a90:	f43f ae6f 	beq.w	8002772 <_printf_float+0xb6>
 8002a94:	e9d4 0112 	ldrd	r0, r1, [r4, #72]	; 0x48
 8002a98:	2200      	movs	r2, #0
 8002a9a:	2300      	movs	r3, #0
 8002a9c:	f8dd 9038 	ldr.w	r9, [sp, #56]	; 0x38
 8002aa0:	f7fd ff82 	bl	80009a8 <__aeabi_dcmpeq>
 8002aa4:	b9d8      	cbnz	r0, 8002ade <_printf_float+0x422>
 8002aa6:	f109 33ff 	add.w	r3, r9, #4294967295
 8002aaa:	f108 0201 	add.w	r2, r8, #1
 8002aae:	4631      	mov	r1, r6
 8002ab0:	4628      	mov	r0, r5
 8002ab2:	47b8      	blx	r7
 8002ab4:	3001      	adds	r0, #1
 8002ab6:	d10e      	bne.n	8002ad6 <_printf_float+0x41a>
 8002ab8:	e65b      	b.n	8002772 <_printf_float+0xb6>
 8002aba:	2301      	movs	r3, #1
 8002abc:	464a      	mov	r2, r9
 8002abe:	4631      	mov	r1, r6
 8002ac0:	4628      	mov	r0, r5
 8002ac2:	47b8      	blx	r7
 8002ac4:	3001      	adds	r0, #1
 8002ac6:	f43f ae54 	beq.w	8002772 <_printf_float+0xb6>
 8002aca:	f108 0801 	add.w	r8, r8, #1
 8002ace:	9b0e      	ldr	r3, [sp, #56]	; 0x38
 8002ad0:	3b01      	subs	r3, #1
 8002ad2:	4543      	cmp	r3, r8
 8002ad4:	dcf1      	bgt.n	8002aba <_printf_float+0x3fe>
 8002ad6:	4653      	mov	r3, sl
 8002ad8:	f104 0250 	add.w	r2, r4, #80	; 0x50
 8002adc:	e6de      	b.n	800289c <_printf_float+0x1e0>
 8002ade:	f04f 0800 	mov.w	r8, #0
 8002ae2:	f104 091a 	add.w	r9, r4, #26
 8002ae6:	e7f2      	b.n	8002ace <_printf_float+0x412>
 8002ae8:	2301      	movs	r3, #1
 8002aea:	4642      	mov	r2, r8
 8002aec:	e7df      	b.n	8002aae <_printf_float+0x3f2>
 8002aee:	2301      	movs	r3, #1
 8002af0:	464a      	mov	r2, r9
 8002af2:	4631      	mov	r1, r6
 8002af4:	4628      	mov	r0, r5
 8002af6:	47b8      	blx	r7
 8002af8:	3001      	adds	r0, #1
 8002afa:	f43f ae3a 	beq.w	8002772 <_printf_float+0xb6>
 8002afe:	f108 0801 	add.w	r8, r8, #1
 8002b02:	68e3      	ldr	r3, [r4, #12]
 8002b04:	990f      	ldr	r1, [sp, #60]	; 0x3c
 8002b06:	1a5b      	subs	r3, r3, r1
 8002b08:	4543      	cmp	r3, r8
 8002b0a:	dcf0      	bgt.n	8002aee <_printf_float+0x432>
 8002b0c:	e6fb      	b.n	8002906 <_printf_float+0x24a>
 8002b0e:	f04f 0800 	mov.w	r8, #0
 8002b12:	f104 0919 	add.w	r9, r4, #25
 8002b16:	e7f4      	b.n	8002b02 <_printf_float+0x446>

08002b18 <_printf_common>:
 8002b18:	e92d 47f0 	stmdb	sp!, {r4, r5, r6, r7, r8, r9, sl, lr}
 8002b1c:	4616      	mov	r6, r2
 8002b1e:	4699      	mov	r9, r3
 8002b20:	688a      	ldr	r2, [r1, #8]
 8002b22:	690b      	ldr	r3, [r1, #16]
 8002b24:	4607      	mov	r7, r0
 8002b26:	4293      	cmp	r3, r2
 8002b28:	bfb8      	it	lt
 8002b2a:	4613      	movlt	r3, r2
 8002b2c:	6033      	str	r3, [r6, #0]
 8002b2e:	f891 2043 	ldrb.w	r2, [r1, #67]	; 0x43
 8002b32:	460c      	mov	r4, r1
 8002b34:	f8dd 8020 	ldr.w	r8, [sp, #32]
 8002b38:	b10a      	cbz	r2, 8002b3e <_printf_common+0x26>
 8002b3a:	3301      	adds	r3, #1
 8002b3c:	6033      	str	r3, [r6, #0]
 8002b3e:	6823      	ldr	r3, [r4, #0]
 8002b40:	0699      	lsls	r1, r3, #26
 8002b42:	bf42      	ittt	mi
 8002b44:	6833      	ldrmi	r3, [r6, #0]
 8002b46:	3302      	addmi	r3, #2
 8002b48:	6033      	strmi	r3, [r6, #0]
 8002b4a:	6825      	ldr	r5, [r4, #0]
 8002b4c:	f015 0506 	ands.w	r5, r5, #6
 8002b50:	d106      	bne.n	8002b60 <_printf_common+0x48>
 8002b52:	f104 0a19 	add.w	sl, r4, #25
 8002b56:	68e3      	ldr	r3, [r4, #12]
 8002b58:	6832      	ldr	r2, [r6, #0]
 8002b5a:	1a9b      	subs	r3, r3, r2
 8002b5c:	42ab      	cmp	r3, r5
 8002b5e:	dc2b      	bgt.n	8002bb8 <_printf_common+0xa0>
 8002b60:	f894 2043 	ldrb.w	r2, [r4, #67]	; 0x43
 8002b64:	1e13      	subs	r3, r2, #0
 8002b66:	6822      	ldr	r2, [r4, #0]
 8002b68:	bf18      	it	ne
 8002b6a:	2301      	movne	r3, #1
 8002b6c:	0692      	lsls	r2, r2, #26
 8002b6e:	d430      	bmi.n	8002bd2 <_printf_common+0xba>
 8002b70:	4649      	mov	r1, r9
 8002b72:	4638      	mov	r0, r7
 8002b74:	f104 0243 	add.w	r2, r4, #67	; 0x43
 8002b78:	47c0      	blx	r8
 8002b7a:	3001      	adds	r0, #1
 8002b7c:	d023      	beq.n	8002bc6 <_printf_common+0xae>
 8002b7e:	6823      	ldr	r3, [r4, #0]
 8002b80:	6922      	ldr	r2, [r4, #16]
 8002b82:	f003 0306 	and.w	r3, r3, #6
 8002b86:	2b04      	cmp	r3, #4
 8002b88:	bf14      	ite	ne
 8002b8a:	2500      	movne	r5, #0
 8002b8c:	6833      	ldreq	r3, [r6, #0]
 8002b8e:	f04f 0600 	mov.w	r6, #0
 8002b92:	bf08      	it	eq
 8002b94:	68e5      	ldreq	r5, [r4, #12]
 8002b96:	f104 041a 	add.w	r4, r4, #26
 8002b9a:	bf08      	it	eq
 8002b9c:	1aed      	subeq	r5, r5, r3
 8002b9e:	f854 3c12 	ldr.w	r3, [r4, #-18]
 8002ba2:	bf08      	it	eq
 8002ba4:	ea25 75e5 	biceq.w	r5, r5, r5, asr #31
 8002ba8:	4293      	cmp	r3, r2
 8002baa:	bfc4      	itt	gt
 8002bac:	1a9b      	subgt	r3, r3, r2
 8002bae:	18ed      	addgt	r5, r5, r3
 8002bb0:	42b5      	cmp	r5, r6
 8002bb2:	d11a      	bne.n	8002bea <_printf_common+0xd2>
 8002bb4:	2000      	movs	r0, #0
 8002bb6:	e008      	b.n	8002bca <_printf_common+0xb2>
 8002bb8:	2301      	movs	r3, #1
 8002bba:	4652      	mov	r2, sl
 8002bbc:	4649      	mov	r1, r9
 8002bbe:	4638      	mov	r0, r7
 8002bc0:	47c0      	blx	r8
 8002bc2:	3001      	adds	r0, #1
 8002bc4:	d103      	bne.n	8002bce <_printf_common+0xb6>
 8002bc6:	f04f 30ff 	mov.w	r0, #4294967295
 8002bca:	e8bd 87f0 	ldmia.w	sp!, {r4, r5, r6, r7, r8, r9, sl, pc}
 8002bce:	3501      	adds	r5, #1
 8002bd0:	e7c1      	b.n	8002b56 <_printf_common+0x3e>
 8002bd2:	2030      	movs	r0, #48	; 0x30
 8002bd4:	18e1      	adds	r1, r4, r3
 8002bd6:	f881 0043 	strb.w	r0, [r1, #67]	; 0x43
 8002bda:	1c5a      	adds	r2, r3, #1
 8002bdc:	f894 1045 	ldrb.w	r1, [r4, #69]	; 0x45
 8002be0:	4422      	add	r2, r4
 8002be2:	3302      	adds	r3, #2
 8002be4:	f882 1043 	strb.w	r1, [r2, #67]	; 0x43
 8002be8:	e7c2      	b.n	8002b70 <_printf_common+0x58>
 8002bea:	2301      	movs	r3, #1
 8002bec:	4622      	mov	r2, r4
 8002bee:	4649      	mov	r1, r9
 8002bf0:	4638      	mov	r0, r7
 8002bf2:	47c0      	blx	r8
 8002bf4:	3001      	adds	r0, #1
 8002bf6:	d0e6      	beq.n	8002bc6 <_printf_common+0xae>
 8002bf8:	3601      	adds	r6, #1
 8002bfa:	e7d9      	b.n	8002bb0 <_printf_common+0x98>

08002bfc <_printf_i>:
 8002bfc:	e92d 47ff 	stmdb	sp!, {r0, r1, r2, r3, r4, r5, r6, r7, r8, r9, sl, lr}
 8002c00:	7e0f      	ldrb	r7, [r1, #24]
 8002c02:	4691      	mov	r9, r2
 8002c04:	2f78      	cmp	r7, #120	; 0x78
 8002c06:	4680      	mov	r8, r0
 8002c08:	460c      	mov	r4, r1
 8002c0a:	469a      	mov	sl, r3
 8002c0c:	9d0c      	ldr	r5, [sp, #48]	; 0x30
 8002c0e:	f101 0243 	add.w	r2, r1, #67	; 0x43
 8002c12:	d807      	bhi.n	8002c24 <_printf_i+0x28>
 8002c14:	2f62      	cmp	r7, #98	; 0x62
 8002c16:	d80a      	bhi.n	8002c2e <_printf_i+0x32>
 8002c18:	2f00      	cmp	r7, #0
 8002c1a:	f000 80d5 	beq.w	8002dc8 <_printf_i+0x1cc>
 8002c1e:	2f58      	cmp	r7, #88	; 0x58
 8002c20:	f000 80c1 	beq.w	8002da6 <_printf_i+0x1aa>
 8002c24:	f104 0542 	add.w	r5, r4, #66	; 0x42
 8002c28:	f884 7042 	strb.w	r7, [r4, #66]	; 0x42
 8002c2c:	e03a      	b.n	8002ca4 <_printf_i+0xa8>
 8002c2e:	f1a7 0363 	sub.w	r3, r7, #99	; 0x63
 8002c32:	2b15      	cmp	r3, #21
 8002c34:	d8f6      	bhi.n	8002c24 <_printf_i+0x28>
 8002c36:	a101      	add	r1, pc, #4	; (adr r1, 8002c3c <_printf_i+0x40>)
 8002c38:	f851 f023 	ldr.w	pc, [r1, r3, lsl #2]
 8002c3c:	08002c95 	.word	0x08002c95
 8002c40:	08002ca9 	.word	0x08002ca9
 8002c44:	08002c25 	.word	0x08002c25
 8002c48:	08002c25 	.word	0x08002c25
 8002c4c:	08002c25 	.word	0x08002c25
 8002c50:	08002c25 	.word	0x08002c25
 8002c54:	08002ca9 	.word	0x08002ca9
 8002c58:	08002c25 	.word	0x08002c25
 8002c5c:	08002c25 	.word	0x08002c25
 8002c60:	08002c25 	.word	0x08002c25
 8002c64:	08002c25 	.word	0x08002c25
 8002c68:	08002daf 	.word	0x08002daf
 8002c6c:	08002cd5 	.word	0x08002cd5
 8002c70:	08002d69 	.word	0x08002d69
 8002c74:	08002c25 	.word	0x08002c25
 8002c78:	08002c25 	.word	0x08002c25
 8002c7c:	08002dd1 	.word	0x08002dd1
 8002c80:	08002c25 	.word	0x08002c25
 8002c84:	08002cd5 	.word	0x08002cd5
 8002c88:	08002c25 	.word	0x08002c25
 8002c8c:	08002c25 	.word	0x08002c25
 8002c90:	08002d71 	.word	0x08002d71
 8002c94:	682b      	ldr	r3, [r5, #0]
 8002c96:	1d1a      	adds	r2, r3, #4
 8002c98:	681b      	ldr	r3, [r3, #0]
 8002c9a:	602a      	str	r2, [r5, #0]
 8002c9c:	f104 0542 	add.w	r5, r4, #66	; 0x42
 8002ca0:	f884 3042 	strb.w	r3, [r4, #66]	; 0x42
 8002ca4:	2301      	movs	r3, #1
 8002ca6:	e0a0      	b.n	8002dea <_printf_i+0x1ee>
 8002ca8:	6820      	ldr	r0, [r4, #0]
 8002caa:	682b      	ldr	r3, [r5, #0]
 8002cac:	0607      	lsls	r7, r0, #24
 8002cae:	f103 0104 	add.w	r1, r3, #4
 8002cb2:	6029      	str	r1, [r5, #0]
 8002cb4:	d501      	bpl.n	8002cba <_printf_i+0xbe>
 8002cb6:	681e      	ldr	r6, [r3, #0]
 8002cb8:	e003      	b.n	8002cc2 <_printf_i+0xc6>
 8002cba:	0646      	lsls	r6, r0, #25
 8002cbc:	d5fb      	bpl.n	8002cb6 <_printf_i+0xba>
 8002cbe:	f9b3 6000 	ldrsh.w	r6, [r3]
 8002cc2:	2e00      	cmp	r6, #0
 8002cc4:	da03      	bge.n	8002cce <_printf_i+0xd2>
 8002cc6:	232d      	movs	r3, #45	; 0x2d
 8002cc8:	4276      	negs	r6, r6
 8002cca:	f884 3043 	strb.w	r3, [r4, #67]	; 0x43
 8002cce:	230a      	movs	r3, #10
 8002cd0:	4859      	ldr	r0, [pc, #356]	; (8002e38 <_printf_i+0x23c>)
 8002cd2:	e012      	b.n	8002cfa <_printf_i+0xfe>
 8002cd4:	682b      	ldr	r3, [r5, #0]
 8002cd6:	6820      	ldr	r0, [r4, #0]
 8002cd8:	1d19      	adds	r1, r3, #4
 8002cda:	6029      	str	r1, [r5, #0]
 8002cdc:	0605      	lsls	r5, r0, #24
 8002cde:	d501      	bpl.n	8002ce4 <_printf_i+0xe8>
 8002ce0:	681e      	ldr	r6, [r3, #0]
 8002ce2:	e002      	b.n	8002cea <_printf_i+0xee>
 8002ce4:	0641      	lsls	r1, r0, #25
 8002ce6:	d5fb      	bpl.n	8002ce0 <_printf_i+0xe4>
 8002ce8:	881e      	ldrh	r6, [r3, #0]
 8002cea:	2f6f      	cmp	r7, #111	; 0x6f
 8002cec:	bf0c      	ite	eq
 8002cee:	2308      	moveq	r3, #8
 8002cf0:	230a      	movne	r3, #10
 8002cf2:	4851      	ldr	r0, [pc, #324]	; (8002e38 <_printf_i+0x23c>)
 8002cf4:	2100      	movs	r1, #0
 8002cf6:	f884 1043 	strb.w	r1, [r4, #67]	; 0x43
 8002cfa:	6865      	ldr	r5, [r4, #4]
 8002cfc:	2d00      	cmp	r5, #0
 8002cfe:	bfa8      	it	ge
 8002d00:	6821      	ldrge	r1, [r4, #0]
 8002d02:	60a5      	str	r5, [r4, #8]
 8002d04:	bfa4      	itt	ge
 8002d06:	f021 0104 	bicge.w	r1, r1, #4
 8002d0a:	6021      	strge	r1, [r4, #0]
 8002d0c:	b90e      	cbnz	r6, 8002d12 <_printf_i+0x116>
 8002d0e:	2d00      	cmp	r5, #0
 8002d10:	d04b      	beq.n	8002daa <_printf_i+0x1ae>
 8002d12:	4615      	mov	r5, r2
 8002d14:	fbb6 f1f3 	udiv	r1, r6, r3
 8002d18:	fb03 6711 	mls	r7, r3, r1, r6
 8002d1c:	5dc7      	ldrb	r7, [r0, r7]
 8002d1e:	f805 7d01 	strb.w	r7, [r5, #-1]!
 8002d22:	4637      	mov	r7, r6
 8002d24:	42bb      	cmp	r3, r7
 8002d26:	460e      	mov	r6, r1
 8002d28:	d9f4      	bls.n	8002d14 <_printf_i+0x118>
 8002d2a:	2b08      	cmp	r3, #8
 8002d2c:	d10b      	bne.n	8002d46 <_printf_i+0x14a>
 8002d2e:	6823      	ldr	r3, [r4, #0]
 8002d30:	07de      	lsls	r6, r3, #31
 8002d32:	d508      	bpl.n	8002d46 <_printf_i+0x14a>
 8002d34:	6923      	ldr	r3, [r4, #16]
 8002d36:	6861      	ldr	r1, [r4, #4]
 8002d38:	4299      	cmp	r1, r3
 8002d3a:	bfde      	ittt	le
 8002d3c:	2330      	movle	r3, #48	; 0x30
 8002d3e:	f805 3c01 	strble.w	r3, [r5, #-1]
 8002d42:	f105 35ff 	addle.w	r5, r5, #4294967295
 8002d46:	1b52      	subs	r2, r2, r5
 8002d48:	6122      	str	r2, [r4, #16]
 8002d4a:	464b      	mov	r3, r9
 8002d4c:	4621      	mov	r1, r4
 8002d4e:	4640      	mov	r0, r8
 8002d50:	f8cd a000 	str.w	sl, [sp]
 8002d54:	aa03      	add	r2, sp, #12
 8002d56:	f7ff fedf 	bl	8002b18 <_printf_common>
 8002d5a:	3001      	adds	r0, #1
 8002d5c:	d14a      	bne.n	8002df4 <_printf_i+0x1f8>
 8002d5e:	f04f 30ff 	mov.w	r0, #4294967295
 8002d62:	b004      	add	sp, #16
 8002d64:	e8bd 87f0 	ldmia.w	sp!, {r4, r5, r6, r7, r8, r9, sl, pc}
 8002d68:	6823      	ldr	r3, [r4, #0]
 8002d6a:	f043 0320 	orr.w	r3, r3, #32
 8002d6e:	6023      	str	r3, [r4, #0]
 8002d70:	2778      	movs	r7, #120	; 0x78
 8002d72:	4832      	ldr	r0, [pc, #200]	; (8002e3c <_printf_i+0x240>)
 8002d74:	f884 7045 	strb.w	r7, [r4, #69]	; 0x45
 8002d78:	6823      	ldr	r3, [r4, #0]
 8002d7a:	6829      	ldr	r1, [r5, #0]
 8002d7c:	061f      	lsls	r7, r3, #24
 8002d7e:	f851 6b04 	ldr.w	r6, [r1], #4
 8002d82:	d402      	bmi.n	8002d8a <_printf_i+0x18e>
 8002d84:	065f      	lsls	r7, r3, #25
 8002d86:	bf48      	it	mi
 8002d88:	b2b6      	uxthmi	r6, r6
 8002d8a:	07df      	lsls	r7, r3, #31
 8002d8c:	bf48      	it	mi
 8002d8e:	f043 0320 	orrmi.w	r3, r3, #32
 8002d92:	6029      	str	r1, [r5, #0]
 8002d94:	bf48      	it	mi
 8002d96:	6023      	strmi	r3, [r4, #0]
 8002d98:	b91e      	cbnz	r6, 8002da2 <_printf_i+0x1a6>
 8002d9a:	6823      	ldr	r3, [r4, #0]
 8002d9c:	f023 0320 	bic.w	r3, r3, #32
 8002da0:	6023      	str	r3, [r4, #0]
 8002da2:	2310      	movs	r3, #16
 8002da4:	e7a6      	b.n	8002cf4 <_printf_i+0xf8>
 8002da6:	4824      	ldr	r0, [pc, #144]	; (8002e38 <_printf_i+0x23c>)
 8002da8:	e7e4      	b.n	8002d74 <_printf_i+0x178>
 8002daa:	4615      	mov	r5, r2
 8002dac:	e7bd      	b.n	8002d2a <_printf_i+0x12e>
 8002dae:	682b      	ldr	r3, [r5, #0]
 8002db0:	6826      	ldr	r6, [r4, #0]
 8002db2:	1d18      	adds	r0, r3, #4
 8002db4:	6961      	ldr	r1, [r4, #20]
 8002db6:	6028      	str	r0, [r5, #0]
 8002db8:	0635      	lsls	r5, r6, #24
 8002dba:	681b      	ldr	r3, [r3, #0]
 8002dbc:	d501      	bpl.n	8002dc2 <_printf_i+0x1c6>
 8002dbe:	6019      	str	r1, [r3, #0]
 8002dc0:	e002      	b.n	8002dc8 <_printf_i+0x1cc>
 8002dc2:	0670      	lsls	r0, r6, #25
 8002dc4:	d5fb      	bpl.n	8002dbe <_printf_i+0x1c2>
 8002dc6:	8019      	strh	r1, [r3, #0]
 8002dc8:	2300      	movs	r3, #0
 8002dca:	4615      	mov	r5, r2
 8002dcc:	6123      	str	r3, [r4, #16]
 8002dce:	e7bc      	b.n	8002d4a <_printf_i+0x14e>
 8002dd0:	682b      	ldr	r3, [r5, #0]
 8002dd2:	2100      	movs	r1, #0
 8002dd4:	1d1a      	adds	r2, r3, #4
 8002dd6:	602a      	str	r2, [r5, #0]
 8002dd8:	681d      	ldr	r5, [r3, #0]
 8002dda:	6862      	ldr	r2, [r4, #4]
 8002ddc:	4628      	mov	r0, r5
 8002dde:	f000 fce4 	bl	80037aa <memchr>
 8002de2:	b108      	cbz	r0, 8002de8 <_printf_i+0x1ec>
 8002de4:	1b40      	subs	r0, r0, r5
 8002de6:	6060      	str	r0, [r4, #4]
 8002de8:	6863      	ldr	r3, [r4, #4]
 8002dea:	6123      	str	r3, [r4, #16]
 8002dec:	2300      	movs	r3, #0
 8002dee:	f884 3043 	strb.w	r3, [r4, #67]	; 0x43
 8002df2:	e7aa      	b.n	8002d4a <_printf_i+0x14e>
 8002df4:	462a      	mov	r2, r5
 8002df6:	4649      	mov	r1, r9
 8002df8:	4640      	mov	r0, r8
 8002dfa:	6923      	ldr	r3, [r4, #16]
 8002dfc:	47d0      	blx	sl
 8002dfe:	3001      	adds	r0, #1
 8002e00:	d0ad      	beq.n	8002d5e <_printf_i+0x162>
 8002e02:	6823      	ldr	r3, [r4, #0]
 8002e04:	079b      	lsls	r3, r3, #30
 8002e06:	d413      	bmi.n	8002e30 <_printf_i+0x234>
 8002e08:	68e0      	ldr	r0, [r4, #12]
 8002e0a:	9b03      	ldr	r3, [sp, #12]
 8002e0c:	4298      	cmp	r0, r3
 8002e0e:	bfb8      	it	lt
 8002e10:	4618      	movlt	r0, r3
 8002e12:	e7a6      	b.n	8002d62 <_printf_i+0x166>
 8002e14:	2301      	movs	r3, #1
 8002e16:	4632      	mov	r2, r6
 8002e18:	4649      	mov	r1, r9
 8002e1a:	4640      	mov	r0, r8
 8002e1c:	47d0      	blx	sl
 8002e1e:	3001      	adds	r0, #1
 8002e20:	d09d      	beq.n	8002d5e <_printf_i+0x162>
 8002e22:	3501      	adds	r5, #1
 8002e24:	68e3      	ldr	r3, [r4, #12]
 8002e26:	9903      	ldr	r1, [sp, #12]
 8002e28:	1a5b      	subs	r3, r3, r1
 8002e2a:	42ab      	cmp	r3, r5
 8002e2c:	dcf2      	bgt.n	8002e14 <_printf_i+0x218>
 8002e2e:	e7eb      	b.n	8002e08 <_printf_i+0x20c>
 8002e30:	2500      	movs	r5, #0
 8002e32:	f104 0619 	add.w	r6, r4, #25
 8002e36:	e7f5      	b.n	8002e24 <_printf_i+0x228>
 8002e38:	08006ed7 	.word	0x08006ed7
 8002e3c:	08006ee8 	.word	0x08006ee8

08002e40 <_scanf_float>:
 8002e40:	e92d 4ff0 	stmdb	sp!, {r4, r5, r6, r7, r8, r9, sl, fp, lr}
 8002e44:	b087      	sub	sp, #28
 8002e46:	9303      	str	r3, [sp, #12]
 8002e48:	688b      	ldr	r3, [r1, #8]
 8002e4a:	4617      	mov	r7, r2
 8002e4c:	1e5a      	subs	r2, r3, #1
 8002e4e:	f5b2 7fae 	cmp.w	r2, #348	; 0x15c
 8002e52:	bf85      	ittet	hi
 8002e54:	f46f 75ae 	mvnhi.w	r5, #348	; 0x15c
 8002e58:	195b      	addhi	r3, r3, r5
 8002e5a:	2300      	movls	r3, #0
 8002e5c:	9302      	strhi	r3, [sp, #8]
 8002e5e:	bf88      	it	hi
 8002e60:	f240 135d 	movwhi	r3, #349	; 0x15d
 8002e64:	468b      	mov	fp, r1
 8002e66:	f04f 0500 	mov.w	r5, #0
 8002e6a:	bf8c      	ite	hi
 8002e6c:	608b      	strhi	r3, [r1, #8]
 8002e6e:	9302      	strls	r3, [sp, #8]
 8002e70:	680b      	ldr	r3, [r1, #0]
 8002e72:	4680      	mov	r8, r0
 8002e74:	f443 63f0 	orr.w	r3, r3, #1920	; 0x780
 8002e78:	f84b 3b1c 	str.w	r3, [fp], #28
 8002e7c:	460c      	mov	r4, r1
 8002e7e:	465e      	mov	r6, fp
 8002e80:	46aa      	mov	sl, r5
 8002e82:	46a9      	mov	r9, r5
 8002e84:	e9cd 5504 	strd	r5, r5, [sp, #16]
 8002e88:	9501      	str	r5, [sp, #4]
 8002e8a:	68a2      	ldr	r2, [r4, #8]
 8002e8c:	b152      	cbz	r2, 8002ea4 <_scanf_float+0x64>
 8002e8e:	683b      	ldr	r3, [r7, #0]
 8002e90:	781b      	ldrb	r3, [r3, #0]
 8002e92:	2b4e      	cmp	r3, #78	; 0x4e
 8002e94:	d864      	bhi.n	8002f60 <_scanf_float+0x120>
 8002e96:	2b40      	cmp	r3, #64	; 0x40
 8002e98:	d83c      	bhi.n	8002f14 <_scanf_float+0xd4>
 8002e9a:	f1a3 012b 	sub.w	r1, r3, #43	; 0x2b
 8002e9e:	b2c8      	uxtb	r0, r1
 8002ea0:	280e      	cmp	r0, #14
 8002ea2:	d93a      	bls.n	8002f1a <_scanf_float+0xda>
 8002ea4:	f1b9 0f00 	cmp.w	r9, #0
 8002ea8:	d003      	beq.n	8002eb2 <_scanf_float+0x72>
 8002eaa:	6823      	ldr	r3, [r4, #0]
 8002eac:	f423 7380 	bic.w	r3, r3, #256	; 0x100
 8002eb0:	6023      	str	r3, [r4, #0]
 8002eb2:	f10a 3aff 	add.w	sl, sl, #4294967295
 8002eb6:	f1ba 0f01 	cmp.w	sl, #1
 8002eba:	f200 8113 	bhi.w	80030e4 <_scanf_float+0x2a4>
 8002ebe:	455e      	cmp	r6, fp
 8002ec0:	f200 8105 	bhi.w	80030ce <_scanf_float+0x28e>
 8002ec4:	2501      	movs	r5, #1
 8002ec6:	4628      	mov	r0, r5
 8002ec8:	b007      	add	sp, #28
 8002eca:	e8bd 8ff0 	ldmia.w	sp!, {r4, r5, r6, r7, r8, r9, sl, fp, pc}
 8002ece:	f1a3 0261 	sub.w	r2, r3, #97	; 0x61
 8002ed2:	2a0d      	cmp	r2, #13
 8002ed4:	d8e6      	bhi.n	8002ea4 <_scanf_float+0x64>
 8002ed6:	a101      	add	r1, pc, #4	; (adr r1, 8002edc <_scanf_float+0x9c>)
 8002ed8:	f851 f022 	ldr.w	pc, [r1, r2, lsl #2]
 8002edc:	0800301b 	.word	0x0800301b
 8002ee0:	08002ea5 	.word	0x08002ea5
 8002ee4:	08002ea5 	.word	0x08002ea5
 8002ee8:	08002ea5 	.word	0x08002ea5
 8002eec:	0800307b 	.word	0x0800307b
 8002ef0:	08003053 	.word	0x08003053
 8002ef4:	08002ea5 	.word	0x08002ea5
 8002ef8:	08002ea5 	.word	0x08002ea5
 8002efc:	08003029 	.word	0x08003029
 8002f00:	08002ea5 	.word	0x08002ea5
 8002f04:	08002ea5 	.word	0x08002ea5
 8002f08:	08002ea5 	.word	0x08002ea5
 8002f0c:	08002ea5 	.word	0x08002ea5
 8002f10:	08002fe1 	.word	0x08002fe1
 8002f14:	f1a3 0241 	sub.w	r2, r3, #65	; 0x41
 8002f18:	e7db      	b.n	8002ed2 <_scanf_float+0x92>
 8002f1a:	290e      	cmp	r1, #14
 8002f1c:	d8c2      	bhi.n	8002ea4 <_scanf_float+0x64>
 8002f1e:	a001      	add	r0, pc, #4	; (adr r0, 8002f24 <_scanf_float+0xe4>)
 8002f20:	f850 f021 	ldr.w	pc, [r0, r1, lsl #2]
 8002f24:	08002fd3 	.word	0x08002fd3
 8002f28:	08002ea5 	.word	0x08002ea5
 8002f2c:	08002fd3 	.word	0x08002fd3
 8002f30:	08003067 	.word	0x08003067
 8002f34:	08002ea5 	.word	0x08002ea5
 8002f38:	08002f81 	.word	0x08002f81
 8002f3c:	08002fbd 	.word	0x08002fbd
 8002f40:	08002fbd 	.word	0x08002fbd
 8002f44:	08002fbd 	.word	0x08002fbd
 8002f48:	08002fbd 	.word	0x08002fbd
 8002f4c:	08002fbd 	.word	0x08002fbd
 8002f50:	08002fbd 	.word	0x08002fbd
 8002f54:	08002fbd 	.word	0x08002fbd
 8002f58:	08002fbd 	.word	0x08002fbd
 8002f5c:	08002fbd 	.word	0x08002fbd
 8002f60:	2b6e      	cmp	r3, #110	; 0x6e
 8002f62:	d809      	bhi.n	8002f78 <_scanf_float+0x138>
 8002f64:	2b60      	cmp	r3, #96	; 0x60
 8002f66:	d8b2      	bhi.n	8002ece <_scanf_float+0x8e>
 8002f68:	2b54      	cmp	r3, #84	; 0x54
 8002f6a:	d077      	beq.n	800305c <_scanf_float+0x21c>
 8002f6c:	2b59      	cmp	r3, #89	; 0x59
 8002f6e:	d199      	bne.n	8002ea4 <_scanf_float+0x64>
 8002f70:	2d07      	cmp	r5, #7
 8002f72:	d197      	bne.n	8002ea4 <_scanf_float+0x64>
 8002f74:	2508      	movs	r5, #8
 8002f76:	e029      	b.n	8002fcc <_scanf_float+0x18c>
 8002f78:	2b74      	cmp	r3, #116	; 0x74
 8002f7a:	d06f      	beq.n	800305c <_scanf_float+0x21c>
 8002f7c:	2b79      	cmp	r3, #121	; 0x79
 8002f7e:	e7f6      	b.n	8002f6e <_scanf_float+0x12e>
 8002f80:	6821      	ldr	r1, [r4, #0]
 8002f82:	05c8      	lsls	r0, r1, #23
 8002f84:	d51a      	bpl.n	8002fbc <_scanf_float+0x17c>
 8002f86:	9b02      	ldr	r3, [sp, #8]
 8002f88:	f021 0180 	bic.w	r1, r1, #128	; 0x80
 8002f8c:	6021      	str	r1, [r4, #0]
 8002f8e:	f109 0901 	add.w	r9, r9, #1
 8002f92:	b11b      	cbz	r3, 8002f9c <_scanf_float+0x15c>
 8002f94:	3b01      	subs	r3, #1
 8002f96:	3201      	adds	r2, #1
 8002f98:	9302      	str	r3, [sp, #8]
 8002f9a:	60a2      	str	r2, [r4, #8]
 8002f9c:	68a3      	ldr	r3, [r4, #8]
 8002f9e:	3b01      	subs	r3, #1
 8002fa0:	60a3      	str	r3, [r4, #8]
 8002fa2:	6923      	ldr	r3, [r4, #16]
 8002fa4:	3301      	adds	r3, #1
 8002fa6:	6123      	str	r3, [r4, #16]
 8002fa8:	687b      	ldr	r3, [r7, #4]
 8002faa:	3b01      	subs	r3, #1
 8002fac:	2b00      	cmp	r3, #0
 8002fae:	607b      	str	r3, [r7, #4]
 8002fb0:	f340 8084 	ble.w	80030bc <_scanf_float+0x27c>
 8002fb4:	683b      	ldr	r3, [r7, #0]
 8002fb6:	3301      	adds	r3, #1
 8002fb8:	603b      	str	r3, [r7, #0]
 8002fba:	e766      	b.n	8002e8a <_scanf_float+0x4a>
 8002fbc:	eb1a 0f05 	cmn.w	sl, r5
 8002fc0:	f47f af70 	bne.w	8002ea4 <_scanf_float+0x64>
 8002fc4:	6822      	ldr	r2, [r4, #0]
 8002fc6:	f422 72c0 	bic.w	r2, r2, #384	; 0x180
 8002fca:	6022      	str	r2, [r4, #0]
 8002fcc:	f806 3b01 	strb.w	r3, [r6], #1
 8002fd0:	e7e4      	b.n	8002f9c <_scanf_float+0x15c>
 8002fd2:	6822      	ldr	r2, [r4, #0]
 8002fd4:	0610      	lsls	r0, r2, #24
 8002fd6:	f57f af65 	bpl.w	8002ea4 <_scanf_float+0x64>
 8002fda:	f022 0280 	bic.w	r2, r2, #128	; 0x80
 8002fde:	e7f4      	b.n	8002fca <_scanf_float+0x18a>
 8002fe0:	f1ba 0f00 	cmp.w	sl, #0
 8002fe4:	d10e      	bne.n	8003004 <_scanf_float+0x1c4>
 8002fe6:	f1b9 0f00 	cmp.w	r9, #0
 8002fea:	d10e      	bne.n	800300a <_scanf_float+0x1ca>
 8002fec:	6822      	ldr	r2, [r4, #0]
 8002fee:	f402 61e0 	and.w	r1, r2, #1792	; 0x700
 8002ff2:	f5b1 6fe0 	cmp.w	r1, #1792	; 0x700
 8002ff6:	d108      	bne.n	800300a <_scanf_float+0x1ca>
 8002ff8:	f422 62f0 	bic.w	r2, r2, #1920	; 0x780
 8002ffc:	f04f 0a01 	mov.w	sl, #1
 8003000:	6022      	str	r2, [r4, #0]
 8003002:	e7e3      	b.n	8002fcc <_scanf_float+0x18c>
 8003004:	f1ba 0f02 	cmp.w	sl, #2
 8003008:	d055      	beq.n	80030b6 <_scanf_float+0x276>
 800300a:	2d01      	cmp	r5, #1
 800300c:	d002      	beq.n	8003014 <_scanf_float+0x1d4>
 800300e:	2d04      	cmp	r5, #4
 8003010:	f47f af48 	bne.w	8002ea4 <_scanf_float+0x64>
 8003014:	3501      	adds	r5, #1
 8003016:	b2ed      	uxtb	r5, r5
 8003018:	e7d8      	b.n	8002fcc <_scanf_float+0x18c>
 800301a:	f1ba 0f01 	cmp.w	sl, #1
 800301e:	f47f af41 	bne.w	8002ea4 <_scanf_float+0x64>
 8003022:	f04f 0a02 	mov.w	sl, #2
 8003026:	e7d1      	b.n	8002fcc <_scanf_float+0x18c>
 8003028:	b97d      	cbnz	r5, 800304a <_scanf_float+0x20a>
 800302a:	f1b9 0f00 	cmp.w	r9, #0
 800302e:	f47f af3c 	bne.w	8002eaa <_scanf_float+0x6a>
 8003032:	6822      	ldr	r2, [r4, #0]
 8003034:	f402 61e0 	and.w	r1, r2, #1792	; 0x700
 8003038:	f5b1 6fe0 	cmp.w	r1, #1792	; 0x700
 800303c:	f47f af39 	bne.w	8002eb2 <_scanf_float+0x72>
 8003040:	f422 62f0 	bic.w	r2, r2, #1920	; 0x780
 8003044:	2501      	movs	r5, #1
 8003046:	6022      	str	r2, [r4, #0]
 8003048:	e7c0      	b.n	8002fcc <_scanf_float+0x18c>
 800304a:	2d03      	cmp	r5, #3
 800304c:	d0e2      	beq.n	8003014 <_scanf_float+0x1d4>
 800304e:	2d05      	cmp	r5, #5
 8003050:	e7de      	b.n	8003010 <_scanf_float+0x1d0>
 8003052:	2d02      	cmp	r5, #2
 8003054:	f47f af26 	bne.w	8002ea4 <_scanf_float+0x64>
 8003058:	2503      	movs	r5, #3
 800305a:	e7b7      	b.n	8002fcc <_scanf_float+0x18c>
 800305c:	2d06      	cmp	r5, #6
 800305e:	f47f af21 	bne.w	8002ea4 <_scanf_float+0x64>
 8003062:	2507      	movs	r5, #7
 8003064:	e7b2      	b.n	8002fcc <_scanf_float+0x18c>
 8003066:	6822      	ldr	r2, [r4, #0]
 8003068:	0591      	lsls	r1, r2, #22
 800306a:	f57f af1b 	bpl.w	8002ea4 <_scanf_float+0x64>
 800306e:	f422 7220 	bic.w	r2, r2, #640	; 0x280
 8003072:	6022      	str	r2, [r4, #0]
 8003074:	f8cd 9004 	str.w	r9, [sp, #4]
 8003078:	e7a8      	b.n	8002fcc <_scanf_float+0x18c>
 800307a:	6822      	ldr	r2, [r4, #0]
 800307c:	f402 61a0 	and.w	r1, r2, #1280	; 0x500
 8003080:	f5b1 6f80 	cmp.w	r1, #1024	; 0x400
 8003084:	d006      	beq.n	8003094 <_scanf_float+0x254>
 8003086:	0550      	lsls	r0, r2, #21
 8003088:	f57f af0c 	bpl.w	8002ea4 <_scanf_float+0x64>
 800308c:	f1b9 0f00 	cmp.w	r9, #0
 8003090:	f43f af0f 	beq.w	8002eb2 <_scanf_float+0x72>
 8003094:	0591      	lsls	r1, r2, #22
 8003096:	bf58      	it	pl
 8003098:	9901      	ldrpl	r1, [sp, #4]
 800309a:	f422 62f0 	bic.w	r2, r2, #1920	; 0x780
 800309e:	bf58      	it	pl
 80030a0:	eba9 0101 	subpl.w	r1, r9, r1
 80030a4:	f442 72c0 	orr.w	r2, r2, #384	; 0x180
 80030a8:	f04f 0900 	mov.w	r9, #0
 80030ac:	bf58      	it	pl
 80030ae:	e9cd 1604 	strdpl	r1, r6, [sp, #16]
 80030b2:	6022      	str	r2, [r4, #0]
 80030b4:	e78a      	b.n	8002fcc <_scanf_float+0x18c>
 80030b6:	f04f 0a03 	mov.w	sl, #3
 80030ba:	e787      	b.n	8002fcc <_scanf_float+0x18c>
 80030bc:	4639      	mov	r1, r7
 80030be:	4640      	mov	r0, r8
 80030c0:	f8d4 3180 	ldr.w	r3, [r4, #384]	; 0x180
 80030c4:	4798      	blx	r3
 80030c6:	2800      	cmp	r0, #0
 80030c8:	f43f aedf 	beq.w	8002e8a <_scanf_float+0x4a>
 80030cc:	e6ea      	b.n	8002ea4 <_scanf_float+0x64>
 80030ce:	f8d4 317c 	ldr.w	r3, [r4, #380]	; 0x17c
 80030d2:	463a      	mov	r2, r7
 80030d4:	4640      	mov	r0, r8
 80030d6:	f816 1d01 	ldrb.w	r1, [r6, #-1]!
 80030da:	4798      	blx	r3
 80030dc:	6923      	ldr	r3, [r4, #16]
 80030de:	3b01      	subs	r3, #1
 80030e0:	6123      	str	r3, [r4, #16]
 80030e2:	e6ec      	b.n	8002ebe <_scanf_float+0x7e>
 80030e4:	1e6b      	subs	r3, r5, #1
 80030e6:	2b06      	cmp	r3, #6
 80030e8:	d825      	bhi.n	8003136 <_scanf_float+0x2f6>
 80030ea:	2d02      	cmp	r5, #2
 80030ec:	d836      	bhi.n	800315c <_scanf_float+0x31c>
 80030ee:	455e      	cmp	r6, fp
 80030f0:	f67f aee8 	bls.w	8002ec4 <_scanf_float+0x84>
 80030f4:	f8d4 317c 	ldr.w	r3, [r4, #380]	; 0x17c
 80030f8:	463a      	mov	r2, r7
 80030fa:	4640      	mov	r0, r8
 80030fc:	f816 1d01 	ldrb.w	r1, [r6, #-1]!
 8003100:	4798      	blx	r3
 8003102:	6923      	ldr	r3, [r4, #16]
 8003104:	3b01      	subs	r3, #1
 8003106:	6123      	str	r3, [r4, #16]
 8003108:	e7f1      	b.n	80030ee <_scanf_float+0x2ae>
 800310a:	9802      	ldr	r0, [sp, #8]
 800310c:	f8d4 317c 	ldr.w	r3, [r4, #380]	; 0x17c
 8003110:	f810 1d01 	ldrb.w	r1, [r0, #-1]!
 8003114:	463a      	mov	r2, r7
 8003116:	9002      	str	r0, [sp, #8]
 8003118:	4640      	mov	r0, r8
 800311a:	4798      	blx	r3
 800311c:	6923      	ldr	r3, [r4, #16]
 800311e:	3b01      	subs	r3, #1
 8003120:	6123      	str	r3, [r4, #16]
 8003122:	f10a 3aff 	add.w	sl, sl, #4294967295
 8003126:	fa5f fa8a 	uxtb.w	sl, sl
 800312a:	f1ba 0f02 	cmp.w	sl, #2
 800312e:	d1ec      	bne.n	800310a <_scanf_float+0x2ca>
 8003130:	3d03      	subs	r5, #3
 8003132:	b2ed      	uxtb	r5, r5
 8003134:	1b76      	subs	r6, r6, r5
 8003136:	6823      	ldr	r3, [r4, #0]
 8003138:	05da      	lsls	r2, r3, #23
 800313a:	d52f      	bpl.n	800319c <_scanf_float+0x35c>
 800313c:	055b      	lsls	r3, r3, #21
 800313e:	d510      	bpl.n	8003162 <_scanf_float+0x322>
 8003140:	455e      	cmp	r6, fp
 8003142:	f67f aebf 	bls.w	8002ec4 <_scanf_float+0x84>
 8003146:	f8d4 317c 	ldr.w	r3, [r4, #380]	; 0x17c
 800314a:	463a      	mov	r2, r7
 800314c:	4640      	mov	r0, r8
 800314e:	f816 1d01 	ldrb.w	r1, [r6, #-1]!
 8003152:	4798      	blx	r3
 8003154:	6923      	ldr	r3, [r4, #16]
 8003156:	3b01      	subs	r3, #1
 8003158:	6123      	str	r3, [r4, #16]
 800315a:	e7f1      	b.n	8003140 <_scanf_float+0x300>
 800315c:	46aa      	mov	sl, r5
 800315e:	9602      	str	r6, [sp, #8]
 8003160:	e7df      	b.n	8003122 <_scanf_float+0x2e2>
 8003162:	f816 1c01 	ldrb.w	r1, [r6, #-1]
 8003166:	6923      	ldr	r3, [r4, #16]
 8003168:	2965      	cmp	r1, #101	; 0x65
 800316a:	f103 33ff 	add.w	r3, r3, #4294967295
 800316e:	f106 35ff 	add.w	r5, r6, #4294967295
 8003172:	6123      	str	r3, [r4, #16]
 8003174:	d00c      	beq.n	8003190 <_scanf_float+0x350>
 8003176:	2945      	cmp	r1, #69	; 0x45
 8003178:	d00a      	beq.n	8003190 <_scanf_float+0x350>
 800317a:	f8d4 317c 	ldr.w	r3, [r4, #380]	; 0x17c
 800317e:	463a      	mov	r2, r7
 8003180:	4640      	mov	r0, r8
 8003182:	4798      	blx	r3
 8003184:	6923      	ldr	r3, [r4, #16]
 8003186:	f816 1c02 	ldrb.w	r1, [r6, #-2]
 800318a:	3b01      	subs	r3, #1
 800318c:	1eb5      	subs	r5, r6, #2
 800318e:	6123      	str	r3, [r4, #16]
 8003190:	463a      	mov	r2, r7
 8003192:	4640      	mov	r0, r8
 8003194:	f8d4 317c 	ldr.w	r3, [r4, #380]	; 0x17c
 8003198:	4798      	blx	r3
 800319a:	462e      	mov	r6, r5
 800319c:	6825      	ldr	r5, [r4, #0]
 800319e:	f015 0510 	ands.w	r5, r5, #16
 80031a2:	d155      	bne.n	8003250 <_scanf_float+0x410>
 80031a4:	7035      	strb	r5, [r6, #0]
 80031a6:	6823      	ldr	r3, [r4, #0]
 80031a8:	f403 63c0 	and.w	r3, r3, #1536	; 0x600
 80031ac:	f5b3 6f80 	cmp.w	r3, #1024	; 0x400
 80031b0:	d11d      	bne.n	80031ee <_scanf_float+0x3ae>
 80031b2:	9b01      	ldr	r3, [sp, #4]
 80031b4:	454b      	cmp	r3, r9
 80031b6:	eba3 0209 	sub.w	r2, r3, r9
 80031ba:	d125      	bne.n	8003208 <_scanf_float+0x3c8>
 80031bc:	2200      	movs	r2, #0
 80031be:	4659      	mov	r1, fp
 80031c0:	4640      	mov	r0, r8
 80031c2:	f002 fd25 	bl	8005c10 <_strtod_r>
 80031c6:	9b03      	ldr	r3, [sp, #12]
 80031c8:	f8d4 c000 	ldr.w	ip, [r4]
 80031cc:	681b      	ldr	r3, [r3, #0]
 80031ce:	f01c 0f02 	tst.w	ip, #2
 80031d2:	4606      	mov	r6, r0
 80031d4:	460f      	mov	r7, r1
 80031d6:	f103 0204 	add.w	r2, r3, #4
 80031da:	d020      	beq.n	800321e <_scanf_float+0x3de>
 80031dc:	9903      	ldr	r1, [sp, #12]
 80031de:	600a      	str	r2, [r1, #0]
 80031e0:	681b      	ldr	r3, [r3, #0]
 80031e2:	e9c3 6700 	strd	r6, r7, [r3]
 80031e6:	68e3      	ldr	r3, [r4, #12]
 80031e8:	3301      	adds	r3, #1
 80031ea:	60e3      	str	r3, [r4, #12]
 80031ec:	e66b      	b.n	8002ec6 <_scanf_float+0x86>
 80031ee:	9b04      	ldr	r3, [sp, #16]
 80031f0:	2b00      	cmp	r3, #0
 80031f2:	d0e3      	beq.n	80031bc <_scanf_float+0x37c>
 80031f4:	9905      	ldr	r1, [sp, #20]
 80031f6:	230a      	movs	r3, #10
 80031f8:	462a      	mov	r2, r5
 80031fa:	4640      	mov	r0, r8
 80031fc:	3101      	adds	r1, #1
 80031fe:	f002 fd8b 	bl	8005d18 <_strtol_r>
 8003202:	9b04      	ldr	r3, [sp, #16]
 8003204:	9e05      	ldr	r6, [sp, #20]
 8003206:	1ac2      	subs	r2, r0, r3
 8003208:	f204 136f 	addw	r3, r4, #367	; 0x16f
 800320c:	429e      	cmp	r6, r3
 800320e:	bf28      	it	cs
 8003210:	f504 76b7 	addcs.w	r6, r4, #366	; 0x16e
 8003214:	4630      	mov	r0, r6
 8003216:	490f      	ldr	r1, [pc, #60]	; (8003254 <_scanf_float+0x414>)
 8003218:	f000 f950 	bl	80034bc <siprintf>
 800321c:	e7ce      	b.n	80031bc <_scanf_float+0x37c>
 800321e:	f01c 0f04 	tst.w	ip, #4
 8003222:	d1db      	bne.n	80031dc <_scanf_float+0x39c>
 8003224:	f8dd c00c 	ldr.w	ip, [sp, #12]
 8003228:	f8cc 2000 	str.w	r2, [ip]
 800322c:	f8d3 8000 	ldr.w	r8, [r3]
 8003230:	4602      	mov	r2, r0
 8003232:	460b      	mov	r3, r1
 8003234:	f7fd fbea 	bl	8000a0c <__aeabi_dcmpun>
 8003238:	b128      	cbz	r0, 8003246 <_scanf_float+0x406>
 800323a:	4807      	ldr	r0, [pc, #28]	; (8003258 <_scanf_float+0x418>)
 800323c:	f000 fac4 	bl	80037c8 <nanf>
 8003240:	f8c8 0000 	str.w	r0, [r8]
 8003244:	e7cf      	b.n	80031e6 <_scanf_float+0x3a6>
 8003246:	4630      	mov	r0, r6
 8003248:	4639      	mov	r1, r7
 800324a:	f7fd fc3d 	bl	8000ac8 <__aeabi_d2f>
 800324e:	e7f7      	b.n	8003240 <_scanf_float+0x400>
 8003250:	2500      	movs	r5, #0
 8003252:	e638      	b.n	8002ec6 <_scanf_float+0x86>
 8003254:	08006ef9 	.word	0x08006ef9
 8003258:	08006e30 	.word	0x08006e30

0800325c <std>:
 800325c:	2300      	movs	r3, #0
 800325e:	b510      	push	{r4, lr}
 8003260:	4604      	mov	r4, r0
 8003262:	e9c0 3300 	strd	r3, r3, [r0]
 8003266:	e9c0 3304 	strd	r3, r3, [r0, #16]
 800326a:	6083      	str	r3, [r0, #8]
 800326c:	8181      	strh	r1, [r0, #12]
 800326e:	6643      	str	r3, [r0, #100]	; 0x64
 8003270:	81c2      	strh	r2, [r0, #14]
 8003272:	6183      	str	r3, [r0, #24]
 8003274:	4619      	mov	r1, r3
 8003276:	2208      	movs	r2, #8
 8003278:	305c      	adds	r0, #92	; 0x5c
 800327a:	f000 fa17 	bl	80036ac <memset>
 800327e:	4b0d      	ldr	r3, [pc, #52]	; (80032b4 <std+0x58>)
 8003280:	6224      	str	r4, [r4, #32]
 8003282:	6263      	str	r3, [r4, #36]	; 0x24
 8003284:	4b0c      	ldr	r3, [pc, #48]	; (80032b8 <std+0x5c>)
 8003286:	62a3      	str	r3, [r4, #40]	; 0x28
 8003288:	4b0c      	ldr	r3, [pc, #48]	; (80032bc <std+0x60>)
 800328a:	62e3      	str	r3, [r4, #44]	; 0x2c
 800328c:	4b0c      	ldr	r3, [pc, #48]	; (80032c0 <std+0x64>)
 800328e:	6323      	str	r3, [r4, #48]	; 0x30
 8003290:	4b0c      	ldr	r3, [pc, #48]	; (80032c4 <std+0x68>)
 8003292:	429c      	cmp	r4, r3
 8003294:	d006      	beq.n	80032a4 <std+0x48>
 8003296:	f103 0268 	add.w	r2, r3, #104	; 0x68
 800329a:	4294      	cmp	r4, r2
 800329c:	d002      	beq.n	80032a4 <std+0x48>
 800329e:	33d0      	adds	r3, #208	; 0xd0
 80032a0:	429c      	cmp	r4, r3
 80032a2:	d105      	bne.n	80032b0 <std+0x54>
 80032a4:	f104 0058 	add.w	r0, r4, #88	; 0x58
 80032a8:	e8bd 4010 	ldmia.w	sp!, {r4, lr}
 80032ac:	f000 ba7a 	b.w	80037a4 <__retarget_lock_init_recursive>
 80032b0:	bd10      	pop	{r4, pc}
 80032b2:	bf00      	nop
 80032b4:	080034fd 	.word	0x080034fd
 80032b8:	0800351f 	.word	0x0800351f
 80032bc:	08003557 	.word	0x08003557
 80032c0:	0800357b 	.word	0x0800357b
 80032c4:	200002f4 	.word	0x200002f4

080032c8 <stdio_exit_handler>:
 80032c8:	4a02      	ldr	r2, [pc, #8]	; (80032d4 <stdio_exit_handler+0xc>)
 80032ca:	4903      	ldr	r1, [pc, #12]	; (80032d8 <stdio_exit_handler+0x10>)
 80032cc:	4803      	ldr	r0, [pc, #12]	; (80032dc <stdio_exit_handler+0x14>)
 80032ce:	f000 b869 	b.w	80033a4 <_fwalk_sglue>
 80032d2:	bf00      	nop
 80032d4:	20000028 	.word	0x20000028
 80032d8:	08006355 	.word	0x08006355
 80032dc:	20000034 	.word	0x20000034

080032e0 <cleanup_stdio>:
 80032e0:	6841      	ldr	r1, [r0, #4]
 80032e2:	4b0c      	ldr	r3, [pc, #48]	; (8003314 <cleanup_stdio+0x34>)
 80032e4:	b510      	push	{r4, lr}
 80032e6:	4299      	cmp	r1, r3
 80032e8:	4604      	mov	r4, r0
 80032ea:	d001      	beq.n	80032f0 <cleanup_stdio+0x10>
 80032ec:	f003 f832 	bl	8006354 <_fflush_r>
 80032f0:	68a1      	ldr	r1, [r4, #8]
 80032f2:	4b09      	ldr	r3, [pc, #36]	; (8003318 <cleanup_stdio+0x38>)
 80032f4:	4299      	cmp	r1, r3
 80032f6:	d002      	beq.n	80032fe <cleanup_stdio+0x1e>
 80032f8:	4620      	mov	r0, r4
 80032fa:	f003 f82b 	bl	8006354 <_fflush_r>
 80032fe:	68e1      	ldr	r1, [r4, #12]
 8003300:	4b06      	ldr	r3, [pc, #24]	; (800331c <cleanup_stdio+0x3c>)
 8003302:	4299      	cmp	r1, r3
 8003304:	d004      	beq.n	8003310 <cleanup_stdio+0x30>
 8003306:	4620      	mov	r0, r4
 8003308:	e8bd 4010 	ldmia.w	sp!, {r4, lr}
 800330c:	f003 b822 	b.w	8006354 <_fflush_r>
 8003310:	bd10      	pop	{r4, pc}
 8003312:	bf00      	nop
 8003314:	200002f4 	.word	0x200002f4
 8003318:	2000035c 	.word	0x2000035c
 800331c:	200003c4 	.word	0x200003c4

08003320 <global_stdio_init.part.0>:
 8003320:	b510      	push	{r4, lr}
 8003322:	4b0b      	ldr	r3, [pc, #44]	; (8003350 <global_stdio_init.part.0+0x30>)
 8003324:	4c0b      	ldr	r4, [pc, #44]	; (8003354 <global_stdio_init.part.0+0x34>)
 8003326:	4a0c      	ldr	r2, [pc, #48]	; (8003358 <global_stdio_init.part.0+0x38>)
 8003328:	4620      	mov	r0, r4
 800332a:	601a      	str	r2, [r3, #0]
 800332c:	2104      	movs	r1, #4
 800332e:	2200      	movs	r2, #0
 8003330:	f7ff ff94 	bl	800325c <std>
 8003334:	f104 0068 	add.w	r0, r4, #104	; 0x68
 8003338:	2201      	movs	r2, #1
 800333a:	2109      	movs	r1, #9
 800333c:	f7ff ff8e 	bl	800325c <std>
 8003340:	f104 00d0 	add.w	r0, r4, #208	; 0xd0
 8003344:	2202      	movs	r2, #2
 8003346:	e8bd 4010 	ldmia.w	sp!, {r4, lr}
 800334a:	2112      	movs	r1, #18
 800334c:	f7ff bf86 	b.w	800325c <std>
 8003350:	2000042c 	.word	0x2000042c
 8003354:	200002f4 	.word	0x200002f4
 8003358:	080032c9 	.word	0x080032c9

0800335c <__sfp_lock_acquire>:
 800335c:	4801      	ldr	r0, [pc, #4]	; (8003364 <__sfp_lock_acquire+0x8>)
 800335e:	f000 ba22 	b.w	80037a6 <__retarget_lock_acquire_recursive>
 8003362:	bf00      	nop
 8003364:	20000435 	.word	0x20000435

08003368 <__sfp_lock_release>:
 8003368:	4801      	ldr	r0, [pc, #4]	; (8003370 <__sfp_lock_release+0x8>)
 800336a:	f000 ba1d 	b.w	80037a8 <__retarget_lock_release_recursive>
 800336e:	bf00      	nop
 8003370:	20000435 	.word	0x20000435

08003374 <__sinit>:
 8003374:	b510      	push	{r4, lr}
 8003376:	4604      	mov	r4, r0
 8003378:	f7ff fff0 	bl	800335c <__sfp_lock_acquire>
 800337c:	6a23      	ldr	r3, [r4, #32]
 800337e:	b11b      	cbz	r3, 8003388 <__sinit+0x14>
 8003380:	e8bd 4010 	ldmia.w	sp!, {r4, lr}
 8003384:	f7ff bff0 	b.w	8003368 <__sfp_lock_release>
 8003388:	4b04      	ldr	r3, [pc, #16]	; (800339c <__sinit+0x28>)
 800338a:	6223      	str	r3, [r4, #32]
 800338c:	4b04      	ldr	r3, [pc, #16]	; (80033a0 <__sinit+0x2c>)
 800338e:	681b      	ldr	r3, [r3, #0]
 8003390:	2b00      	cmp	r3, #0
 8003392:	d1f5      	bne.n	8003380 <__sinit+0xc>
 8003394:	f7ff ffc4 	bl	8003320 <global_stdio_init.part.0>
 8003398:	e7f2      	b.n	8003380 <__sinit+0xc>
 800339a:	bf00      	nop
 800339c:	080032e1 	.word	0x080032e1
 80033a0:	2000042c 	.word	0x2000042c

080033a4 <_fwalk_sglue>:
 80033a4:	e92d 43f8 	stmdb	sp!, {r3, r4, r5, r6, r7, r8, r9, lr}
 80033a8:	4607      	mov	r7, r0
 80033aa:	4688      	mov	r8, r1
 80033ac:	4614      	mov	r4, r2
 80033ae:	2600      	movs	r6, #0
 80033b0:	e9d4 9501 	ldrd	r9, r5, [r4, #4]
 80033b4:	f1b9 0901 	subs.w	r9, r9, #1
 80033b8:	d505      	bpl.n	80033c6 <_fwalk_sglue+0x22>
 80033ba:	6824      	ldr	r4, [r4, #0]
 80033bc:	2c00      	cmp	r4, #0
 80033be:	d1f7      	bne.n	80033b0 <_fwalk_sglue+0xc>
 80033c0:	4630      	mov	r0, r6
 80033c2:	e8bd 83f8 	ldmia.w	sp!, {r3, r4, r5, r6, r7, r8, r9, pc}
 80033c6:	89ab      	ldrh	r3, [r5, #12]
 80033c8:	2b01      	cmp	r3, #1
 80033ca:	d907      	bls.n	80033dc <_fwalk_sglue+0x38>
 80033cc:	f9b5 300e 	ldrsh.w	r3, [r5, #14]
 80033d0:	3301      	adds	r3, #1
 80033d2:	d003      	beq.n	80033dc <_fwalk_sglue+0x38>
 80033d4:	4629      	mov	r1, r5
 80033d6:	4638      	mov	r0, r7
 80033d8:	47c0      	blx	r8
 80033da:	4306      	orrs	r6, r0
 80033dc:	3568      	adds	r5, #104	; 0x68
 80033de:	e7e9      	b.n	80033b4 <_fwalk_sglue+0x10>

080033e0 <iprintf>:
 80033e0:	b40f      	push	{r0, r1, r2, r3}
 80033e2:	b507      	push	{r0, r1, r2, lr}
 80033e4:	4906      	ldr	r1, [pc, #24]	; (8003400 <iprintf+0x20>)
 80033e6:	ab04      	add	r3, sp, #16
 80033e8:	6808      	ldr	r0, [r1, #0]
 80033ea:	f853 2b04 	ldr.w	r2, [r3], #4
 80033ee:	6881      	ldr	r1, [r0, #8]
 80033f0:	9301      	str	r3, [sp, #4]
 80033f2:	f002 fe13 	bl	800601c <_vfiprintf_r>
 80033f6:	b003      	add	sp, #12
 80033f8:	f85d eb04 	ldr.w	lr, [sp], #4
 80033fc:	b004      	add	sp, #16
 80033fe:	4770      	bx	lr
 8003400:	20000080 	.word	0x20000080

08003404 <_puts_r>:
 8003404:	6a03      	ldr	r3, [r0, #32]
 8003406:	b570      	push	{r4, r5, r6, lr}
 8003408:	4605      	mov	r5, r0
 800340a:	460e      	mov	r6, r1
 800340c:	6884      	ldr	r4, [r0, #8]
 800340e:	b90b      	cbnz	r3, 8003414 <_puts_r+0x10>
 8003410:	f7ff ffb0 	bl	8003374 <__sinit>
 8003414:	6e63      	ldr	r3, [r4, #100]	; 0x64
 8003416:	07db      	lsls	r3, r3, #31
 8003418:	d405      	bmi.n	8003426 <_puts_r+0x22>
 800341a:	89a3      	ldrh	r3, [r4, #12]
 800341c:	0598      	lsls	r0, r3, #22
 800341e:	d402      	bmi.n	8003426 <_puts_r+0x22>
 8003420:	6da0      	ldr	r0, [r4, #88]	; 0x58
 8003422:	f000 f9c0 	bl	80037a6 <__retarget_lock_acquire_recursive>
 8003426:	89a3      	ldrh	r3, [r4, #12]
 8003428:	0719      	lsls	r1, r3, #28
 800342a:	d513      	bpl.n	8003454 <_puts_r+0x50>
 800342c:	6923      	ldr	r3, [r4, #16]
 800342e:	b18b      	cbz	r3, 8003454 <_puts_r+0x50>
 8003430:	3e01      	subs	r6, #1
 8003432:	68a3      	ldr	r3, [r4, #8]
 8003434:	f816 1f01 	ldrb.w	r1, [r6, #1]!
 8003438:	3b01      	subs	r3, #1
 800343a:	60a3      	str	r3, [r4, #8]
 800343c:	b9e9      	cbnz	r1, 800347a <_puts_r+0x76>
 800343e:	2b00      	cmp	r3, #0
 8003440:	da2e      	bge.n	80034a0 <_puts_r+0x9c>
 8003442:	4622      	mov	r2, r4
 8003444:	210a      	movs	r1, #10
 8003446:	4628      	mov	r0, r5
 8003448:	f000 f89b 	bl	8003582 <__swbuf_r>
 800344c:	3001      	adds	r0, #1
 800344e:	d007      	beq.n	8003460 <_puts_r+0x5c>
 8003450:	250a      	movs	r5, #10
 8003452:	e007      	b.n	8003464 <_puts_r+0x60>
 8003454:	4621      	mov	r1, r4
 8003456:	4628      	mov	r0, r5
 8003458:	f000 f8d0 	bl	80035fc <__swsetup_r>
 800345c:	2800      	cmp	r0, #0
 800345e:	d0e7      	beq.n	8003430 <_puts_r+0x2c>
 8003460:	f04f 35ff 	mov.w	r5, #4294967295
 8003464:	6e63      	ldr	r3, [r4, #100]	; 0x64
 8003466:	07da      	lsls	r2, r3, #31
 8003468:	d405      	bmi.n	8003476 <_puts_r+0x72>
 800346a:	89a3      	ldrh	r3, [r4, #12]
 800346c:	059b      	lsls	r3, r3, #22
 800346e:	d402      	bmi.n	8003476 <_puts_r+0x72>
 8003470:	6da0      	ldr	r0, [r4, #88]	; 0x58
 8003472:	f000 f999 	bl	80037a8 <__retarget_lock_release_recursive>
 8003476:	4628      	mov	r0, r5
 8003478:	bd70      	pop	{r4, r5, r6, pc}
 800347a:	2b00      	cmp	r3, #0
 800347c:	da04      	bge.n	8003488 <_puts_r+0x84>
 800347e:	69a2      	ldr	r2, [r4, #24]
 8003480:	429a      	cmp	r2, r3
 8003482:	dc06      	bgt.n	8003492 <_puts_r+0x8e>
 8003484:	290a      	cmp	r1, #10
 8003486:	d004      	beq.n	8003492 <_puts_r+0x8e>
 8003488:	6823      	ldr	r3, [r4, #0]
 800348a:	1c5a      	adds	r2, r3, #1
 800348c:	6022      	str	r2, [r4, #0]
 800348e:	7019      	strb	r1, [r3, #0]
 8003490:	e7cf      	b.n	8003432 <_puts_r+0x2e>
 8003492:	4622      	mov	r2, r4
 8003494:	4628      	mov	r0, r5
 8003496:	f000 f874 	bl	8003582 <__swbuf_r>
 800349a:	3001      	adds	r0, #1
 800349c:	d1c9      	bne.n	8003432 <_puts_r+0x2e>
 800349e:	e7df      	b.n	8003460 <_puts_r+0x5c>
 80034a0:	250a      	movs	r5, #10
 80034a2:	6823      	ldr	r3, [r4, #0]
 80034a4:	1c5a      	adds	r2, r3, #1
 80034a6:	6022      	str	r2, [r4, #0]
 80034a8:	701d      	strb	r5, [r3, #0]
 80034aa:	e7db      	b.n	8003464 <_puts_r+0x60>

080034ac <puts>:
 80034ac:	4b02      	ldr	r3, [pc, #8]	; (80034b8 <puts+0xc>)
 80034ae:	4601      	mov	r1, r0
 80034b0:	6818      	ldr	r0, [r3, #0]
 80034b2:	f7ff bfa7 	b.w	8003404 <_puts_r>
 80034b6:	bf00      	nop
 80034b8:	20000080 	.word	0x20000080

080034bc <siprintf>:
 80034bc:	b40e      	push	{r1, r2, r3}
 80034be:	f06f 4100 	mvn.w	r1, #2147483648	; 0x80000000
 80034c2:	b500      	push	{lr}
 80034c4:	b09c      	sub	sp, #112	; 0x70
 80034c6:	ab1d      	add	r3, sp, #116	; 0x74
 80034c8:	9002      	str	r0, [sp, #8]
 80034ca:	9006      	str	r0, [sp, #24]
 80034cc:	9107      	str	r1, [sp, #28]
 80034ce:	9104      	str	r1, [sp, #16]
 80034d0:	4808      	ldr	r0, [pc, #32]	; (80034f4 <siprintf+0x38>)
 80034d2:	4909      	ldr	r1, [pc, #36]	; (80034f8 <siprintf+0x3c>)
 80034d4:	f853 2b04 	ldr.w	r2, [r3], #4
 80034d8:	9105      	str	r1, [sp, #20]
 80034da:	6800      	ldr	r0, [r0, #0]
 80034dc:	a902      	add	r1, sp, #8
 80034de:	9301      	str	r3, [sp, #4]
 80034e0:	f002 fc76 	bl	8005dd0 <_svfiprintf_r>
 80034e4:	2200      	movs	r2, #0
 80034e6:	9b02      	ldr	r3, [sp, #8]
 80034e8:	701a      	strb	r2, [r3, #0]
 80034ea:	b01c      	add	sp, #112	; 0x70
 80034ec:	f85d eb04 	ldr.w	lr, [sp], #4
 80034f0:	b003      	add	sp, #12
 80034f2:	4770      	bx	lr
 80034f4:	20000080 	.word	0x20000080
 80034f8:	ffff0208 	.word	0xffff0208

080034fc <__sread>:
 80034fc:	b510      	push	{r4, lr}
 80034fe:	460c      	mov	r4, r1
 8003500:	f9b1 100e 	ldrsh.w	r1, [r1, #14]
 8003504:	f000 f900 	bl	8003708 <_read_r>
 8003508:	2800      	cmp	r0, #0
 800350a:	bfab      	itete	ge
 800350c:	6d63      	ldrge	r3, [r4, #84]	; 0x54
 800350e:	89a3      	ldrhlt	r3, [r4, #12]
 8003510:	181b      	addge	r3, r3, r0
 8003512:	f423 5380 	biclt.w	r3, r3, #4096	; 0x1000
 8003516:	bfac      	ite	ge
 8003518:	6563      	strge	r3, [r4, #84]	; 0x54
 800351a:	81a3      	strhlt	r3, [r4, #12]
 800351c:	bd10      	pop	{r4, pc}

0800351e <__swrite>:
 800351e:	e92d 41f0 	stmdb	sp!, {r4, r5, r6, r7, r8, lr}
 8003522:	461f      	mov	r7, r3
 8003524:	898b      	ldrh	r3, [r1, #12]
 8003526:	4605      	mov	r5, r0
 8003528:	05db      	lsls	r3, r3, #23
 800352a:	460c      	mov	r4, r1
 800352c:	4616      	mov	r6, r2
 800352e:	d505      	bpl.n	800353c <__swrite+0x1e>
 8003530:	2302      	movs	r3, #2
 8003532:	2200      	movs	r2, #0
 8003534:	f9b1 100e 	ldrsh.w	r1, [r1, #14]
 8003538:	f000 f8d4 	bl	80036e4 <_lseek_r>
 800353c:	89a3      	ldrh	r3, [r4, #12]
 800353e:	4632      	mov	r2, r6
 8003540:	f423 5380 	bic.w	r3, r3, #4096	; 0x1000
 8003544:	81a3      	strh	r3, [r4, #12]
 8003546:	4628      	mov	r0, r5
 8003548:	463b      	mov	r3, r7
 800354a:	f9b4 100e 	ldrsh.w	r1, [r4, #14]
 800354e:	e8bd 41f0 	ldmia.w	sp!, {r4, r5, r6, r7, r8, lr}
 8003552:	f000 b8eb 	b.w	800372c <_write_r>

08003556 <__sseek>:
 8003556:	b510      	push	{r4, lr}
 8003558:	460c      	mov	r4, r1
 800355a:	f9b1 100e 	ldrsh.w	r1, [r1, #14]
 800355e:	f000 f8c1 	bl	80036e4 <_lseek_r>
 8003562:	1c43      	adds	r3, r0, #1
 8003564:	89a3      	ldrh	r3, [r4, #12]
 8003566:	bf15      	itete	ne
 8003568:	6560      	strne	r0, [r4, #84]	; 0x54
 800356a:	f423 5380 	biceq.w	r3, r3, #4096	; 0x1000
 800356e:	f443 5380 	orrne.w	r3, r3, #4096	; 0x1000
 8003572:	81a3      	strheq	r3, [r4, #12]
 8003574:	bf18      	it	ne
 8003576:	81a3      	strhne	r3, [r4, #12]
 8003578:	bd10      	pop	{r4, pc}

0800357a <__sclose>:
 800357a:	f9b1 100e 	ldrsh.w	r1, [r1, #14]
 800357e:	f000 b8a1 	b.w	80036c4 <_close_r>

08003582 <__swbuf_r>:
 8003582:	b5f8      	push	{r3, r4, r5, r6, r7, lr}
 8003584:	460e      	mov	r6, r1
 8003586:	4614      	mov	r4, r2
 8003588:	4605      	mov	r5, r0
 800358a:	b118      	cbz	r0, 8003594 <__swbuf_r+0x12>
 800358c:	6a03      	ldr	r3, [r0, #32]
 800358e:	b90b      	cbnz	r3, 8003594 <__swbuf_r+0x12>
 8003590:	f7ff fef0 	bl	8003374 <__sinit>
 8003594:	69a3      	ldr	r3, [r4, #24]
 8003596:	60a3      	str	r3, [r4, #8]
 8003598:	89a3      	ldrh	r3, [r4, #12]
 800359a:	071a      	lsls	r2, r3, #28
 800359c:	d525      	bpl.n	80035ea <__swbuf_r+0x68>
 800359e:	6923      	ldr	r3, [r4, #16]
 80035a0:	b31b      	cbz	r3, 80035ea <__swbuf_r+0x68>
 80035a2:	6823      	ldr	r3, [r4, #0]
 80035a4:	6922      	ldr	r2, [r4, #16]
 80035a6:	b2f6      	uxtb	r6, r6
 80035a8:	1a98      	subs	r0, r3, r2
 80035aa:	6963      	ldr	r3, [r4, #20]
 80035ac:	4637      	mov	r7, r6
 80035ae:	4283      	cmp	r3, r0
 80035b0:	dc04      	bgt.n	80035bc <__swbuf_r+0x3a>
 80035b2:	4621      	mov	r1, r4
 80035b4:	4628      	mov	r0, r5
 80035b6:	f002 fecd 	bl	8006354 <_fflush_r>
 80035ba:	b9e0      	cbnz	r0, 80035f6 <__swbuf_r+0x74>
 80035bc:	68a3      	ldr	r3, [r4, #8]
 80035be:	3b01      	subs	r3, #1
 80035c0:	60a3      	str	r3, [r4, #8]
 80035c2:	6823      	ldr	r3, [r4, #0]
 80035c4:	1c5a      	adds	r2, r3, #1
 80035c6:	6022      	str	r2, [r4, #0]
 80035c8:	701e      	strb	r6, [r3, #0]
 80035ca:	6962      	ldr	r2, [r4, #20]
 80035cc:	1c43      	adds	r3, r0, #1
 80035ce:	429a      	cmp	r2, r3
 80035d0:	d004      	beq.n	80035dc <__swbuf_r+0x5a>
 80035d2:	89a3      	ldrh	r3, [r4, #12]
 80035d4:	07db      	lsls	r3, r3, #31
 80035d6:	d506      	bpl.n	80035e6 <__swbuf_r+0x64>
 80035d8:	2e0a      	cmp	r6, #10
 80035da:	d104      	bne.n	80035e6 <__swbuf_r+0x64>
 80035dc:	4621      	mov	r1, r4
 80035de:	4628      	mov	r0, r5
 80035e0:	f002 feb8 	bl	8006354 <_fflush_r>
 80035e4:	b938      	cbnz	r0, 80035f6 <__swbuf_r+0x74>
 80035e6:	4638      	mov	r0, r7
 80035e8:	bdf8      	pop	{r3, r4, r5, r6, r7, pc}
 80035ea:	4621      	mov	r1, r4
 80035ec:	4628      	mov	r0, r5
 80035ee:	f000 f805 	bl	80035fc <__swsetup_r>
 80035f2:	2800      	cmp	r0, #0
 80035f4:	d0d5      	beq.n	80035a2 <__swbuf_r+0x20>
 80035f6:	f04f 37ff 	mov.w	r7, #4294967295
 80035fa:	e7f4      	b.n	80035e6 <__swbuf_r+0x64>

080035fc <__swsetup_r>:
 80035fc:	b538      	push	{r3, r4, r5, lr}
 80035fe:	4b2a      	ldr	r3, [pc, #168]	; (80036a8 <__swsetup_r+0xac>)
 8003600:	4605      	mov	r5, r0
 8003602:	6818      	ldr	r0, [r3, #0]
 8003604:	460c      	mov	r4, r1
 8003606:	b118      	cbz	r0, 8003610 <__swsetup_r+0x14>
 8003608:	6a03      	ldr	r3, [r0, #32]
 800360a:	b90b      	cbnz	r3, 8003610 <__swsetup_r+0x14>
 800360c:	f7ff feb2 	bl	8003374 <__sinit>
 8003610:	89a3      	ldrh	r3, [r4, #12]
 8003612:	f9b4 200c 	ldrsh.w	r2, [r4, #12]
 8003616:	0718      	lsls	r0, r3, #28
 8003618:	d422      	bmi.n	8003660 <__swsetup_r+0x64>
 800361a:	06d9      	lsls	r1, r3, #27
 800361c:	d407      	bmi.n	800362e <__swsetup_r+0x32>
 800361e:	2309      	movs	r3, #9
 8003620:	602b      	str	r3, [r5, #0]
 8003622:	f042 0340 	orr.w	r3, r2, #64	; 0x40
 8003626:	f04f 30ff 	mov.w	r0, #4294967295
 800362a:	81a3      	strh	r3, [r4, #12]
 800362c:	e034      	b.n	8003698 <__swsetup_r+0x9c>
 800362e:	0758      	lsls	r0, r3, #29
 8003630:	d512      	bpl.n	8003658 <__swsetup_r+0x5c>
 8003632:	6b61      	ldr	r1, [r4, #52]	; 0x34
 8003634:	b141      	cbz	r1, 8003648 <__swsetup_r+0x4c>
 8003636:	f104 0344 	add.w	r3, r4, #68	; 0x44
 800363a:	4299      	cmp	r1, r3
 800363c:	d002      	beq.n	8003644 <__swsetup_r+0x48>
 800363e:	4628      	mov	r0, r5
 8003640:	f000 ff36 	bl	80044b0 <_free_r>
 8003644:	2300      	movs	r3, #0
 8003646:	6363      	str	r3, [r4, #52]	; 0x34
 8003648:	89a3      	ldrh	r3, [r4, #12]
 800364a:	f023 0324 	bic.w	r3, r3, #36	; 0x24
 800364e:	81a3      	strh	r3, [r4, #12]
 8003650:	2300      	movs	r3, #0
 8003652:	6063      	str	r3, [r4, #4]
 8003654:	6923      	ldr	r3, [r4, #16]
 8003656:	6023      	str	r3, [r4, #0]
 8003658:	89a3      	ldrh	r3, [r4, #12]
 800365a:	f043 0308 	orr.w	r3, r3, #8
 800365e:	81a3      	strh	r3, [r4, #12]
 8003660:	6923      	ldr	r3, [r4, #16]
 8003662:	b94b      	cbnz	r3, 8003678 <__swsetup_r+0x7c>
 8003664:	89a3      	ldrh	r3, [r4, #12]
 8003666:	f403 7320 	and.w	r3, r3, #640	; 0x280
 800366a:	f5b3 7f00 	cmp.w	r3, #512	; 0x200
 800366e:	d003      	beq.n	8003678 <__swsetup_r+0x7c>
 8003670:	4621      	mov	r1, r4
 8003672:	4628      	mov	r0, r5
 8003674:	f002 febb 	bl	80063ee <__smakebuf_r>
 8003678:	89a0      	ldrh	r0, [r4, #12]
 800367a:	f9b4 200c 	ldrsh.w	r2, [r4, #12]
 800367e:	f010 0301 	ands.w	r3, r0, #1
 8003682:	d00a      	beq.n	800369a <__swsetup_r+0x9e>
 8003684:	2300      	movs	r3, #0
 8003686:	60a3      	str	r3, [r4, #8]
 8003688:	6963      	ldr	r3, [r4, #20]
 800368a:	425b      	negs	r3, r3
 800368c:	61a3      	str	r3, [r4, #24]
 800368e:	6923      	ldr	r3, [r4, #16]
 8003690:	b943      	cbnz	r3, 80036a4 <__swsetup_r+0xa8>
 8003692:	f010 0080 	ands.w	r0, r0, #128	; 0x80
 8003696:	d1c4      	bne.n	8003622 <__swsetup_r+0x26>
 8003698:	bd38      	pop	{r3, r4, r5, pc}
 800369a:	0781      	lsls	r1, r0, #30
 800369c:	bf58      	it	pl
 800369e:	6963      	ldrpl	r3, [r4, #20]
 80036a0:	60a3      	str	r3, [r4, #8]
 80036a2:	e7f4      	b.n	800368e <__swsetup_r+0x92>
 80036a4:	2000      	movs	r0, #0
 80036a6:	e7f7      	b.n	8003698 <__swsetup_r+0x9c>
 80036a8:	20000080 	.word	0x20000080

080036ac <memset>:
 80036ac:	4603      	mov	r3, r0
 80036ae:	4402      	add	r2, r0
 80036b0:	4293      	cmp	r3, r2
 80036b2:	d100      	bne.n	80036b6 <memset+0xa>
 80036b4:	4770      	bx	lr
 80036b6:	f803 1b01 	strb.w	r1, [r3], #1
 80036ba:	e7f9      	b.n	80036b0 <memset+0x4>

080036bc <_localeconv_r>:
 80036bc:	4800      	ldr	r0, [pc, #0]	; (80036c0 <_localeconv_r+0x4>)
 80036be:	4770      	bx	lr
 80036c0:	20000174 	.word	0x20000174

080036c4 <_close_r>:
 80036c4:	b538      	push	{r3, r4, r5, lr}
 80036c6:	2300      	movs	r3, #0
 80036c8:	4d05      	ldr	r5, [pc, #20]	; (80036e0 <_close_r+0x1c>)
 80036ca:	4604      	mov	r4, r0
 80036cc:	4608      	mov	r0, r1
 80036ce:	602b      	str	r3, [r5, #0]
 80036d0:	f7fd fd7a 	bl	80011c8 <_close>
 80036d4:	1c43      	adds	r3, r0, #1
 80036d6:	d102      	bne.n	80036de <_close_r+0x1a>
 80036d8:	682b      	ldr	r3, [r5, #0]
 80036da:	b103      	cbz	r3, 80036de <_close_r+0x1a>
 80036dc:	6023      	str	r3, [r4, #0]
 80036de:	bd38      	pop	{r3, r4, r5, pc}
 80036e0:	20000430 	.word	0x20000430

080036e4 <_lseek_r>:
 80036e4:	b538      	push	{r3, r4, r5, lr}
 80036e6:	4604      	mov	r4, r0
 80036e8:	4608      	mov	r0, r1
 80036ea:	4611      	mov	r1, r2
 80036ec:	2200      	movs	r2, #0
 80036ee:	4d05      	ldr	r5, [pc, #20]	; (8003704 <_lseek_r+0x20>)
 80036f0:	602a      	str	r2, [r5, #0]
 80036f2:	461a      	mov	r2, r3
 80036f4:	f7fd fd72 	bl	80011dc <_lseek>
 80036f8:	1c43      	adds	r3, r0, #1
 80036fa:	d102      	bne.n	8003702 <_lseek_r+0x1e>
 80036fc:	682b      	ldr	r3, [r5, #0]
 80036fe:	b103      	cbz	r3, 8003702 <_lseek_r+0x1e>
 8003700:	6023      	str	r3, [r4, #0]
 8003702:	bd38      	pop	{r3, r4, r5, pc}
 8003704:	20000430 	.word	0x20000430

08003708 <_read_r>:
 8003708:	b538      	push	{r3, r4, r5, lr}
 800370a:	4604      	mov	r4, r0
 800370c:	4608      	mov	r0, r1
 800370e:	4611      	mov	r1, r2
 8003710:	2200      	movs	r2, #0
 8003712:	4d05      	ldr	r5, [pc, #20]	; (8003728 <_read_r+0x20>)
 8003714:	602a      	str	r2, [r5, #0]
 8003716:	461a      	mov	r2, r3
 8003718:	f7fd fd3a 	bl	8001190 <_read>
 800371c:	1c43      	adds	r3, r0, #1
 800371e:	d102      	bne.n	8003726 <_read_r+0x1e>
 8003720:	682b      	ldr	r3, [r5, #0]
 8003722:	b103      	cbz	r3, 8003726 <_read_r+0x1e>
 8003724:	6023      	str	r3, [r4, #0]
 8003726:	bd38      	pop	{r3, r4, r5, pc}
 8003728:	20000430 	.word	0x20000430

0800372c <_write_r>:
 800372c:	b538      	push	{r3, r4, r5, lr}
 800372e:	4604      	mov	r4, r0
 8003730:	4608      	mov	r0, r1
 8003732:	4611      	mov	r1, r2
 8003734:	2200      	movs	r2, #0
 8003736:	4d05      	ldr	r5, [pc, #20]	; (800374c <_write_r+0x20>)
 8003738:	602a      	str	r2, [r5, #0]
 800373a:	461a      	mov	r2, r3
 800373c:	f7fd fd36 	bl	80011ac <_write>
 8003740:	1c43      	adds	r3, r0, #1
 8003742:	d102      	bne.n	800374a <_write_r+0x1e>
 8003744:	682b      	ldr	r3, [r5, #0]
 8003746:	b103      	cbz	r3, 800374a <_write_r+0x1e>
 8003748:	6023      	str	r3, [r4, #0]
 800374a:	bd38      	pop	{r3, r4, r5, pc}
 800374c:	20000430 	.word	0x20000430

08003750 <__errno>:
 8003750:	4b01      	ldr	r3, [pc, #4]	; (8003758 <__errno+0x8>)
 8003752:	6818      	ldr	r0, [r3, #0]
 8003754:	4770      	bx	lr
 8003756:	bf00      	nop
 8003758:	20000080 	.word	0x20000080

0800375c <__libc_init_array>:
 800375c:	b570      	push	{r4, r5, r6, lr}
 800375e:	2600      	movs	r6, #0
 8003760:	4d0c      	ldr	r5, [pc, #48]	; (8003794 <__libc_init_array+0x38>)
 8003762:	4c0d      	ldr	r4, [pc, #52]	; (8003798 <__libc_init_array+0x3c>)
 8003764:	1b64      	subs	r4, r4, r5
 8003766:	10a4      	asrs	r4, r4, #2
 8003768:	42a6      	cmp	r6, r4
 800376a:	d109      	bne.n	8003780 <__libc_init_array+0x24>
 800376c:	f003 fb2e 	bl	8006dcc <_init>
 8003770:	2600      	movs	r6, #0
 8003772:	4d0a      	ldr	r5, [pc, #40]	; (800379c <__libc_init_array+0x40>)
 8003774:	4c0a      	ldr	r4, [pc, #40]	; (80037a0 <__libc_init_array+0x44>)
 8003776:	1b64      	subs	r4, r4, r5
 8003778:	10a4      	asrs	r4, r4, #2
 800377a:	42a6      	cmp	r6, r4
 800377c:	d105      	bne.n	800378a <__libc_init_array+0x2e>
 800377e:	bd70      	pop	{r4, r5, r6, pc}
 8003780:	f855 3b04 	ldr.w	r3, [r5], #4
 8003784:	4798      	blx	r3
 8003786:	3601      	adds	r6, #1
 8003788:	e7ee      	b.n	8003768 <__libc_init_array+0xc>
 800378a:	f855 3b04 	ldr.w	r3, [r5], #4
 800378e:	4798      	blx	r3
 8003790:	3601      	adds	r6, #1
 8003792:	e7f2      	b.n	800377a <__libc_init_array+0x1e>
 8003794:	080072f0 	.word	0x080072f0
 8003798:	080072f0 	.word	0x080072f0
 800379c:	080072f0 	.word	0x080072f0
 80037a0:	080072f4 	.word	0x080072f4

080037a4 <__retarget_lock_init_recursive>:
 80037a4:	4770      	bx	lr

080037a6 <__retarget_lock_acquire_recursive>:
 80037a6:	4770      	bx	lr

080037a8 <__retarget_lock_release_recursive>:
 80037a8:	4770      	bx	lr

080037aa <memchr>:
 80037aa:	4603      	mov	r3, r0
 80037ac:	b510      	push	{r4, lr}
 80037ae:	b2c9      	uxtb	r1, r1
 80037b0:	4402      	add	r2, r0
 80037b2:	4293      	cmp	r3, r2
 80037b4:	4618      	mov	r0, r3
 80037b6:	d101      	bne.n	80037bc <memchr+0x12>
 80037b8:	2000      	movs	r0, #0
 80037ba:	e003      	b.n	80037c4 <memchr+0x1a>
 80037bc:	7804      	ldrb	r4, [r0, #0]
 80037be:	3301      	adds	r3, #1
 80037c0:	428c      	cmp	r4, r1
 80037c2:	d1f6      	bne.n	80037b2 <memchr+0x8>
 80037c4:	bd10      	pop	{r4, pc}
	...

080037c8 <nanf>:
 80037c8:	4800      	ldr	r0, [pc, #0]	; (80037cc <nanf+0x4>)
 80037ca:	4770      	bx	lr
 80037cc:	7fc00000 	.word	0x7fc00000

080037d0 <quorem>:
 80037d0:	e92d 4ff7 	stmdb	sp!, {r0, r1, r2, r4, r5, r6, r7, r8, r9, sl, fp, lr}
 80037d4:	6903      	ldr	r3, [r0, #16]
 80037d6:	690c      	ldr	r4, [r1, #16]
 80037d8:	4607      	mov	r7, r0
 80037da:	42a3      	cmp	r3, r4
 80037dc:	db7f      	blt.n	80038de <quorem+0x10e>
 80037de:	3c01      	subs	r4, #1
 80037e0:	f100 0514 	add.w	r5, r0, #20
 80037e4:	f101 0814 	add.w	r8, r1, #20
 80037e8:	eb05 0384 	add.w	r3, r5, r4, lsl #2
 80037ec:	9301      	str	r3, [sp, #4]
 80037ee:	f858 3024 	ldr.w	r3, [r8, r4, lsl #2]
 80037f2:	f855 2024 	ldr.w	r2, [r5, r4, lsl #2]
 80037f6:	3301      	adds	r3, #1
 80037f8:	429a      	cmp	r2, r3
 80037fa:	fbb2 f6f3 	udiv	r6, r2, r3
 80037fe:	ea4f 0b84 	mov.w	fp, r4, lsl #2
 8003802:	eb08 0984 	add.w	r9, r8, r4, lsl #2
 8003806:	d331      	bcc.n	800386c <quorem+0x9c>
 8003808:	f04f 0e00 	mov.w	lr, #0
 800380c:	4640      	mov	r0, r8
 800380e:	46ac      	mov	ip, r5
 8003810:	46f2      	mov	sl, lr
 8003812:	f850 2b04 	ldr.w	r2, [r0], #4
 8003816:	b293      	uxth	r3, r2
 8003818:	fb06 e303 	mla	r3, r6, r3, lr
 800381c:	ea4f 4e12 	mov.w	lr, r2, lsr #16
 8003820:	0c1a      	lsrs	r2, r3, #16
 8003822:	b29b      	uxth	r3, r3
 8003824:	fb06 220e 	mla	r2, r6, lr, r2
 8003828:	ebaa 0303 	sub.w	r3, sl, r3
 800382c:	f8dc a000 	ldr.w	sl, [ip]
 8003830:	ea4f 4e12 	mov.w	lr, r2, lsr #16
 8003834:	fa1f fa8a 	uxth.w	sl, sl
 8003838:	4453      	add	r3, sl
 800383a:	f8dc a000 	ldr.w	sl, [ip]
 800383e:	b292      	uxth	r2, r2
 8003840:	ebc2 421a 	rsb	r2, r2, sl, lsr #16
 8003844:	eb02 4223 	add.w	r2, r2, r3, asr #16
 8003848:	b29b      	uxth	r3, r3
 800384a:	ea43 4302 	orr.w	r3, r3, r2, lsl #16
 800384e:	4581      	cmp	r9, r0
 8003850:	ea4f 4a22 	mov.w	sl, r2, asr #16
 8003854:	f84c 3b04 	str.w	r3, [ip], #4
 8003858:	d2db      	bcs.n	8003812 <quorem+0x42>
 800385a:	f855 300b 	ldr.w	r3, [r5, fp]
 800385e:	b92b      	cbnz	r3, 800386c <quorem+0x9c>
 8003860:	9b01      	ldr	r3, [sp, #4]
 8003862:	3b04      	subs	r3, #4
 8003864:	429d      	cmp	r5, r3
 8003866:	461a      	mov	r2, r3
 8003868:	d32d      	bcc.n	80038c6 <quorem+0xf6>
 800386a:	613c      	str	r4, [r7, #16]
 800386c:	4638      	mov	r0, r7
 800386e:	f001 f9df 	bl	8004c30 <__mcmp>
 8003872:	2800      	cmp	r0, #0
 8003874:	db23      	blt.n	80038be <quorem+0xee>
 8003876:	4629      	mov	r1, r5
 8003878:	2000      	movs	r0, #0
 800387a:	3601      	adds	r6, #1
 800387c:	f858 2b04 	ldr.w	r2, [r8], #4
 8003880:	f8d1 c000 	ldr.w	ip, [r1]
 8003884:	b293      	uxth	r3, r2
 8003886:	1ac3      	subs	r3, r0, r3
 8003888:	0c12      	lsrs	r2, r2, #16
 800388a:	fa1f f08c 	uxth.w	r0, ip
 800388e:	4403      	add	r3, r0
 8003890:	ebc2 421c 	rsb	r2, r2, ip, lsr #16
 8003894:	eb02 4223 	add.w	r2, r2, r3, asr #16
 8003898:	b29b      	uxth	r3, r3
 800389a:	ea43 4302 	orr.w	r3, r3, r2, lsl #16
 800389e:	45c1      	cmp	r9, r8
 80038a0:	ea4f 4022 	mov.w	r0, r2, asr #16
 80038a4:	f841 3b04 	str.w	r3, [r1], #4
 80038a8:	d2e8      	bcs.n	800387c <quorem+0xac>
 80038aa:	f855 2024 	ldr.w	r2, [r5, r4, lsl #2]
 80038ae:	eb05 0384 	add.w	r3, r5, r4, lsl #2
 80038b2:	b922      	cbnz	r2, 80038be <quorem+0xee>
 80038b4:	3b04      	subs	r3, #4
 80038b6:	429d      	cmp	r5, r3
 80038b8:	461a      	mov	r2, r3
 80038ba:	d30a      	bcc.n	80038d2 <quorem+0x102>
 80038bc:	613c      	str	r4, [r7, #16]
 80038be:	4630      	mov	r0, r6
 80038c0:	b003      	add	sp, #12
 80038c2:	e8bd 8ff0 	ldmia.w	sp!, {r4, r5, r6, r7, r8, r9, sl, fp, pc}
 80038c6:	6812      	ldr	r2, [r2, #0]
 80038c8:	3b04      	subs	r3, #4
 80038ca:	2a00      	cmp	r2, #0
 80038cc:	d1cd      	bne.n	800386a <quorem+0x9a>
 80038ce:	3c01      	subs	r4, #1
 80038d0:	e7c8      	b.n	8003864 <quorem+0x94>
 80038d2:	6812      	ldr	r2, [r2, #0]
 80038d4:	3b04      	subs	r3, #4
 80038d6:	2a00      	cmp	r2, #0
 80038d8:	d1f0      	bne.n	80038bc <quorem+0xec>
 80038da:	3c01      	subs	r4, #1
 80038dc:	e7eb      	b.n	80038b6 <quorem+0xe6>
 80038de:	2000      	movs	r0, #0
 80038e0:	e7ee      	b.n	80038c0 <quorem+0xf0>
 80038e2:	0000      	movs	r0, r0
 80038e4:	0000      	movs	r0, r0
	...

080038e8 <_dtoa_r>:
 80038e8:	e92d 4ff0 	stmdb	sp!, {r4, r5, r6, r7, r8, r9, sl, fp, lr}
 80038ec:	4616      	mov	r6, r2
 80038ee:	461f      	mov	r7, r3
 80038f0:	69c4      	ldr	r4, [r0, #28]
 80038f2:	b099      	sub	sp, #100	; 0x64
 80038f4:	4605      	mov	r5, r0
 80038f6:	e9cd 6704 	strd	r6, r7, [sp, #16]
 80038fa:	f8dd 8094 	ldr.w	r8, [sp, #148]	; 0x94
 80038fe:	b974      	cbnz	r4, 800391e <_dtoa_r+0x36>
 8003900:	2010      	movs	r0, #16
 8003902:	f000 fe1d 	bl	8004540 <malloc>
 8003906:	4602      	mov	r2, r0
 8003908:	61e8      	str	r0, [r5, #28]
 800390a:	b920      	cbnz	r0, 8003916 <_dtoa_r+0x2e>
 800390c:	21ef      	movs	r1, #239	; 0xef
 800390e:	4bac      	ldr	r3, [pc, #688]	; (8003bc0 <_dtoa_r+0x2d8>)
 8003910:	48ac      	ldr	r0, [pc, #688]	; (8003bc4 <_dtoa_r+0x2dc>)
 8003912:	f002 fe1b 	bl	800654c <__assert_func>
 8003916:	e9c0 4401 	strd	r4, r4, [r0, #4]
 800391a:	6004      	str	r4, [r0, #0]
 800391c:	60c4      	str	r4, [r0, #12]
 800391e:	69eb      	ldr	r3, [r5, #28]
 8003920:	6819      	ldr	r1, [r3, #0]
 8003922:	b151      	cbz	r1, 800393a <_dtoa_r+0x52>
 8003924:	685a      	ldr	r2, [r3, #4]
 8003926:	2301      	movs	r3, #1
 8003928:	4093      	lsls	r3, r2
 800392a:	604a      	str	r2, [r1, #4]
 800392c:	608b      	str	r3, [r1, #8]
 800392e:	4628      	mov	r0, r5
 8003930:	f000 fefa 	bl	8004728 <_Bfree>
 8003934:	2200      	movs	r2, #0
 8003936:	69eb      	ldr	r3, [r5, #28]
 8003938:	601a      	str	r2, [r3, #0]
 800393a:	1e3b      	subs	r3, r7, #0
 800393c:	bfaf      	iteee	ge
 800393e:	2300      	movge	r3, #0
 8003940:	2201      	movlt	r2, #1
 8003942:	f023 4300 	biclt.w	r3, r3, #2147483648	; 0x80000000
 8003946:	9305      	strlt	r3, [sp, #20]
 8003948:	bfa8      	it	ge
 800394a:	f8c8 3000 	strge.w	r3, [r8]
 800394e:	f8dd 9014 	ldr.w	r9, [sp, #20]
 8003952:	4b9d      	ldr	r3, [pc, #628]	; (8003bc8 <_dtoa_r+0x2e0>)
 8003954:	bfb8      	it	lt
 8003956:	f8c8 2000 	strlt.w	r2, [r8]
 800395a:	ea33 0309 	bics.w	r3, r3, r9
 800395e:	d119      	bne.n	8003994 <_dtoa_r+0xac>
 8003960:	f242 730f 	movw	r3, #9999	; 0x270f
 8003964:	9a24      	ldr	r2, [sp, #144]	; 0x90
 8003966:	6013      	str	r3, [r2, #0]
 8003968:	f3c9 0313 	ubfx	r3, r9, #0, #20
 800396c:	4333      	orrs	r3, r6
 800396e:	f000 8589 	beq.w	8004484 <_dtoa_r+0xb9c>
 8003972:	9b26      	ldr	r3, [sp, #152]	; 0x98
 8003974:	b953      	cbnz	r3, 800398c <_dtoa_r+0xa4>
 8003976:	4b95      	ldr	r3, [pc, #596]	; (8003bcc <_dtoa_r+0x2e4>)
 8003978:	e023      	b.n	80039c2 <_dtoa_r+0xda>
 800397a:	4b95      	ldr	r3, [pc, #596]	; (8003bd0 <_dtoa_r+0x2e8>)
 800397c:	9303      	str	r3, [sp, #12]
 800397e:	3308      	adds	r3, #8
 8003980:	9a26      	ldr	r2, [sp, #152]	; 0x98
 8003982:	6013      	str	r3, [r2, #0]
 8003984:	9803      	ldr	r0, [sp, #12]
 8003986:	b019      	add	sp, #100	; 0x64
 8003988:	e8bd 8ff0 	ldmia.w	sp!, {r4, r5, r6, r7, r8, r9, sl, fp, pc}
 800398c:	4b8f      	ldr	r3, [pc, #572]	; (8003bcc <_dtoa_r+0x2e4>)
 800398e:	9303      	str	r3, [sp, #12]
 8003990:	3303      	adds	r3, #3
 8003992:	e7f5      	b.n	8003980 <_dtoa_r+0x98>
 8003994:	e9dd 3404 	ldrd	r3, r4, [sp, #16]
 8003998:	e9cd 340c 	strd	r3, r4, [sp, #48]	; 0x30
 800399c:	e9dd 010c 	ldrd	r0, r1, [sp, #48]	; 0x30
 80039a0:	2200      	movs	r2, #0
 80039a2:	2300      	movs	r3, #0
 80039a4:	f7fd f800 	bl	80009a8 <__aeabi_dcmpeq>
 80039a8:	4680      	mov	r8, r0
 80039aa:	b160      	cbz	r0, 80039c6 <_dtoa_r+0xde>
 80039ac:	2301      	movs	r3, #1
 80039ae:	9a24      	ldr	r2, [sp, #144]	; 0x90
 80039b0:	6013      	str	r3, [r2, #0]
 80039b2:	9b26      	ldr	r3, [sp, #152]	; 0x98
 80039b4:	2b00      	cmp	r3, #0
 80039b6:	f000 8562 	beq.w	800447e <_dtoa_r+0xb96>
 80039ba:	4b86      	ldr	r3, [pc, #536]	; (8003bd4 <_dtoa_r+0x2ec>)
 80039bc:	9a26      	ldr	r2, [sp, #152]	; 0x98
 80039be:	6013      	str	r3, [r2, #0]
 80039c0:	3b01      	subs	r3, #1
 80039c2:	9303      	str	r3, [sp, #12]
 80039c4:	e7de      	b.n	8003984 <_dtoa_r+0x9c>
 80039c6:	ab16      	add	r3, sp, #88	; 0x58
 80039c8:	9301      	str	r3, [sp, #4]
 80039ca:	ab17      	add	r3, sp, #92	; 0x5c
 80039cc:	9300      	str	r3, [sp, #0]
 80039ce:	4628      	mov	r0, r5
 80039d0:	e9dd 230c 	ldrd	r2, r3, [sp, #48]	; 0x30
 80039d4:	f001 fa3c 	bl	8004e50 <__d2b>
 80039d8:	f3c9 540a 	ubfx	r4, r9, #20, #11
 80039dc:	4682      	mov	sl, r0
 80039de:	2c00      	cmp	r4, #0
 80039e0:	d07e      	beq.n	8003ae0 <_dtoa_r+0x1f8>
 80039e2:	e9dd 010c 	ldrd	r0, r1, [sp, #48]	; 0x30
 80039e6:	9b0d      	ldr	r3, [sp, #52]	; 0x34
 80039e8:	f2a4 34ff 	subw	r4, r4, #1023	; 0x3ff
 80039ec:	f3c3 0313 	ubfx	r3, r3, #0, #20
 80039f0:	f043 537f 	orr.w	r3, r3, #1069547520	; 0x3fc00000
 80039f4:	f443 1340 	orr.w	r3, r3, #3145728	; 0x300000
 80039f8:	f8cd 804c 	str.w	r8, [sp, #76]	; 0x4c
 80039fc:	4619      	mov	r1, r3
 80039fe:	2200      	movs	r2, #0
 8003a00:	4b75      	ldr	r3, [pc, #468]	; (8003bd8 <_dtoa_r+0x2f0>)
 8003a02:	f7fc fbb1 	bl	8000168 <__aeabi_dsub>
 8003a06:	a368      	add	r3, pc, #416	; (adr r3, 8003ba8 <_dtoa_r+0x2c0>)
 8003a08:	e9d3 2300 	ldrd	r2, r3, [r3]
 8003a0c:	f7fc fd64 	bl	80004d8 <__aeabi_dmul>
 8003a10:	a367      	add	r3, pc, #412	; (adr r3, 8003bb0 <_dtoa_r+0x2c8>)
 8003a12:	e9d3 2300 	ldrd	r2, r3, [r3]
 8003a16:	f7fc fba9 	bl	800016c <__adddf3>
 8003a1a:	4606      	mov	r6, r0
 8003a1c:	4620      	mov	r0, r4
 8003a1e:	460f      	mov	r7, r1
 8003a20:	f7fc fcf0 	bl	8000404 <__aeabi_i2d>
 8003a24:	a364      	add	r3, pc, #400	; (adr r3, 8003bb8 <_dtoa_r+0x2d0>)
 8003a26:	e9d3 2300 	ldrd	r2, r3, [r3]
 8003a2a:	f7fc fd55 	bl	80004d8 <__aeabi_dmul>
 8003a2e:	4602      	mov	r2, r0
 8003a30:	460b      	mov	r3, r1
 8003a32:	4630      	mov	r0, r6
 8003a34:	4639      	mov	r1, r7
 8003a36:	f7fc fb99 	bl	800016c <__adddf3>
 8003a3a:	4606      	mov	r6, r0
 8003a3c:	460f      	mov	r7, r1
 8003a3e:	f7fc fffb 	bl	8000a38 <__aeabi_d2iz>
 8003a42:	2200      	movs	r2, #0
 8003a44:	4683      	mov	fp, r0
 8003a46:	2300      	movs	r3, #0
 8003a48:	4630      	mov	r0, r6
 8003a4a:	4639      	mov	r1, r7
 8003a4c:	f7fc ffb6 	bl	80009bc <__aeabi_dcmplt>
 8003a50:	b148      	cbz	r0, 8003a66 <_dtoa_r+0x17e>
 8003a52:	4658      	mov	r0, fp
 8003a54:	f7fc fcd6 	bl	8000404 <__aeabi_i2d>
 8003a58:	4632      	mov	r2, r6
 8003a5a:	463b      	mov	r3, r7
 8003a5c:	f7fc ffa4 	bl	80009a8 <__aeabi_dcmpeq>
 8003a60:	b908      	cbnz	r0, 8003a66 <_dtoa_r+0x17e>
 8003a62:	f10b 3bff 	add.w	fp, fp, #4294967295
 8003a66:	f1bb 0f16 	cmp.w	fp, #22
 8003a6a:	d857      	bhi.n	8003b1c <_dtoa_r+0x234>
 8003a6c:	e9dd 010c 	ldrd	r0, r1, [sp, #48]	; 0x30
 8003a70:	4b5a      	ldr	r3, [pc, #360]	; (8003bdc <_dtoa_r+0x2f4>)
 8003a72:	eb03 03cb 	add.w	r3, r3, fp, lsl #3
 8003a76:	e9d3 2300 	ldrd	r2, r3, [r3]
 8003a7a:	f7fc ff9f 	bl	80009bc <__aeabi_dcmplt>
 8003a7e:	2800      	cmp	r0, #0
 8003a80:	d04e      	beq.n	8003b20 <_dtoa_r+0x238>
 8003a82:	2300      	movs	r3, #0
 8003a84:	f10b 3bff 	add.w	fp, fp, #4294967295
 8003a88:	930f      	str	r3, [sp, #60]	; 0x3c
 8003a8a:	9b16      	ldr	r3, [sp, #88]	; 0x58
 8003a8c:	1b1b      	subs	r3, r3, r4
 8003a8e:	1e5a      	subs	r2, r3, #1
 8003a90:	bf46      	itte	mi
 8003a92:	f1c3 0901 	rsbmi	r9, r3, #1
 8003a96:	2300      	movmi	r3, #0
 8003a98:	f04f 0900 	movpl.w	r9, #0
 8003a9c:	9209      	str	r2, [sp, #36]	; 0x24
 8003a9e:	bf48      	it	mi
 8003aa0:	9309      	strmi	r3, [sp, #36]	; 0x24
 8003aa2:	f1bb 0f00 	cmp.w	fp, #0
 8003aa6:	db3d      	blt.n	8003b24 <_dtoa_r+0x23c>
 8003aa8:	9b09      	ldr	r3, [sp, #36]	; 0x24
 8003aaa:	f8cd b038 	str.w	fp, [sp, #56]	; 0x38
 8003aae:	445b      	add	r3, fp
 8003ab0:	9309      	str	r3, [sp, #36]	; 0x24
 8003ab2:	2300      	movs	r3, #0
 8003ab4:	930a      	str	r3, [sp, #40]	; 0x28
 8003ab6:	9b22      	ldr	r3, [sp, #136]	; 0x88
 8003ab8:	2b09      	cmp	r3, #9
 8003aba:	d867      	bhi.n	8003b8c <_dtoa_r+0x2a4>
 8003abc:	2b05      	cmp	r3, #5
 8003abe:	bfc4      	itt	gt
 8003ac0:	3b04      	subgt	r3, #4
 8003ac2:	9322      	strgt	r3, [sp, #136]	; 0x88
 8003ac4:	9b22      	ldr	r3, [sp, #136]	; 0x88
 8003ac6:	bfc8      	it	gt
 8003ac8:	2400      	movgt	r4, #0
 8003aca:	f1a3 0302 	sub.w	r3, r3, #2
 8003ace:	bfd8      	it	le
 8003ad0:	2401      	movle	r4, #1
 8003ad2:	2b03      	cmp	r3, #3
 8003ad4:	f200 8086 	bhi.w	8003be4 <_dtoa_r+0x2fc>
 8003ad8:	e8df f003 	tbb	[pc, r3]
 8003adc:	5637392c 	.word	0x5637392c
 8003ae0:	e9dd 4316 	ldrd	r4, r3, [sp, #88]	; 0x58
 8003ae4:	441c      	add	r4, r3
 8003ae6:	f204 4332 	addw	r3, r4, #1074	; 0x432
 8003aea:	2b20      	cmp	r3, #32
 8003aec:	bfc1      	itttt	gt
 8003aee:	f1c3 0340 	rsbgt	r3, r3, #64	; 0x40
 8003af2:	fa09 f903 	lslgt.w	r9, r9, r3
 8003af6:	f204 4312 	addwgt	r3, r4, #1042	; 0x412
 8003afa:	fa26 f303 	lsrgt.w	r3, r6, r3
 8003afe:	bfd6      	itet	le
 8003b00:	f1c3 0320 	rsble	r3, r3, #32
 8003b04:	ea49 0003 	orrgt.w	r0, r9, r3
 8003b08:	fa06 f003 	lslle.w	r0, r6, r3
 8003b0c:	f7fc fc6a 	bl	80003e4 <__aeabi_ui2d>
 8003b10:	2201      	movs	r2, #1
 8003b12:	f1a1 73f8 	sub.w	r3, r1, #32505856	; 0x1f00000
 8003b16:	3c01      	subs	r4, #1
 8003b18:	9213      	str	r2, [sp, #76]	; 0x4c
 8003b1a:	e76f      	b.n	80039fc <_dtoa_r+0x114>
 8003b1c:	2301      	movs	r3, #1
 8003b1e:	e7b3      	b.n	8003a88 <_dtoa_r+0x1a0>
 8003b20:	900f      	str	r0, [sp, #60]	; 0x3c
 8003b22:	e7b2      	b.n	8003a8a <_dtoa_r+0x1a2>
 8003b24:	f1cb 0300 	rsb	r3, fp, #0
 8003b28:	930a      	str	r3, [sp, #40]	; 0x28
 8003b2a:	2300      	movs	r3, #0
 8003b2c:	eba9 090b 	sub.w	r9, r9, fp
 8003b30:	930e      	str	r3, [sp, #56]	; 0x38
 8003b32:	e7c0      	b.n	8003ab6 <_dtoa_r+0x1ce>
 8003b34:	2300      	movs	r3, #0
 8003b36:	930b      	str	r3, [sp, #44]	; 0x2c
 8003b38:	9b23      	ldr	r3, [sp, #140]	; 0x8c
 8003b3a:	2b00      	cmp	r3, #0
 8003b3c:	dc55      	bgt.n	8003bea <_dtoa_r+0x302>
 8003b3e:	2301      	movs	r3, #1
 8003b40:	461a      	mov	r2, r3
 8003b42:	9306      	str	r3, [sp, #24]
 8003b44:	9308      	str	r3, [sp, #32]
 8003b46:	9223      	str	r2, [sp, #140]	; 0x8c
 8003b48:	e00b      	b.n	8003b62 <_dtoa_r+0x27a>
 8003b4a:	2301      	movs	r3, #1
 8003b4c:	e7f3      	b.n	8003b36 <_dtoa_r+0x24e>
 8003b4e:	2300      	movs	r3, #0
 8003b50:	930b      	str	r3, [sp, #44]	; 0x2c
 8003b52:	9b23      	ldr	r3, [sp, #140]	; 0x8c
 8003b54:	445b      	add	r3, fp
 8003b56:	9306      	str	r3, [sp, #24]
 8003b58:	3301      	adds	r3, #1
 8003b5a:	2b01      	cmp	r3, #1
 8003b5c:	9308      	str	r3, [sp, #32]
 8003b5e:	bfb8      	it	lt
 8003b60:	2301      	movlt	r3, #1
 8003b62:	2100      	movs	r1, #0
 8003b64:	2204      	movs	r2, #4
 8003b66:	69e8      	ldr	r0, [r5, #28]
 8003b68:	f102 0614 	add.w	r6, r2, #20
 8003b6c:	429e      	cmp	r6, r3
 8003b6e:	d940      	bls.n	8003bf2 <_dtoa_r+0x30a>
 8003b70:	6041      	str	r1, [r0, #4]
 8003b72:	4628      	mov	r0, r5
 8003b74:	f000 fd98 	bl	80046a8 <_Balloc>
 8003b78:	9003      	str	r0, [sp, #12]
 8003b7a:	2800      	cmp	r0, #0
 8003b7c:	d13c      	bne.n	8003bf8 <_dtoa_r+0x310>
 8003b7e:	4602      	mov	r2, r0
 8003b80:	f240 11af 	movw	r1, #431	; 0x1af
 8003b84:	4b16      	ldr	r3, [pc, #88]	; (8003be0 <_dtoa_r+0x2f8>)
 8003b86:	e6c3      	b.n	8003910 <_dtoa_r+0x28>
 8003b88:	2301      	movs	r3, #1
 8003b8a:	e7e1      	b.n	8003b50 <_dtoa_r+0x268>
 8003b8c:	2401      	movs	r4, #1
 8003b8e:	2300      	movs	r3, #0
 8003b90:	940b      	str	r4, [sp, #44]	; 0x2c
 8003b92:	9322      	str	r3, [sp, #136]	; 0x88
 8003b94:	f04f 33ff 	mov.w	r3, #4294967295
 8003b98:	2200      	movs	r2, #0
 8003b9a:	9306      	str	r3, [sp, #24]
 8003b9c:	9308      	str	r3, [sp, #32]
 8003b9e:	2312      	movs	r3, #18
 8003ba0:	e7d1      	b.n	8003b46 <_dtoa_r+0x25e>
 8003ba2:	bf00      	nop
 8003ba4:	f3af 8000 	nop.w
 8003ba8:	636f4361 	.word	0x636f4361
 8003bac:	3fd287a7 	.word	0x3fd287a7
 8003bb0:	8b60c8b3 	.word	0x8b60c8b3
 8003bb4:	3fc68a28 	.word	0x3fc68a28
 8003bb8:	509f79fb 	.word	0x509f79fb
 8003bbc:	3fd34413 	.word	0x3fd34413
 8003bc0:	08006f0b 	.word	0x08006f0b
 8003bc4:	08006f22 	.word	0x08006f22
 8003bc8:	7ff00000 	.word	0x7ff00000
 8003bcc:	08006f07 	.word	0x08006f07
 8003bd0:	08006efe 	.word	0x08006efe
 8003bd4:	08006ed6 	.word	0x08006ed6
 8003bd8:	3ff80000 	.word	0x3ff80000
 8003bdc:	08007010 	.word	0x08007010
 8003be0:	08006f7a 	.word	0x08006f7a
 8003be4:	2301      	movs	r3, #1
 8003be6:	930b      	str	r3, [sp, #44]	; 0x2c
 8003be8:	e7d4      	b.n	8003b94 <_dtoa_r+0x2ac>
 8003bea:	9b23      	ldr	r3, [sp, #140]	; 0x8c
 8003bec:	9306      	str	r3, [sp, #24]
 8003bee:	9308      	str	r3, [sp, #32]
 8003bf0:	e7b7      	b.n	8003b62 <_dtoa_r+0x27a>
 8003bf2:	3101      	adds	r1, #1
 8003bf4:	0052      	lsls	r2, r2, #1
 8003bf6:	e7b7      	b.n	8003b68 <_dtoa_r+0x280>
 8003bf8:	69eb      	ldr	r3, [r5, #28]
 8003bfa:	9a03      	ldr	r2, [sp, #12]
 8003bfc:	601a      	str	r2, [r3, #0]
 8003bfe:	9b08      	ldr	r3, [sp, #32]
 8003c00:	2b0e      	cmp	r3, #14
 8003c02:	f200 80a8 	bhi.w	8003d56 <_dtoa_r+0x46e>
 8003c06:	2c00      	cmp	r4, #0
 8003c08:	f000 80a5 	beq.w	8003d56 <_dtoa_r+0x46e>
 8003c0c:	f1bb 0f00 	cmp.w	fp, #0
 8003c10:	dd34      	ble.n	8003c7c <_dtoa_r+0x394>
 8003c12:	4b9a      	ldr	r3, [pc, #616]	; (8003e7c <_dtoa_r+0x594>)
 8003c14:	f00b 020f 	and.w	r2, fp, #15
 8003c18:	eb03 03c2 	add.w	r3, r3, r2, lsl #3
 8003c1c:	f41b 7f80 	tst.w	fp, #256	; 0x100
 8003c20:	e9d3 3400 	ldrd	r3, r4, [r3]
 8003c24:	e9cd 3410 	strd	r3, r4, [sp, #64]	; 0x40
 8003c28:	ea4f 142b 	mov.w	r4, fp, asr #4
 8003c2c:	d016      	beq.n	8003c5c <_dtoa_r+0x374>
 8003c2e:	e9dd 010c 	ldrd	r0, r1, [sp, #48]	; 0x30
 8003c32:	4b93      	ldr	r3, [pc, #588]	; (8003e80 <_dtoa_r+0x598>)
 8003c34:	2703      	movs	r7, #3
 8003c36:	e9d3 2308 	ldrd	r2, r3, [r3, #32]
 8003c3a:	f7fc fd77 	bl	800072c <__aeabi_ddiv>
 8003c3e:	e9cd 0104 	strd	r0, r1, [sp, #16]
 8003c42:	f004 040f 	and.w	r4, r4, #15
 8003c46:	4e8e      	ldr	r6, [pc, #568]	; (8003e80 <_dtoa_r+0x598>)
 8003c48:	b954      	cbnz	r4, 8003c60 <_dtoa_r+0x378>
 8003c4a:	e9dd 2310 	ldrd	r2, r3, [sp, #64]	; 0x40
 8003c4e:	e9dd 0104 	ldrd	r0, r1, [sp, #16]
 8003c52:	f7fc fd6b 	bl	800072c <__aeabi_ddiv>
 8003c56:	e9cd 0104 	strd	r0, r1, [sp, #16]
 8003c5a:	e029      	b.n	8003cb0 <_dtoa_r+0x3c8>
 8003c5c:	2702      	movs	r7, #2
 8003c5e:	e7f2      	b.n	8003c46 <_dtoa_r+0x35e>
 8003c60:	07e1      	lsls	r1, r4, #31
 8003c62:	d508      	bpl.n	8003c76 <_dtoa_r+0x38e>
 8003c64:	e9dd 0110 	ldrd	r0, r1, [sp, #64]	; 0x40
 8003c68:	e9d6 2300 	ldrd	r2, r3, [r6]
 8003c6c:	f7fc fc34 	bl	80004d8 <__aeabi_dmul>
 8003c70:	e9cd 0110 	strd	r0, r1, [sp, #64]	; 0x40
 8003c74:	3701      	adds	r7, #1
 8003c76:	1064      	asrs	r4, r4, #1
 8003c78:	3608      	adds	r6, #8
 8003c7a:	e7e5      	b.n	8003c48 <_dtoa_r+0x360>
 8003c7c:	f000 80a5 	beq.w	8003dca <_dtoa_r+0x4e2>
 8003c80:	e9dd 010c 	ldrd	r0, r1, [sp, #48]	; 0x30
 8003c84:	f1cb 0400 	rsb	r4, fp, #0
 8003c88:	4b7c      	ldr	r3, [pc, #496]	; (8003e7c <_dtoa_r+0x594>)
 8003c8a:	f004 020f 	and.w	r2, r4, #15
 8003c8e:	eb03 03c2 	add.w	r3, r3, r2, lsl #3
 8003c92:	e9d3 2300 	ldrd	r2, r3, [r3]
 8003c96:	f7fc fc1f 	bl	80004d8 <__aeabi_dmul>
 8003c9a:	2702      	movs	r7, #2
 8003c9c:	2300      	movs	r3, #0
 8003c9e:	e9cd 0104 	strd	r0, r1, [sp, #16]
 8003ca2:	4e77      	ldr	r6, [pc, #476]	; (8003e80 <_dtoa_r+0x598>)
 8003ca4:	1124      	asrs	r4, r4, #4
 8003ca6:	2c00      	cmp	r4, #0
 8003ca8:	f040 8084 	bne.w	8003db4 <_dtoa_r+0x4cc>
 8003cac:	2b00      	cmp	r3, #0
 8003cae:	d1d2      	bne.n	8003c56 <_dtoa_r+0x36e>
 8003cb0:	e9dd 3404 	ldrd	r3, r4, [sp, #16]
 8003cb4:	e9cd 3410 	strd	r3, r4, [sp, #64]	; 0x40
 8003cb8:	9b0f      	ldr	r3, [sp, #60]	; 0x3c
 8003cba:	2b00      	cmp	r3, #0
 8003cbc:	f000 8087 	beq.w	8003dce <_dtoa_r+0x4e6>
 8003cc0:	e9dd 0110 	ldrd	r0, r1, [sp, #64]	; 0x40
 8003cc4:	2200      	movs	r2, #0
 8003cc6:	4b6f      	ldr	r3, [pc, #444]	; (8003e84 <_dtoa_r+0x59c>)
 8003cc8:	f7fc fe78 	bl	80009bc <__aeabi_dcmplt>
 8003ccc:	2800      	cmp	r0, #0
 8003cce:	d07e      	beq.n	8003dce <_dtoa_r+0x4e6>
 8003cd0:	9b08      	ldr	r3, [sp, #32]
 8003cd2:	2b00      	cmp	r3, #0
 8003cd4:	d07b      	beq.n	8003dce <_dtoa_r+0x4e6>
 8003cd6:	9b06      	ldr	r3, [sp, #24]
 8003cd8:	2b00      	cmp	r3, #0
 8003cda:	dd38      	ble.n	8003d4e <_dtoa_r+0x466>
 8003cdc:	e9dd 0110 	ldrd	r0, r1, [sp, #64]	; 0x40
 8003ce0:	2200      	movs	r2, #0
 8003ce2:	4b69      	ldr	r3, [pc, #420]	; (8003e88 <_dtoa_r+0x5a0>)
 8003ce4:	f7fc fbf8 	bl	80004d8 <__aeabi_dmul>
 8003ce8:	e9cd 0104 	strd	r0, r1, [sp, #16]
 8003cec:	9c06      	ldr	r4, [sp, #24]
 8003cee:	f10b 38ff 	add.w	r8, fp, #4294967295
 8003cf2:	3701      	adds	r7, #1
 8003cf4:	4638      	mov	r0, r7
 8003cf6:	f7fc fb85 	bl	8000404 <__aeabi_i2d>
 8003cfa:	e9dd 2304 	ldrd	r2, r3, [sp, #16]
 8003cfe:	f7fc fbeb 	bl	80004d8 <__aeabi_dmul>
 8003d02:	2200      	movs	r2, #0
 8003d04:	4b61      	ldr	r3, [pc, #388]	; (8003e8c <_dtoa_r+0x5a4>)
 8003d06:	f7fc fa31 	bl	800016c <__adddf3>
 8003d0a:	f1a1 7650 	sub.w	r6, r1, #54525952	; 0x3400000
 8003d0e:	e9cd 0110 	strd	r0, r1, [sp, #64]	; 0x40
 8003d12:	9611      	str	r6, [sp, #68]	; 0x44
 8003d14:	2c00      	cmp	r4, #0
 8003d16:	d15d      	bne.n	8003dd4 <_dtoa_r+0x4ec>
 8003d18:	e9dd 0104 	ldrd	r0, r1, [sp, #16]
 8003d1c:	2200      	movs	r2, #0
 8003d1e:	4b5c      	ldr	r3, [pc, #368]	; (8003e90 <_dtoa_r+0x5a8>)
 8003d20:	f7fc fa22 	bl	8000168 <__aeabi_dsub>
 8003d24:	4602      	mov	r2, r0
 8003d26:	460b      	mov	r3, r1
 8003d28:	e9cd 2304 	strd	r2, r3, [sp, #16]
 8003d2c:	4633      	mov	r3, r6
 8003d2e:	9a10      	ldr	r2, [sp, #64]	; 0x40
 8003d30:	f7fc fe62 	bl	80009f8 <__aeabi_dcmpgt>
 8003d34:	2800      	cmp	r0, #0
 8003d36:	f040 8295 	bne.w	8004264 <_dtoa_r+0x97c>
 8003d3a:	e9dd 0104 	ldrd	r0, r1, [sp, #16]
 8003d3e:	9a10      	ldr	r2, [sp, #64]	; 0x40
 8003d40:	f106 4300 	add.w	r3, r6, #2147483648	; 0x80000000
 8003d44:	f7fc fe3a 	bl	80009bc <__aeabi_dcmplt>
 8003d48:	2800      	cmp	r0, #0
 8003d4a:	f040 8289 	bne.w	8004260 <_dtoa_r+0x978>
 8003d4e:	e9dd 340c 	ldrd	r3, r4, [sp, #48]	; 0x30
 8003d52:	e9cd 3404 	strd	r3, r4, [sp, #16]
 8003d56:	9b17      	ldr	r3, [sp, #92]	; 0x5c
 8003d58:	2b00      	cmp	r3, #0
 8003d5a:	f2c0 8151 	blt.w	8004000 <_dtoa_r+0x718>
 8003d5e:	f1bb 0f0e 	cmp.w	fp, #14
 8003d62:	f300 814d 	bgt.w	8004000 <_dtoa_r+0x718>
 8003d66:	4b45      	ldr	r3, [pc, #276]	; (8003e7c <_dtoa_r+0x594>)
 8003d68:	eb03 03cb 	add.w	r3, r3, fp, lsl #3
 8003d6c:	e9d3 3400 	ldrd	r3, r4, [r3]
 8003d70:	e9cd 3406 	strd	r3, r4, [sp, #24]
 8003d74:	9b23      	ldr	r3, [sp, #140]	; 0x8c
 8003d76:	2b00      	cmp	r3, #0
 8003d78:	f280 80da 	bge.w	8003f30 <_dtoa_r+0x648>
 8003d7c:	9b08      	ldr	r3, [sp, #32]
 8003d7e:	2b00      	cmp	r3, #0
 8003d80:	f300 80d6 	bgt.w	8003f30 <_dtoa_r+0x648>
 8003d84:	f040 826b 	bne.w	800425e <_dtoa_r+0x976>
 8003d88:	e9dd 0106 	ldrd	r0, r1, [sp, #24]
 8003d8c:	2200      	movs	r2, #0
 8003d8e:	4b40      	ldr	r3, [pc, #256]	; (8003e90 <_dtoa_r+0x5a8>)
 8003d90:	f7fc fba2 	bl	80004d8 <__aeabi_dmul>
 8003d94:	e9dd 2304 	ldrd	r2, r3, [sp, #16]
 8003d98:	f7fc fe24 	bl	80009e4 <__aeabi_dcmpge>
 8003d9c:	9c08      	ldr	r4, [sp, #32]
 8003d9e:	4626      	mov	r6, r4
 8003da0:	2800      	cmp	r0, #0
 8003da2:	f040 8241 	bne.w	8004228 <_dtoa_r+0x940>
 8003da6:	2331      	movs	r3, #49	; 0x31
 8003da8:	9f03      	ldr	r7, [sp, #12]
 8003daa:	f10b 0b01 	add.w	fp, fp, #1
 8003dae:	f807 3b01 	strb.w	r3, [r7], #1
 8003db2:	e23d      	b.n	8004230 <_dtoa_r+0x948>
 8003db4:	07e2      	lsls	r2, r4, #31
 8003db6:	d505      	bpl.n	8003dc4 <_dtoa_r+0x4dc>
 8003db8:	e9d6 2300 	ldrd	r2, r3, [r6]
 8003dbc:	f7fc fb8c 	bl	80004d8 <__aeabi_dmul>
 8003dc0:	2301      	movs	r3, #1
 8003dc2:	3701      	adds	r7, #1
 8003dc4:	1064      	asrs	r4, r4, #1
 8003dc6:	3608      	adds	r6, #8
 8003dc8:	e76d      	b.n	8003ca6 <_dtoa_r+0x3be>
 8003dca:	2702      	movs	r7, #2
 8003dcc:	e770      	b.n	8003cb0 <_dtoa_r+0x3c8>
 8003dce:	46d8      	mov	r8, fp
 8003dd0:	9c08      	ldr	r4, [sp, #32]
 8003dd2:	e78f      	b.n	8003cf4 <_dtoa_r+0x40c>
 8003dd4:	9903      	ldr	r1, [sp, #12]
 8003dd6:	4b29      	ldr	r3, [pc, #164]	; (8003e7c <_dtoa_r+0x594>)
 8003dd8:	4421      	add	r1, r4
 8003dda:	9112      	str	r1, [sp, #72]	; 0x48
 8003ddc:	990b      	ldr	r1, [sp, #44]	; 0x2c
 8003dde:	eb03 03c4 	add.w	r3, r3, r4, lsl #3
 8003de2:	e9dd 6710 	ldrd	r6, r7, [sp, #64]	; 0x40
 8003de6:	e953 2302 	ldrd	r2, r3, [r3, #-8]
 8003dea:	2900      	cmp	r1, #0
 8003dec:	d054      	beq.n	8003e98 <_dtoa_r+0x5b0>
 8003dee:	2000      	movs	r0, #0
 8003df0:	4928      	ldr	r1, [pc, #160]	; (8003e94 <_dtoa_r+0x5ac>)
 8003df2:	f7fc fc9b 	bl	800072c <__aeabi_ddiv>
 8003df6:	463b      	mov	r3, r7
 8003df8:	4632      	mov	r2, r6
 8003dfa:	f7fc f9b5 	bl	8000168 <__aeabi_dsub>
 8003dfe:	e9cd 0110 	strd	r0, r1, [sp, #64]	; 0x40
 8003e02:	9f03      	ldr	r7, [sp, #12]
 8003e04:	e9dd 0104 	ldrd	r0, r1, [sp, #16]
 8003e08:	f7fc fe16 	bl	8000a38 <__aeabi_d2iz>
 8003e0c:	4604      	mov	r4, r0
 8003e0e:	f7fc faf9 	bl	8000404 <__aeabi_i2d>
 8003e12:	4602      	mov	r2, r0
 8003e14:	460b      	mov	r3, r1
 8003e16:	e9dd 0104 	ldrd	r0, r1, [sp, #16]
 8003e1a:	f7fc f9a5 	bl	8000168 <__aeabi_dsub>
 8003e1e:	4602      	mov	r2, r0
 8003e20:	460b      	mov	r3, r1
 8003e22:	3430      	adds	r4, #48	; 0x30
 8003e24:	e9cd 2304 	strd	r2, r3, [sp, #16]
 8003e28:	e9dd 2310 	ldrd	r2, r3, [sp, #64]	; 0x40
 8003e2c:	f807 4b01 	strb.w	r4, [r7], #1
 8003e30:	f7fc fdc4 	bl	80009bc <__aeabi_dcmplt>
 8003e34:	2800      	cmp	r0, #0
 8003e36:	d173      	bne.n	8003f20 <_dtoa_r+0x638>
 8003e38:	e9dd 2304 	ldrd	r2, r3, [sp, #16]
 8003e3c:	2000      	movs	r0, #0
 8003e3e:	4911      	ldr	r1, [pc, #68]	; (8003e84 <_dtoa_r+0x59c>)
 8003e40:	f7fc f992 	bl	8000168 <__aeabi_dsub>
 8003e44:	e9dd 2310 	ldrd	r2, r3, [sp, #64]	; 0x40
 8003e48:	f7fc fdb8 	bl	80009bc <__aeabi_dcmplt>
 8003e4c:	2800      	cmp	r0, #0
 8003e4e:	f040 80b6 	bne.w	8003fbe <_dtoa_r+0x6d6>
 8003e52:	9b12      	ldr	r3, [sp, #72]	; 0x48
 8003e54:	429f      	cmp	r7, r3
 8003e56:	f43f af7a 	beq.w	8003d4e <_dtoa_r+0x466>
 8003e5a:	e9dd 0110 	ldrd	r0, r1, [sp, #64]	; 0x40
 8003e5e:	2200      	movs	r2, #0
 8003e60:	4b09      	ldr	r3, [pc, #36]	; (8003e88 <_dtoa_r+0x5a0>)
 8003e62:	f7fc fb39 	bl	80004d8 <__aeabi_dmul>
 8003e66:	2200      	movs	r2, #0
 8003e68:	e9cd 0110 	strd	r0, r1, [sp, #64]	; 0x40
 8003e6c:	e9dd 0104 	ldrd	r0, r1, [sp, #16]
 8003e70:	4b05      	ldr	r3, [pc, #20]	; (8003e88 <_dtoa_r+0x5a0>)
 8003e72:	f7fc fb31 	bl	80004d8 <__aeabi_dmul>
 8003e76:	e9cd 0104 	strd	r0, r1, [sp, #16]
 8003e7a:	e7c3      	b.n	8003e04 <_dtoa_r+0x51c>
 8003e7c:	08007010 	.word	0x08007010
 8003e80:	08006fe8 	.word	0x08006fe8
 8003e84:	3ff00000 	.word	0x3ff00000
 8003e88:	40240000 	.word	0x40240000
 8003e8c:	401c0000 	.word	0x401c0000
 8003e90:	40140000 	.word	0x40140000
 8003e94:	3fe00000 	.word	0x3fe00000
 8003e98:	4630      	mov	r0, r6
 8003e9a:	4639      	mov	r1, r7
 8003e9c:	f7fc fb1c 	bl	80004d8 <__aeabi_dmul>
 8003ea0:	9b12      	ldr	r3, [sp, #72]	; 0x48
 8003ea2:	e9cd 0110 	strd	r0, r1, [sp, #64]	; 0x40
 8003ea6:	9c03      	ldr	r4, [sp, #12]
 8003ea8:	9314      	str	r3, [sp, #80]	; 0x50
 8003eaa:	e9dd 0104 	ldrd	r0, r1, [sp, #16]
 8003eae:	f7fc fdc3 	bl	8000a38 <__aeabi_d2iz>
 8003eb2:	9015      	str	r0, [sp, #84]	; 0x54
 8003eb4:	f7fc faa6 	bl	8000404 <__aeabi_i2d>
 8003eb8:	4602      	mov	r2, r0
 8003eba:	460b      	mov	r3, r1
 8003ebc:	e9dd 0104 	ldrd	r0, r1, [sp, #16]
 8003ec0:	f7fc f952 	bl	8000168 <__aeabi_dsub>
 8003ec4:	9b15      	ldr	r3, [sp, #84]	; 0x54
 8003ec6:	4606      	mov	r6, r0
 8003ec8:	3330      	adds	r3, #48	; 0x30
 8003eca:	f804 3b01 	strb.w	r3, [r4], #1
 8003ece:	9b12      	ldr	r3, [sp, #72]	; 0x48
 8003ed0:	460f      	mov	r7, r1
 8003ed2:	429c      	cmp	r4, r3
 8003ed4:	f04f 0200 	mov.w	r2, #0
 8003ed8:	d124      	bne.n	8003f24 <_dtoa_r+0x63c>
 8003eda:	e9dd 0110 	ldrd	r0, r1, [sp, #64]	; 0x40
 8003ede:	4baf      	ldr	r3, [pc, #700]	; (800419c <_dtoa_r+0x8b4>)
 8003ee0:	f7fc f944 	bl	800016c <__adddf3>
 8003ee4:	4602      	mov	r2, r0
 8003ee6:	460b      	mov	r3, r1
 8003ee8:	4630      	mov	r0, r6
 8003eea:	4639      	mov	r1, r7
 8003eec:	f7fc fd84 	bl	80009f8 <__aeabi_dcmpgt>
 8003ef0:	2800      	cmp	r0, #0
 8003ef2:	d163      	bne.n	8003fbc <_dtoa_r+0x6d4>
 8003ef4:	e9dd 2310 	ldrd	r2, r3, [sp, #64]	; 0x40
 8003ef8:	2000      	movs	r0, #0
 8003efa:	49a8      	ldr	r1, [pc, #672]	; (800419c <_dtoa_r+0x8b4>)
 8003efc:	f7fc f934 	bl	8000168 <__aeabi_dsub>
 8003f00:	4602      	mov	r2, r0
 8003f02:	460b      	mov	r3, r1
 8003f04:	4630      	mov	r0, r6
 8003f06:	4639      	mov	r1, r7
 8003f08:	f7fc fd58 	bl	80009bc <__aeabi_dcmplt>
 8003f0c:	2800      	cmp	r0, #0
 8003f0e:	f43f af1e 	beq.w	8003d4e <_dtoa_r+0x466>
 8003f12:	9f14      	ldr	r7, [sp, #80]	; 0x50
 8003f14:	1e7b      	subs	r3, r7, #1
 8003f16:	9314      	str	r3, [sp, #80]	; 0x50
 8003f18:	f817 3c01 	ldrb.w	r3, [r7, #-1]
 8003f1c:	2b30      	cmp	r3, #48	; 0x30
 8003f1e:	d0f8      	beq.n	8003f12 <_dtoa_r+0x62a>
 8003f20:	46c3      	mov	fp, r8
 8003f22:	e03b      	b.n	8003f9c <_dtoa_r+0x6b4>
 8003f24:	4b9e      	ldr	r3, [pc, #632]	; (80041a0 <_dtoa_r+0x8b8>)
 8003f26:	f7fc fad7 	bl	80004d8 <__aeabi_dmul>
 8003f2a:	e9cd 0104 	strd	r0, r1, [sp, #16]
 8003f2e:	e7bc      	b.n	8003eaa <_dtoa_r+0x5c2>
 8003f30:	9f03      	ldr	r7, [sp, #12]
 8003f32:	e9dd 8904 	ldrd	r8, r9, [sp, #16]
 8003f36:	e9dd 2306 	ldrd	r2, r3, [sp, #24]
 8003f3a:	4640      	mov	r0, r8
 8003f3c:	4649      	mov	r1, r9
 8003f3e:	f7fc fbf5 	bl	800072c <__aeabi_ddiv>
 8003f42:	f7fc fd79 	bl	8000a38 <__aeabi_d2iz>
 8003f46:	4604      	mov	r4, r0
 8003f48:	f7fc fa5c 	bl	8000404 <__aeabi_i2d>
 8003f4c:	e9dd 2306 	ldrd	r2, r3, [sp, #24]
 8003f50:	f7fc fac2 	bl	80004d8 <__aeabi_dmul>
 8003f54:	4602      	mov	r2, r0
 8003f56:	460b      	mov	r3, r1
 8003f58:	4640      	mov	r0, r8
 8003f5a:	4649      	mov	r1, r9
 8003f5c:	f7fc f904 	bl	8000168 <__aeabi_dsub>
 8003f60:	f104 0630 	add.w	r6, r4, #48	; 0x30
 8003f64:	f807 6b01 	strb.w	r6, [r7], #1
 8003f68:	9e03      	ldr	r6, [sp, #12]
 8003f6a:	f8dd c020 	ldr.w	ip, [sp, #32]
 8003f6e:	1bbe      	subs	r6, r7, r6
 8003f70:	45b4      	cmp	ip, r6
 8003f72:	4602      	mov	r2, r0
 8003f74:	460b      	mov	r3, r1
 8003f76:	d136      	bne.n	8003fe6 <_dtoa_r+0x6fe>
 8003f78:	f7fc f8f8 	bl	800016c <__adddf3>
 8003f7c:	e9dd 2306 	ldrd	r2, r3, [sp, #24]
 8003f80:	4680      	mov	r8, r0
 8003f82:	4689      	mov	r9, r1
 8003f84:	f7fc fd38 	bl	80009f8 <__aeabi_dcmpgt>
 8003f88:	bb58      	cbnz	r0, 8003fe2 <_dtoa_r+0x6fa>
 8003f8a:	e9dd 2306 	ldrd	r2, r3, [sp, #24]
 8003f8e:	4640      	mov	r0, r8
 8003f90:	4649      	mov	r1, r9
 8003f92:	f7fc fd09 	bl	80009a8 <__aeabi_dcmpeq>
 8003f96:	b108      	cbz	r0, 8003f9c <_dtoa_r+0x6b4>
 8003f98:	07e3      	lsls	r3, r4, #31
 8003f9a:	d422      	bmi.n	8003fe2 <_dtoa_r+0x6fa>
 8003f9c:	4651      	mov	r1, sl
 8003f9e:	4628      	mov	r0, r5
 8003fa0:	f000 fbc2 	bl	8004728 <_Bfree>
 8003fa4:	2300      	movs	r3, #0
 8003fa6:	9a24      	ldr	r2, [sp, #144]	; 0x90
 8003fa8:	703b      	strb	r3, [r7, #0]
 8003faa:	f10b 0301 	add.w	r3, fp, #1
 8003fae:	6013      	str	r3, [r2, #0]
 8003fb0:	9b26      	ldr	r3, [sp, #152]	; 0x98
 8003fb2:	2b00      	cmp	r3, #0
 8003fb4:	f43f ace6 	beq.w	8003984 <_dtoa_r+0x9c>
 8003fb8:	601f      	str	r7, [r3, #0]
 8003fba:	e4e3      	b.n	8003984 <_dtoa_r+0x9c>
 8003fbc:	4627      	mov	r7, r4
 8003fbe:	463b      	mov	r3, r7
 8003fc0:	461f      	mov	r7, r3
 8003fc2:	f813 2d01 	ldrb.w	r2, [r3, #-1]!
 8003fc6:	2a39      	cmp	r2, #57	; 0x39
 8003fc8:	d107      	bne.n	8003fda <_dtoa_r+0x6f2>
 8003fca:	9a03      	ldr	r2, [sp, #12]
 8003fcc:	429a      	cmp	r2, r3
 8003fce:	d1f7      	bne.n	8003fc0 <_dtoa_r+0x6d8>
 8003fd0:	2230      	movs	r2, #48	; 0x30
 8003fd2:	9903      	ldr	r1, [sp, #12]
 8003fd4:	f108 0801 	add.w	r8, r8, #1
 8003fd8:	700a      	strb	r2, [r1, #0]
 8003fda:	781a      	ldrb	r2, [r3, #0]
 8003fdc:	3201      	adds	r2, #1
 8003fde:	701a      	strb	r2, [r3, #0]
 8003fe0:	e79e      	b.n	8003f20 <_dtoa_r+0x638>
 8003fe2:	46d8      	mov	r8, fp
 8003fe4:	e7eb      	b.n	8003fbe <_dtoa_r+0x6d6>
 8003fe6:	2200      	movs	r2, #0
 8003fe8:	4b6d      	ldr	r3, [pc, #436]	; (80041a0 <_dtoa_r+0x8b8>)
 8003fea:	f7fc fa75 	bl	80004d8 <__aeabi_dmul>
 8003fee:	2200      	movs	r2, #0
 8003ff0:	2300      	movs	r3, #0
 8003ff2:	4680      	mov	r8, r0
 8003ff4:	4689      	mov	r9, r1
 8003ff6:	f7fc fcd7 	bl	80009a8 <__aeabi_dcmpeq>
 8003ffa:	2800      	cmp	r0, #0
 8003ffc:	d09b      	beq.n	8003f36 <_dtoa_r+0x64e>
 8003ffe:	e7cd      	b.n	8003f9c <_dtoa_r+0x6b4>
 8004000:	9a0b      	ldr	r2, [sp, #44]	; 0x2c
 8004002:	2a00      	cmp	r2, #0
 8004004:	f000 80c4 	beq.w	8004190 <_dtoa_r+0x8a8>
 8004008:	9a22      	ldr	r2, [sp, #136]	; 0x88
 800400a:	2a01      	cmp	r2, #1
 800400c:	f300 80a8 	bgt.w	8004160 <_dtoa_r+0x878>
 8004010:	9a13      	ldr	r2, [sp, #76]	; 0x4c
 8004012:	2a00      	cmp	r2, #0
 8004014:	f000 80a0 	beq.w	8004158 <_dtoa_r+0x870>
 8004018:	f203 4333 	addw	r3, r3, #1075	; 0x433
 800401c:	464f      	mov	r7, r9
 800401e:	9c0a      	ldr	r4, [sp, #40]	; 0x28
 8004020:	9a09      	ldr	r2, [sp, #36]	; 0x24
 8004022:	2101      	movs	r1, #1
 8004024:	441a      	add	r2, r3
 8004026:	4628      	mov	r0, r5
 8004028:	4499      	add	r9, r3
 800402a:	9209      	str	r2, [sp, #36]	; 0x24
 800402c:	f000 fc7c 	bl	8004928 <__i2b>
 8004030:	4606      	mov	r6, r0
 8004032:	b15f      	cbz	r7, 800404c <_dtoa_r+0x764>
 8004034:	9b09      	ldr	r3, [sp, #36]	; 0x24
 8004036:	2b00      	cmp	r3, #0
 8004038:	dd08      	ble.n	800404c <_dtoa_r+0x764>
 800403a:	42bb      	cmp	r3, r7
 800403c:	bfa8      	it	ge
 800403e:	463b      	movge	r3, r7
 8004040:	9a09      	ldr	r2, [sp, #36]	; 0x24
 8004042:	eba9 0903 	sub.w	r9, r9, r3
 8004046:	1aff      	subs	r7, r7, r3
 8004048:	1ad3      	subs	r3, r2, r3
 800404a:	9309      	str	r3, [sp, #36]	; 0x24
 800404c:	9b0a      	ldr	r3, [sp, #40]	; 0x28
 800404e:	b1f3      	cbz	r3, 800408e <_dtoa_r+0x7a6>
 8004050:	9b0b      	ldr	r3, [sp, #44]	; 0x2c
 8004052:	2b00      	cmp	r3, #0
 8004054:	f000 80a0 	beq.w	8004198 <_dtoa_r+0x8b0>
 8004058:	2c00      	cmp	r4, #0
 800405a:	dd10      	ble.n	800407e <_dtoa_r+0x796>
 800405c:	4631      	mov	r1, r6
 800405e:	4622      	mov	r2, r4
 8004060:	4628      	mov	r0, r5
 8004062:	f000 fd1f 	bl	8004aa4 <__pow5mult>
 8004066:	4652      	mov	r2, sl
 8004068:	4601      	mov	r1, r0
 800406a:	4606      	mov	r6, r0
 800406c:	4628      	mov	r0, r5
 800406e:	f000 fc71 	bl	8004954 <__multiply>
 8004072:	4680      	mov	r8, r0
 8004074:	4651      	mov	r1, sl
 8004076:	4628      	mov	r0, r5
 8004078:	f000 fb56 	bl	8004728 <_Bfree>
 800407c:	46c2      	mov	sl, r8
 800407e:	9b0a      	ldr	r3, [sp, #40]	; 0x28
 8004080:	1b1a      	subs	r2, r3, r4
 8004082:	d004      	beq.n	800408e <_dtoa_r+0x7a6>
 8004084:	4651      	mov	r1, sl
 8004086:	4628      	mov	r0, r5
 8004088:	f000 fd0c 	bl	8004aa4 <__pow5mult>
 800408c:	4682      	mov	sl, r0
 800408e:	2101      	movs	r1, #1
 8004090:	4628      	mov	r0, r5
 8004092:	f000 fc49 	bl	8004928 <__i2b>
 8004096:	9b0e      	ldr	r3, [sp, #56]	; 0x38
 8004098:	4604      	mov	r4, r0
 800409a:	2b00      	cmp	r3, #0
 800409c:	f340 8082 	ble.w	80041a4 <_dtoa_r+0x8bc>
 80040a0:	461a      	mov	r2, r3
 80040a2:	4601      	mov	r1, r0
 80040a4:	4628      	mov	r0, r5
 80040a6:	f000 fcfd 	bl	8004aa4 <__pow5mult>
 80040aa:	9b22      	ldr	r3, [sp, #136]	; 0x88
 80040ac:	4604      	mov	r4, r0
 80040ae:	2b01      	cmp	r3, #1
 80040b0:	dd7b      	ble.n	80041aa <_dtoa_r+0x8c2>
 80040b2:	f04f 0800 	mov.w	r8, #0
 80040b6:	6923      	ldr	r3, [r4, #16]
 80040b8:	eb04 0383 	add.w	r3, r4, r3, lsl #2
 80040bc:	6918      	ldr	r0, [r3, #16]
 80040be:	f000 fbe5 	bl	800488c <__hi0bits>
 80040c2:	f1c0 0020 	rsb	r0, r0, #32
 80040c6:	9b09      	ldr	r3, [sp, #36]	; 0x24
 80040c8:	4418      	add	r0, r3
 80040ca:	f010 001f 	ands.w	r0, r0, #31
 80040ce:	f000 8092 	beq.w	80041f6 <_dtoa_r+0x90e>
 80040d2:	f1c0 0320 	rsb	r3, r0, #32
 80040d6:	2b04      	cmp	r3, #4
 80040d8:	f340 8085 	ble.w	80041e6 <_dtoa_r+0x8fe>
 80040dc:	9b09      	ldr	r3, [sp, #36]	; 0x24
 80040de:	f1c0 001c 	rsb	r0, r0, #28
 80040e2:	4403      	add	r3, r0
 80040e4:	4481      	add	r9, r0
 80040e6:	4407      	add	r7, r0
 80040e8:	9309      	str	r3, [sp, #36]	; 0x24
 80040ea:	f1b9 0f00 	cmp.w	r9, #0
 80040ee:	dd05      	ble.n	80040fc <_dtoa_r+0x814>
 80040f0:	4651      	mov	r1, sl
 80040f2:	464a      	mov	r2, r9
 80040f4:	4628      	mov	r0, r5
 80040f6:	f000 fd2f 	bl	8004b58 <__lshift>
 80040fa:	4682      	mov	sl, r0
 80040fc:	9b09      	ldr	r3, [sp, #36]	; 0x24
 80040fe:	2b00      	cmp	r3, #0
 8004100:	dd05      	ble.n	800410e <_dtoa_r+0x826>
 8004102:	4621      	mov	r1, r4
 8004104:	461a      	mov	r2, r3
 8004106:	4628      	mov	r0, r5
 8004108:	f000 fd26 	bl	8004b58 <__lshift>
 800410c:	4604      	mov	r4, r0
 800410e:	9b0f      	ldr	r3, [sp, #60]	; 0x3c
 8004110:	2b00      	cmp	r3, #0
 8004112:	d072      	beq.n	80041fa <_dtoa_r+0x912>
 8004114:	4621      	mov	r1, r4
 8004116:	4650      	mov	r0, sl
 8004118:	f000 fd8a 	bl	8004c30 <__mcmp>
 800411c:	2800      	cmp	r0, #0
 800411e:	da6c      	bge.n	80041fa <_dtoa_r+0x912>
 8004120:	2300      	movs	r3, #0
 8004122:	4651      	mov	r1, sl
 8004124:	220a      	movs	r2, #10
 8004126:	4628      	mov	r0, r5
 8004128:	f000 fb20 	bl	800476c <__multadd>
 800412c:	9b0b      	ldr	r3, [sp, #44]	; 0x2c
 800412e:	4682      	mov	sl, r0
 8004130:	f10b 3bff 	add.w	fp, fp, #4294967295
 8004134:	2b00      	cmp	r3, #0
 8004136:	f000 81ac 	beq.w	8004492 <_dtoa_r+0xbaa>
 800413a:	2300      	movs	r3, #0
 800413c:	4631      	mov	r1, r6
 800413e:	220a      	movs	r2, #10
 8004140:	4628      	mov	r0, r5
 8004142:	f000 fb13 	bl	800476c <__multadd>
 8004146:	9b06      	ldr	r3, [sp, #24]
 8004148:	4606      	mov	r6, r0
 800414a:	2b00      	cmp	r3, #0
 800414c:	f300 8093 	bgt.w	8004276 <_dtoa_r+0x98e>
 8004150:	9b22      	ldr	r3, [sp, #136]	; 0x88
 8004152:	2b02      	cmp	r3, #2
 8004154:	dc59      	bgt.n	800420a <_dtoa_r+0x922>
 8004156:	e08e      	b.n	8004276 <_dtoa_r+0x98e>
 8004158:	9b16      	ldr	r3, [sp, #88]	; 0x58
 800415a:	f1c3 0336 	rsb	r3, r3, #54	; 0x36
 800415e:	e75d      	b.n	800401c <_dtoa_r+0x734>
 8004160:	9b08      	ldr	r3, [sp, #32]
 8004162:	1e5c      	subs	r4, r3, #1
 8004164:	9b0a      	ldr	r3, [sp, #40]	; 0x28
 8004166:	42a3      	cmp	r3, r4
 8004168:	bfbf      	itttt	lt
 800416a:	9b0a      	ldrlt	r3, [sp, #40]	; 0x28
 800416c:	9a0e      	ldrlt	r2, [sp, #56]	; 0x38
 800416e:	1ae3      	sublt	r3, r4, r3
 8004170:	18d2      	addlt	r2, r2, r3
 8004172:	bfa8      	it	ge
 8004174:	1b1c      	subge	r4, r3, r4
 8004176:	9b08      	ldr	r3, [sp, #32]
 8004178:	bfbe      	ittt	lt
 800417a:	940a      	strlt	r4, [sp, #40]	; 0x28
 800417c:	920e      	strlt	r2, [sp, #56]	; 0x38
 800417e:	2400      	movlt	r4, #0
 8004180:	2b00      	cmp	r3, #0
 8004182:	bfb5      	itete	lt
 8004184:	eba9 0703 	sublt.w	r7, r9, r3
 8004188:	464f      	movge	r7, r9
 800418a:	2300      	movlt	r3, #0
 800418c:	9b08      	ldrge	r3, [sp, #32]
 800418e:	e747      	b.n	8004020 <_dtoa_r+0x738>
 8004190:	464f      	mov	r7, r9
 8004192:	9c0a      	ldr	r4, [sp, #40]	; 0x28
 8004194:	9e0b      	ldr	r6, [sp, #44]	; 0x2c
 8004196:	e74c      	b.n	8004032 <_dtoa_r+0x74a>
 8004198:	9a0a      	ldr	r2, [sp, #40]	; 0x28
 800419a:	e773      	b.n	8004084 <_dtoa_r+0x79c>
 800419c:	3fe00000 	.word	0x3fe00000
 80041a0:	40240000 	.word	0x40240000
 80041a4:	9b22      	ldr	r3, [sp, #136]	; 0x88
 80041a6:	2b01      	cmp	r3, #1
 80041a8:	dc18      	bgt.n	80041dc <_dtoa_r+0x8f4>
 80041aa:	9b04      	ldr	r3, [sp, #16]
 80041ac:	b9b3      	cbnz	r3, 80041dc <_dtoa_r+0x8f4>
 80041ae:	9b05      	ldr	r3, [sp, #20]
 80041b0:	f3c3 0313 	ubfx	r3, r3, #0, #20
 80041b4:	b993      	cbnz	r3, 80041dc <_dtoa_r+0x8f4>
 80041b6:	9b05      	ldr	r3, [sp, #20]
 80041b8:	f023 4300 	bic.w	r3, r3, #2147483648	; 0x80000000
 80041bc:	0d1b      	lsrs	r3, r3, #20
 80041be:	051b      	lsls	r3, r3, #20
 80041c0:	b17b      	cbz	r3, 80041e2 <_dtoa_r+0x8fa>
 80041c2:	f04f 0801 	mov.w	r8, #1
 80041c6:	9b09      	ldr	r3, [sp, #36]	; 0x24
 80041c8:	f109 0901 	add.w	r9, r9, #1
 80041cc:	3301      	adds	r3, #1
 80041ce:	9309      	str	r3, [sp, #36]	; 0x24
 80041d0:	9b0e      	ldr	r3, [sp, #56]	; 0x38
 80041d2:	2b00      	cmp	r3, #0
 80041d4:	f47f af6f 	bne.w	80040b6 <_dtoa_r+0x7ce>
 80041d8:	2001      	movs	r0, #1
 80041da:	e774      	b.n	80040c6 <_dtoa_r+0x7de>
 80041dc:	f04f 0800 	mov.w	r8, #0
 80041e0:	e7f6      	b.n	80041d0 <_dtoa_r+0x8e8>
 80041e2:	4698      	mov	r8, r3
 80041e4:	e7f4      	b.n	80041d0 <_dtoa_r+0x8e8>
 80041e6:	d080      	beq.n	80040ea <_dtoa_r+0x802>
 80041e8:	9a09      	ldr	r2, [sp, #36]	; 0x24
 80041ea:	331c      	adds	r3, #28
 80041ec:	441a      	add	r2, r3
 80041ee:	4499      	add	r9, r3
 80041f0:	441f      	add	r7, r3
 80041f2:	9209      	str	r2, [sp, #36]	; 0x24
 80041f4:	e779      	b.n	80040ea <_dtoa_r+0x802>
 80041f6:	4603      	mov	r3, r0
 80041f8:	e7f6      	b.n	80041e8 <_dtoa_r+0x900>
 80041fa:	9b08      	ldr	r3, [sp, #32]
 80041fc:	2b00      	cmp	r3, #0
 80041fe:	dc34      	bgt.n	800426a <_dtoa_r+0x982>
 8004200:	9b22      	ldr	r3, [sp, #136]	; 0x88
 8004202:	2b02      	cmp	r3, #2
 8004204:	dd31      	ble.n	800426a <_dtoa_r+0x982>
 8004206:	9b08      	ldr	r3, [sp, #32]
 8004208:	9306      	str	r3, [sp, #24]
 800420a:	9b06      	ldr	r3, [sp, #24]
 800420c:	b963      	cbnz	r3, 8004228 <_dtoa_r+0x940>
 800420e:	4621      	mov	r1, r4
 8004210:	2205      	movs	r2, #5
 8004212:	4628      	mov	r0, r5
 8004214:	f000 faaa 	bl	800476c <__multadd>
 8004218:	4601      	mov	r1, r0
 800421a:	4604      	mov	r4, r0
 800421c:	4650      	mov	r0, sl
 800421e:	f000 fd07 	bl	8004c30 <__mcmp>
 8004222:	2800      	cmp	r0, #0
 8004224:	f73f adbf 	bgt.w	8003da6 <_dtoa_r+0x4be>
 8004228:	9b23      	ldr	r3, [sp, #140]	; 0x8c
 800422a:	9f03      	ldr	r7, [sp, #12]
 800422c:	ea6f 0b03 	mvn.w	fp, r3
 8004230:	f04f 0800 	mov.w	r8, #0
 8004234:	4621      	mov	r1, r4
 8004236:	4628      	mov	r0, r5
 8004238:	f000 fa76 	bl	8004728 <_Bfree>
 800423c:	2e00      	cmp	r6, #0
 800423e:	f43f aead 	beq.w	8003f9c <_dtoa_r+0x6b4>
 8004242:	f1b8 0f00 	cmp.w	r8, #0
 8004246:	d005      	beq.n	8004254 <_dtoa_r+0x96c>
 8004248:	45b0      	cmp	r8, r6
 800424a:	d003      	beq.n	8004254 <_dtoa_r+0x96c>
 800424c:	4641      	mov	r1, r8
 800424e:	4628      	mov	r0, r5
 8004250:	f000 fa6a 	bl	8004728 <_Bfree>
 8004254:	4631      	mov	r1, r6
 8004256:	4628      	mov	r0, r5
 8004258:	f000 fa66 	bl	8004728 <_Bfree>
 800425c:	e69e      	b.n	8003f9c <_dtoa_r+0x6b4>
 800425e:	2400      	movs	r4, #0
 8004260:	4626      	mov	r6, r4
 8004262:	e7e1      	b.n	8004228 <_dtoa_r+0x940>
 8004264:	46c3      	mov	fp, r8
 8004266:	4626      	mov	r6, r4
 8004268:	e59d      	b.n	8003da6 <_dtoa_r+0x4be>
 800426a:	9b0b      	ldr	r3, [sp, #44]	; 0x2c
 800426c:	2b00      	cmp	r3, #0
 800426e:	f000 80c8 	beq.w	8004402 <_dtoa_r+0xb1a>
 8004272:	9b08      	ldr	r3, [sp, #32]
 8004274:	9306      	str	r3, [sp, #24]
 8004276:	2f00      	cmp	r7, #0
 8004278:	dd05      	ble.n	8004286 <_dtoa_r+0x99e>
 800427a:	4631      	mov	r1, r6
 800427c:	463a      	mov	r2, r7
 800427e:	4628      	mov	r0, r5
 8004280:	f000 fc6a 	bl	8004b58 <__lshift>
 8004284:	4606      	mov	r6, r0
 8004286:	f1b8 0f00 	cmp.w	r8, #0
 800428a:	d05b      	beq.n	8004344 <_dtoa_r+0xa5c>
 800428c:	4628      	mov	r0, r5
 800428e:	6871      	ldr	r1, [r6, #4]
 8004290:	f000 fa0a 	bl	80046a8 <_Balloc>
 8004294:	4607      	mov	r7, r0
 8004296:	b928      	cbnz	r0, 80042a4 <_dtoa_r+0x9bc>
 8004298:	4602      	mov	r2, r0
 800429a:	f240 21ef 	movw	r1, #751	; 0x2ef
 800429e:	4b81      	ldr	r3, [pc, #516]	; (80044a4 <_dtoa_r+0xbbc>)
 80042a0:	f7ff bb36 	b.w	8003910 <_dtoa_r+0x28>
 80042a4:	6932      	ldr	r2, [r6, #16]
 80042a6:	f106 010c 	add.w	r1, r6, #12
 80042aa:	3202      	adds	r2, #2
 80042ac:	0092      	lsls	r2, r2, #2
 80042ae:	300c      	adds	r0, #12
 80042b0:	f002 f938 	bl	8006524 <memcpy>
 80042b4:	2201      	movs	r2, #1
 80042b6:	4639      	mov	r1, r7
 80042b8:	4628      	mov	r0, r5
 80042ba:	f000 fc4d 	bl	8004b58 <__lshift>
 80042be:	46b0      	mov	r8, r6
 80042c0:	4606      	mov	r6, r0
 80042c2:	9b03      	ldr	r3, [sp, #12]
 80042c4:	9a03      	ldr	r2, [sp, #12]
 80042c6:	3301      	adds	r3, #1
 80042c8:	9308      	str	r3, [sp, #32]
 80042ca:	9b06      	ldr	r3, [sp, #24]
 80042cc:	4413      	add	r3, r2
 80042ce:	930b      	str	r3, [sp, #44]	; 0x2c
 80042d0:	9b04      	ldr	r3, [sp, #16]
 80042d2:	f003 0301 	and.w	r3, r3, #1
 80042d6:	930a      	str	r3, [sp, #40]	; 0x28
 80042d8:	9b08      	ldr	r3, [sp, #32]
 80042da:	4621      	mov	r1, r4
 80042dc:	3b01      	subs	r3, #1
 80042de:	4650      	mov	r0, sl
 80042e0:	9304      	str	r3, [sp, #16]
 80042e2:	f7ff fa75 	bl	80037d0 <quorem>
 80042e6:	4641      	mov	r1, r8
 80042e8:	9006      	str	r0, [sp, #24]
 80042ea:	f100 0930 	add.w	r9, r0, #48	; 0x30
 80042ee:	4650      	mov	r0, sl
 80042f0:	f000 fc9e 	bl	8004c30 <__mcmp>
 80042f4:	4632      	mov	r2, r6
 80042f6:	9009      	str	r0, [sp, #36]	; 0x24
 80042f8:	4621      	mov	r1, r4
 80042fa:	4628      	mov	r0, r5
 80042fc:	f000 fcb4 	bl	8004c68 <__mdiff>
 8004300:	68c2      	ldr	r2, [r0, #12]
 8004302:	4607      	mov	r7, r0
 8004304:	bb02      	cbnz	r2, 8004348 <_dtoa_r+0xa60>
 8004306:	4601      	mov	r1, r0
 8004308:	4650      	mov	r0, sl
 800430a:	f000 fc91 	bl	8004c30 <__mcmp>
 800430e:	4602      	mov	r2, r0
 8004310:	4639      	mov	r1, r7
 8004312:	4628      	mov	r0, r5
 8004314:	920c      	str	r2, [sp, #48]	; 0x30
 8004316:	f000 fa07 	bl	8004728 <_Bfree>
 800431a:	9b22      	ldr	r3, [sp, #136]	; 0x88
 800431c:	9a0c      	ldr	r2, [sp, #48]	; 0x30
 800431e:	9f08      	ldr	r7, [sp, #32]
 8004320:	ea43 0102 	orr.w	r1, r3, r2
 8004324:	9b0a      	ldr	r3, [sp, #40]	; 0x28
 8004326:	4319      	orrs	r1, r3
 8004328:	d110      	bne.n	800434c <_dtoa_r+0xa64>
 800432a:	f1b9 0f39 	cmp.w	r9, #57	; 0x39
 800432e:	d029      	beq.n	8004384 <_dtoa_r+0xa9c>
 8004330:	9b09      	ldr	r3, [sp, #36]	; 0x24
 8004332:	2b00      	cmp	r3, #0
 8004334:	dd02      	ble.n	800433c <_dtoa_r+0xa54>
 8004336:	9b06      	ldr	r3, [sp, #24]
 8004338:	f103 0931 	add.w	r9, r3, #49	; 0x31
 800433c:	9b04      	ldr	r3, [sp, #16]
 800433e:	f883 9000 	strb.w	r9, [r3]
 8004342:	e777      	b.n	8004234 <_dtoa_r+0x94c>
 8004344:	4630      	mov	r0, r6
 8004346:	e7ba      	b.n	80042be <_dtoa_r+0x9d6>
 8004348:	2201      	movs	r2, #1
 800434a:	e7e1      	b.n	8004310 <_dtoa_r+0xa28>
 800434c:	9b09      	ldr	r3, [sp, #36]	; 0x24
 800434e:	2b00      	cmp	r3, #0
 8004350:	db04      	blt.n	800435c <_dtoa_r+0xa74>
 8004352:	9922      	ldr	r1, [sp, #136]	; 0x88
 8004354:	430b      	orrs	r3, r1
 8004356:	990a      	ldr	r1, [sp, #40]	; 0x28
 8004358:	430b      	orrs	r3, r1
 800435a:	d120      	bne.n	800439e <_dtoa_r+0xab6>
 800435c:	2a00      	cmp	r2, #0
 800435e:	dded      	ble.n	800433c <_dtoa_r+0xa54>
 8004360:	4651      	mov	r1, sl
 8004362:	2201      	movs	r2, #1
 8004364:	4628      	mov	r0, r5
 8004366:	f000 fbf7 	bl	8004b58 <__lshift>
 800436a:	4621      	mov	r1, r4
 800436c:	4682      	mov	sl, r0
 800436e:	f000 fc5f 	bl	8004c30 <__mcmp>
 8004372:	2800      	cmp	r0, #0
 8004374:	dc03      	bgt.n	800437e <_dtoa_r+0xa96>
 8004376:	d1e1      	bne.n	800433c <_dtoa_r+0xa54>
 8004378:	f019 0f01 	tst.w	r9, #1
 800437c:	d0de      	beq.n	800433c <_dtoa_r+0xa54>
 800437e:	f1b9 0f39 	cmp.w	r9, #57	; 0x39
 8004382:	d1d8      	bne.n	8004336 <_dtoa_r+0xa4e>
 8004384:	2339      	movs	r3, #57	; 0x39
 8004386:	9a04      	ldr	r2, [sp, #16]
 8004388:	7013      	strb	r3, [r2, #0]
 800438a:	463b      	mov	r3, r7
 800438c:	461f      	mov	r7, r3
 800438e:	f817 2c01 	ldrb.w	r2, [r7, #-1]
 8004392:	3b01      	subs	r3, #1
 8004394:	2a39      	cmp	r2, #57	; 0x39
 8004396:	d06b      	beq.n	8004470 <_dtoa_r+0xb88>
 8004398:	3201      	adds	r2, #1
 800439a:	701a      	strb	r2, [r3, #0]
 800439c:	e74a      	b.n	8004234 <_dtoa_r+0x94c>
 800439e:	2a00      	cmp	r2, #0
 80043a0:	dd07      	ble.n	80043b2 <_dtoa_r+0xaca>
 80043a2:	f1b9 0f39 	cmp.w	r9, #57	; 0x39
 80043a6:	d0ed      	beq.n	8004384 <_dtoa_r+0xa9c>
 80043a8:	9a04      	ldr	r2, [sp, #16]
 80043aa:	f109 0301 	add.w	r3, r9, #1
 80043ae:	7013      	strb	r3, [r2, #0]
 80043b0:	e740      	b.n	8004234 <_dtoa_r+0x94c>
 80043b2:	9b08      	ldr	r3, [sp, #32]
 80043b4:	9a0b      	ldr	r2, [sp, #44]	; 0x2c
 80043b6:	f803 9c01 	strb.w	r9, [r3, #-1]
 80043ba:	4293      	cmp	r3, r2
 80043bc:	d042      	beq.n	8004444 <_dtoa_r+0xb5c>
 80043be:	4651      	mov	r1, sl
 80043c0:	2300      	movs	r3, #0
 80043c2:	220a      	movs	r2, #10
 80043c4:	4628      	mov	r0, r5
 80043c6:	f000 f9d1 	bl	800476c <__multadd>
 80043ca:	45b0      	cmp	r8, r6
 80043cc:	4682      	mov	sl, r0
 80043ce:	f04f 0300 	mov.w	r3, #0
 80043d2:	f04f 020a 	mov.w	r2, #10
 80043d6:	4641      	mov	r1, r8
 80043d8:	4628      	mov	r0, r5
 80043da:	d107      	bne.n	80043ec <_dtoa_r+0xb04>
 80043dc:	f000 f9c6 	bl	800476c <__multadd>
 80043e0:	4680      	mov	r8, r0
 80043e2:	4606      	mov	r6, r0
 80043e4:	9b08      	ldr	r3, [sp, #32]
 80043e6:	3301      	adds	r3, #1
 80043e8:	9308      	str	r3, [sp, #32]
 80043ea:	e775      	b.n	80042d8 <_dtoa_r+0x9f0>
 80043ec:	f000 f9be 	bl	800476c <__multadd>
 80043f0:	4631      	mov	r1, r6
 80043f2:	4680      	mov	r8, r0
 80043f4:	2300      	movs	r3, #0
 80043f6:	220a      	movs	r2, #10
 80043f8:	4628      	mov	r0, r5
 80043fa:	f000 f9b7 	bl	800476c <__multadd>
 80043fe:	4606      	mov	r6, r0
 8004400:	e7f0      	b.n	80043e4 <_dtoa_r+0xafc>
 8004402:	9b08      	ldr	r3, [sp, #32]
 8004404:	9306      	str	r3, [sp, #24]
 8004406:	9f03      	ldr	r7, [sp, #12]
 8004408:	4621      	mov	r1, r4
 800440a:	4650      	mov	r0, sl
 800440c:	f7ff f9e0 	bl	80037d0 <quorem>
 8004410:	9b03      	ldr	r3, [sp, #12]
 8004412:	f100 0930 	add.w	r9, r0, #48	; 0x30
 8004416:	f807 9b01 	strb.w	r9, [r7], #1
 800441a:	1afa      	subs	r2, r7, r3
 800441c:	9b06      	ldr	r3, [sp, #24]
 800441e:	4293      	cmp	r3, r2
 8004420:	dd07      	ble.n	8004432 <_dtoa_r+0xb4a>
 8004422:	4651      	mov	r1, sl
 8004424:	2300      	movs	r3, #0
 8004426:	220a      	movs	r2, #10
 8004428:	4628      	mov	r0, r5
 800442a:	f000 f99f 	bl	800476c <__multadd>
 800442e:	4682      	mov	sl, r0
 8004430:	e7ea      	b.n	8004408 <_dtoa_r+0xb20>
 8004432:	9b06      	ldr	r3, [sp, #24]
 8004434:	f04f 0800 	mov.w	r8, #0
 8004438:	2b00      	cmp	r3, #0
 800443a:	bfcc      	ite	gt
 800443c:	461f      	movgt	r7, r3
 800443e:	2701      	movle	r7, #1
 8004440:	9b03      	ldr	r3, [sp, #12]
 8004442:	441f      	add	r7, r3
 8004444:	4651      	mov	r1, sl
 8004446:	2201      	movs	r2, #1
 8004448:	4628      	mov	r0, r5
 800444a:	f000 fb85 	bl	8004b58 <__lshift>
 800444e:	4621      	mov	r1, r4
 8004450:	4682      	mov	sl, r0
 8004452:	f000 fbed 	bl	8004c30 <__mcmp>
 8004456:	2800      	cmp	r0, #0
 8004458:	dc97      	bgt.n	800438a <_dtoa_r+0xaa2>
 800445a:	d102      	bne.n	8004462 <_dtoa_r+0xb7a>
 800445c:	f019 0f01 	tst.w	r9, #1
 8004460:	d193      	bne.n	800438a <_dtoa_r+0xaa2>
 8004462:	463b      	mov	r3, r7
 8004464:	461f      	mov	r7, r3
 8004466:	f813 2d01 	ldrb.w	r2, [r3, #-1]!
 800446a:	2a30      	cmp	r2, #48	; 0x30
 800446c:	d0fa      	beq.n	8004464 <_dtoa_r+0xb7c>
 800446e:	e6e1      	b.n	8004234 <_dtoa_r+0x94c>
 8004470:	9a03      	ldr	r2, [sp, #12]
 8004472:	429a      	cmp	r2, r3
 8004474:	d18a      	bne.n	800438c <_dtoa_r+0xaa4>
 8004476:	2331      	movs	r3, #49	; 0x31
 8004478:	f10b 0b01 	add.w	fp, fp, #1
 800447c:	e797      	b.n	80043ae <_dtoa_r+0xac6>
 800447e:	4b0a      	ldr	r3, [pc, #40]	; (80044a8 <_dtoa_r+0xbc0>)
 8004480:	f7ff ba9f 	b.w	80039c2 <_dtoa_r+0xda>
 8004484:	9b26      	ldr	r3, [sp, #152]	; 0x98
 8004486:	2b00      	cmp	r3, #0
 8004488:	f47f aa77 	bne.w	800397a <_dtoa_r+0x92>
 800448c:	4b07      	ldr	r3, [pc, #28]	; (80044ac <_dtoa_r+0xbc4>)
 800448e:	f7ff ba98 	b.w	80039c2 <_dtoa_r+0xda>
 8004492:	9b06      	ldr	r3, [sp, #24]
 8004494:	2b00      	cmp	r3, #0
 8004496:	dcb6      	bgt.n	8004406 <_dtoa_r+0xb1e>
 8004498:	9b22      	ldr	r3, [sp, #136]	; 0x88
 800449a:	2b02      	cmp	r3, #2
 800449c:	f73f aeb5 	bgt.w	800420a <_dtoa_r+0x922>
 80044a0:	e7b1      	b.n	8004406 <_dtoa_r+0xb1e>
 80044a2:	bf00      	nop
 80044a4:	08006f7a 	.word	0x08006f7a
 80044a8:	08006ed5 	.word	0x08006ed5
 80044ac:	08006efe 	.word	0x08006efe

080044b0 <_free_r>:
 80044b0:	b538      	push	{r3, r4, r5, lr}
 80044b2:	4605      	mov	r5, r0
 80044b4:	2900      	cmp	r1, #0
 80044b6:	d040      	beq.n	800453a <_free_r+0x8a>
 80044b8:	f851 3c04 	ldr.w	r3, [r1, #-4]
 80044bc:	1f0c      	subs	r4, r1, #4
 80044be:	2b00      	cmp	r3, #0
 80044c0:	bfb8      	it	lt
 80044c2:	18e4      	addlt	r4, r4, r3
 80044c4:	f000 f8e4 	bl	8004690 <__malloc_lock>
 80044c8:	4a1c      	ldr	r2, [pc, #112]	; (800453c <_free_r+0x8c>)
 80044ca:	6813      	ldr	r3, [r2, #0]
 80044cc:	b933      	cbnz	r3, 80044dc <_free_r+0x2c>
 80044ce:	6063      	str	r3, [r4, #4]
 80044d0:	6014      	str	r4, [r2, #0]
 80044d2:	4628      	mov	r0, r5
 80044d4:	e8bd 4038 	ldmia.w	sp!, {r3, r4, r5, lr}
 80044d8:	f000 b8e0 	b.w	800469c <__malloc_unlock>
 80044dc:	42a3      	cmp	r3, r4
 80044de:	d908      	bls.n	80044f2 <_free_r+0x42>
 80044e0:	6820      	ldr	r0, [r4, #0]
 80044e2:	1821      	adds	r1, r4, r0
 80044e4:	428b      	cmp	r3, r1
 80044e6:	bf01      	itttt	eq
 80044e8:	6819      	ldreq	r1, [r3, #0]
 80044ea:	685b      	ldreq	r3, [r3, #4]
 80044ec:	1809      	addeq	r1, r1, r0
 80044ee:	6021      	streq	r1, [r4, #0]
 80044f0:	e7ed      	b.n	80044ce <_free_r+0x1e>
 80044f2:	461a      	mov	r2, r3
 80044f4:	685b      	ldr	r3, [r3, #4]
 80044f6:	b10b      	cbz	r3, 80044fc <_free_r+0x4c>
 80044f8:	42a3      	cmp	r3, r4
 80044fa:	d9fa      	bls.n	80044f2 <_free_r+0x42>
 80044fc:	6811      	ldr	r1, [r2, #0]
 80044fe:	1850      	adds	r0, r2, r1
 8004500:	42a0      	cmp	r0, r4
 8004502:	d10b      	bne.n	800451c <_free_r+0x6c>
 8004504:	6820      	ldr	r0, [r4, #0]
 8004506:	4401      	add	r1, r0
 8004508:	1850      	adds	r0, r2, r1
 800450a:	4283      	cmp	r3, r0
 800450c:	6011      	str	r1, [r2, #0]
 800450e:	d1e0      	bne.n	80044d2 <_free_r+0x22>
 8004510:	6818      	ldr	r0, [r3, #0]
 8004512:	685b      	ldr	r3, [r3, #4]
 8004514:	4408      	add	r0, r1
 8004516:	6010      	str	r0, [r2, #0]
 8004518:	6053      	str	r3, [r2, #4]
 800451a:	e7da      	b.n	80044d2 <_free_r+0x22>
 800451c:	d902      	bls.n	8004524 <_free_r+0x74>
 800451e:	230c      	movs	r3, #12
 8004520:	602b      	str	r3, [r5, #0]
 8004522:	e7d6      	b.n	80044d2 <_free_r+0x22>
 8004524:	6820      	ldr	r0, [r4, #0]
 8004526:	1821      	adds	r1, r4, r0
 8004528:	428b      	cmp	r3, r1
 800452a:	bf01      	itttt	eq
 800452c:	6819      	ldreq	r1, [r3, #0]
 800452e:	685b      	ldreq	r3, [r3, #4]
 8004530:	1809      	addeq	r1, r1, r0
 8004532:	6021      	streq	r1, [r4, #0]
 8004534:	6063      	str	r3, [r4, #4]
 8004536:	6054      	str	r4, [r2, #4]
 8004538:	e7cb      	b.n	80044d2 <_free_r+0x22>
 800453a:	bd38      	pop	{r3, r4, r5, pc}
 800453c:	20000438 	.word	0x20000438

08004540 <malloc>:
 8004540:	4b02      	ldr	r3, [pc, #8]	; (800454c <malloc+0xc>)
 8004542:	4601      	mov	r1, r0
 8004544:	6818      	ldr	r0, [r3, #0]
 8004546:	f000 b823 	b.w	8004590 <_malloc_r>
 800454a:	bf00      	nop
 800454c:	20000080 	.word	0x20000080

08004550 <sbrk_aligned>:
 8004550:	b570      	push	{r4, r5, r6, lr}
 8004552:	4e0e      	ldr	r6, [pc, #56]	; (800458c <sbrk_aligned+0x3c>)
 8004554:	460c      	mov	r4, r1
 8004556:	6831      	ldr	r1, [r6, #0]
 8004558:	4605      	mov	r5, r0
 800455a:	b911      	cbnz	r1, 8004562 <sbrk_aligned+0x12>
 800455c:	f001 ffd2 	bl	8006504 <_sbrk_r>
 8004560:	6030      	str	r0, [r6, #0]
 8004562:	4621      	mov	r1, r4
 8004564:	4628      	mov	r0, r5
 8004566:	f001 ffcd 	bl	8006504 <_sbrk_r>
 800456a:	1c43      	adds	r3, r0, #1
 800456c:	d00a      	beq.n	8004584 <sbrk_aligned+0x34>
 800456e:	1cc4      	adds	r4, r0, #3
 8004570:	f024 0403 	bic.w	r4, r4, #3
 8004574:	42a0      	cmp	r0, r4
 8004576:	d007      	beq.n	8004588 <sbrk_aligned+0x38>
 8004578:	1a21      	subs	r1, r4, r0
 800457a:	4628      	mov	r0, r5
 800457c:	f001 ffc2 	bl	8006504 <_sbrk_r>
 8004580:	3001      	adds	r0, #1
 8004582:	d101      	bne.n	8004588 <sbrk_aligned+0x38>
 8004584:	f04f 34ff 	mov.w	r4, #4294967295
 8004588:	4620      	mov	r0, r4
 800458a:	bd70      	pop	{r4, r5, r6, pc}
 800458c:	2000043c 	.word	0x2000043c

08004590 <_malloc_r>:
 8004590:	e92d 43f8 	stmdb	sp!, {r3, r4, r5, r6, r7, r8, r9, lr}
 8004594:	1ccd      	adds	r5, r1, #3
 8004596:	f025 0503 	bic.w	r5, r5, #3
 800459a:	3508      	adds	r5, #8
 800459c:	2d0c      	cmp	r5, #12
 800459e:	bf38      	it	cc
 80045a0:	250c      	movcc	r5, #12
 80045a2:	2d00      	cmp	r5, #0
 80045a4:	4607      	mov	r7, r0
 80045a6:	db01      	blt.n	80045ac <_malloc_r+0x1c>
 80045a8:	42a9      	cmp	r1, r5
 80045aa:	d905      	bls.n	80045b8 <_malloc_r+0x28>
 80045ac:	230c      	movs	r3, #12
 80045ae:	2600      	movs	r6, #0
 80045b0:	603b      	str	r3, [r7, #0]
 80045b2:	4630      	mov	r0, r6
 80045b4:	e8bd 83f8 	ldmia.w	sp!, {r3, r4, r5, r6, r7, r8, r9, pc}
 80045b8:	f8df 80d0 	ldr.w	r8, [pc, #208]	; 800468c <_malloc_r+0xfc>
 80045bc:	f000 f868 	bl	8004690 <__malloc_lock>
 80045c0:	f8d8 3000 	ldr.w	r3, [r8]
 80045c4:	461c      	mov	r4, r3
 80045c6:	bb5c      	cbnz	r4, 8004620 <_malloc_r+0x90>
 80045c8:	4629      	mov	r1, r5
 80045ca:	4638      	mov	r0, r7
 80045cc:	f7ff ffc0 	bl	8004550 <sbrk_aligned>
 80045d0:	1c43      	adds	r3, r0, #1
 80045d2:	4604      	mov	r4, r0
 80045d4:	d155      	bne.n	8004682 <_malloc_r+0xf2>
 80045d6:	f8d8 4000 	ldr.w	r4, [r8]
 80045da:	4626      	mov	r6, r4
 80045dc:	2e00      	cmp	r6, #0
 80045de:	d145      	bne.n	800466c <_malloc_r+0xdc>
 80045e0:	2c00      	cmp	r4, #0
 80045e2:	d048      	beq.n	8004676 <_malloc_r+0xe6>
 80045e4:	6823      	ldr	r3, [r4, #0]
 80045e6:	4631      	mov	r1, r6
 80045e8:	4638      	mov	r0, r7
 80045ea:	eb04 0903 	add.w	r9, r4, r3
 80045ee:	f001 ff89 	bl	8006504 <_sbrk_r>
 80045f2:	4581      	cmp	r9, r0
 80045f4:	d13f      	bne.n	8004676 <_malloc_r+0xe6>
 80045f6:	6821      	ldr	r1, [r4, #0]
 80045f8:	4638      	mov	r0, r7
 80045fa:	1a6d      	subs	r5, r5, r1
 80045fc:	4629      	mov	r1, r5
 80045fe:	f7ff ffa7 	bl	8004550 <sbrk_aligned>
 8004602:	3001      	adds	r0, #1
 8004604:	d037      	beq.n	8004676 <_malloc_r+0xe6>
 8004606:	6823      	ldr	r3, [r4, #0]
 8004608:	442b      	add	r3, r5
 800460a:	6023      	str	r3, [r4, #0]
 800460c:	f8d8 3000 	ldr.w	r3, [r8]
 8004610:	2b00      	cmp	r3, #0
 8004612:	d038      	beq.n	8004686 <_malloc_r+0xf6>
 8004614:	685a      	ldr	r2, [r3, #4]
 8004616:	42a2      	cmp	r2, r4
 8004618:	d12b      	bne.n	8004672 <_malloc_r+0xe2>
 800461a:	2200      	movs	r2, #0
 800461c:	605a      	str	r2, [r3, #4]
 800461e:	e00f      	b.n	8004640 <_malloc_r+0xb0>
 8004620:	6822      	ldr	r2, [r4, #0]
 8004622:	1b52      	subs	r2, r2, r5
 8004624:	d41f      	bmi.n	8004666 <_malloc_r+0xd6>
 8004626:	2a0b      	cmp	r2, #11
 8004628:	d917      	bls.n	800465a <_malloc_r+0xca>
 800462a:	1961      	adds	r1, r4, r5
 800462c:	42a3      	cmp	r3, r4
 800462e:	6025      	str	r5, [r4, #0]
 8004630:	bf18      	it	ne
 8004632:	6059      	strne	r1, [r3, #4]
 8004634:	6863      	ldr	r3, [r4, #4]
 8004636:	bf08      	it	eq
 8004638:	f8c8 1000 	streq.w	r1, [r8]
 800463c:	5162      	str	r2, [r4, r5]
 800463e:	604b      	str	r3, [r1, #4]
 8004640:	4638      	mov	r0, r7
 8004642:	f104 060b 	add.w	r6, r4, #11
 8004646:	f000 f829 	bl	800469c <__malloc_unlock>
 800464a:	f026 0607 	bic.w	r6, r6, #7
 800464e:	1d23      	adds	r3, r4, #4
 8004650:	1af2      	subs	r2, r6, r3
 8004652:	d0ae      	beq.n	80045b2 <_malloc_r+0x22>
 8004654:	1b9b      	subs	r3, r3, r6
 8004656:	50a3      	str	r3, [r4, r2]
 8004658:	e7ab      	b.n	80045b2 <_malloc_r+0x22>
 800465a:	42a3      	cmp	r3, r4
 800465c:	6862      	ldr	r2, [r4, #4]
 800465e:	d1dd      	bne.n	800461c <_malloc_r+0x8c>
 8004660:	f8c8 2000 	str.w	r2, [r8]
 8004664:	e7ec      	b.n	8004640 <_malloc_r+0xb0>
 8004666:	4623      	mov	r3, r4
 8004668:	6864      	ldr	r4, [r4, #4]
 800466a:	e7ac      	b.n	80045c6 <_malloc_r+0x36>
 800466c:	4634      	mov	r4, r6
 800466e:	6876      	ldr	r6, [r6, #4]
 8004670:	e7b4      	b.n	80045dc <_malloc_r+0x4c>
 8004672:	4613      	mov	r3, r2
 8004674:	e7cc      	b.n	8004610 <_malloc_r+0x80>
 8004676:	230c      	movs	r3, #12
 8004678:	4638      	mov	r0, r7
 800467a:	603b      	str	r3, [r7, #0]
 800467c:	f000 f80e 	bl	800469c <__malloc_unlock>
 8004680:	e797      	b.n	80045b2 <_malloc_r+0x22>
 8004682:	6025      	str	r5, [r4, #0]
 8004684:	e7dc      	b.n	8004640 <_malloc_r+0xb0>
 8004686:	605b      	str	r3, [r3, #4]
 8004688:	deff      	udf	#255	; 0xff
 800468a:	bf00      	nop
 800468c:	20000438 	.word	0x20000438

08004690 <__malloc_lock>:
 8004690:	4801      	ldr	r0, [pc, #4]	; (8004698 <__malloc_lock+0x8>)
 8004692:	f7ff b888 	b.w	80037a6 <__retarget_lock_acquire_recursive>
 8004696:	bf00      	nop
 8004698:	20000434 	.word	0x20000434

0800469c <__malloc_unlock>:
 800469c:	4801      	ldr	r0, [pc, #4]	; (80046a4 <__malloc_unlock+0x8>)
 800469e:	f7ff b883 	b.w	80037a8 <__retarget_lock_release_recursive>
 80046a2:	bf00      	nop
 80046a4:	20000434 	.word	0x20000434

080046a8 <_Balloc>:
 80046a8:	b570      	push	{r4, r5, r6, lr}
 80046aa:	69c6      	ldr	r6, [r0, #28]
 80046ac:	4604      	mov	r4, r0
 80046ae:	460d      	mov	r5, r1
 80046b0:	b976      	cbnz	r6, 80046d0 <_Balloc+0x28>
 80046b2:	2010      	movs	r0, #16
 80046b4:	f7ff ff44 	bl	8004540 <malloc>
 80046b8:	4602      	mov	r2, r0
 80046ba:	61e0      	str	r0, [r4, #28]
 80046bc:	b920      	cbnz	r0, 80046c8 <_Balloc+0x20>
 80046be:	216b      	movs	r1, #107	; 0x6b
 80046c0:	4b17      	ldr	r3, [pc, #92]	; (8004720 <_Balloc+0x78>)
 80046c2:	4818      	ldr	r0, [pc, #96]	; (8004724 <_Balloc+0x7c>)
 80046c4:	f001 ff42 	bl	800654c <__assert_func>
 80046c8:	e9c0 6601 	strd	r6, r6, [r0, #4]
 80046cc:	6006      	str	r6, [r0, #0]
 80046ce:	60c6      	str	r6, [r0, #12]
 80046d0:	69e6      	ldr	r6, [r4, #28]
 80046d2:	68f3      	ldr	r3, [r6, #12]
 80046d4:	b183      	cbz	r3, 80046f8 <_Balloc+0x50>
 80046d6:	69e3      	ldr	r3, [r4, #28]
 80046d8:	68db      	ldr	r3, [r3, #12]
 80046da:	f853 0025 	ldr.w	r0, [r3, r5, lsl #2]
 80046de:	b9b8      	cbnz	r0, 8004710 <_Balloc+0x68>
 80046e0:	2101      	movs	r1, #1
 80046e2:	fa01 f605 	lsl.w	r6, r1, r5
 80046e6:	1d72      	adds	r2, r6, #5
 80046e8:	4620      	mov	r0, r4
 80046ea:	0092      	lsls	r2, r2, #2
 80046ec:	f001 ff4c 	bl	8006588 <_calloc_r>
 80046f0:	b160      	cbz	r0, 800470c <_Balloc+0x64>
 80046f2:	e9c0 5601 	strd	r5, r6, [r0, #4]
 80046f6:	e00e      	b.n	8004716 <_Balloc+0x6e>
 80046f8:	2221      	movs	r2, #33	; 0x21
 80046fa:	2104      	movs	r1, #4
 80046fc:	4620      	mov	r0, r4
 80046fe:	f001 ff43 	bl	8006588 <_calloc_r>
 8004702:	69e3      	ldr	r3, [r4, #28]
 8004704:	60f0      	str	r0, [r6, #12]
 8004706:	68db      	ldr	r3, [r3, #12]
 8004708:	2b00      	cmp	r3, #0
 800470a:	d1e4      	bne.n	80046d6 <_Balloc+0x2e>
 800470c:	2000      	movs	r0, #0
 800470e:	bd70      	pop	{r4, r5, r6, pc}
 8004710:	6802      	ldr	r2, [r0, #0]
 8004712:	f843 2025 	str.w	r2, [r3, r5, lsl #2]
 8004716:	2300      	movs	r3, #0
 8004718:	e9c0 3303 	strd	r3, r3, [r0, #12]
 800471c:	e7f7      	b.n	800470e <_Balloc+0x66>
 800471e:	bf00      	nop
 8004720:	08006f0b 	.word	0x08006f0b
 8004724:	08006f8b 	.word	0x08006f8b

08004728 <_Bfree>:
 8004728:	b570      	push	{r4, r5, r6, lr}
 800472a:	69c6      	ldr	r6, [r0, #28]
 800472c:	4605      	mov	r5, r0
 800472e:	460c      	mov	r4, r1
 8004730:	b976      	cbnz	r6, 8004750 <_Bfree+0x28>
 8004732:	2010      	movs	r0, #16
 8004734:	f7ff ff04 	bl	8004540 <malloc>
 8004738:	4602      	mov	r2, r0
 800473a:	61e8      	str	r0, [r5, #28]
 800473c:	b920      	cbnz	r0, 8004748 <_Bfree+0x20>
 800473e:	218f      	movs	r1, #143	; 0x8f
 8004740:	4b08      	ldr	r3, [pc, #32]	; (8004764 <_Bfree+0x3c>)
 8004742:	4809      	ldr	r0, [pc, #36]	; (8004768 <_Bfree+0x40>)
 8004744:	f001 ff02 	bl	800654c <__assert_func>
 8004748:	e9c0 6601 	strd	r6, r6, [r0, #4]
 800474c:	6006      	str	r6, [r0, #0]
 800474e:	60c6      	str	r6, [r0, #12]
 8004750:	b13c      	cbz	r4, 8004762 <_Bfree+0x3a>
 8004752:	69eb      	ldr	r3, [r5, #28]
 8004754:	6862      	ldr	r2, [r4, #4]
 8004756:	68db      	ldr	r3, [r3, #12]
 8004758:	f853 1022 	ldr.w	r1, [r3, r2, lsl #2]
 800475c:	6021      	str	r1, [r4, #0]
 800475e:	f843 4022 	str.w	r4, [r3, r2, lsl #2]
 8004762:	bd70      	pop	{r4, r5, r6, pc}
 8004764:	08006f0b 	.word	0x08006f0b
 8004768:	08006f8b 	.word	0x08006f8b

0800476c <__multadd>:
 800476c:	e92d 41f0 	stmdb	sp!, {r4, r5, r6, r7, r8, lr}
 8004770:	4607      	mov	r7, r0
 8004772:	460c      	mov	r4, r1
 8004774:	461e      	mov	r6, r3
 8004776:	2000      	movs	r0, #0
 8004778:	690d      	ldr	r5, [r1, #16]
 800477a:	f101 0c14 	add.w	ip, r1, #20
 800477e:	f8dc 3000 	ldr.w	r3, [ip]
 8004782:	3001      	adds	r0, #1
 8004784:	b299      	uxth	r1, r3
 8004786:	fb02 6101 	mla	r1, r2, r1, r6
 800478a:	0c1e      	lsrs	r6, r3, #16
 800478c:	0c0b      	lsrs	r3, r1, #16
 800478e:	fb02 3306 	mla	r3, r2, r6, r3
 8004792:	b289      	uxth	r1, r1
 8004794:	eb01 4103 	add.w	r1, r1, r3, lsl #16
 8004798:	4285      	cmp	r5, r0
 800479a:	ea4f 4613 	mov.w	r6, r3, lsr #16
 800479e:	f84c 1b04 	str.w	r1, [ip], #4
 80047a2:	dcec      	bgt.n	800477e <__multadd+0x12>
 80047a4:	b30e      	cbz	r6, 80047ea <__multadd+0x7e>
 80047a6:	68a3      	ldr	r3, [r4, #8]
 80047a8:	42ab      	cmp	r3, r5
 80047aa:	dc19      	bgt.n	80047e0 <__multadd+0x74>
 80047ac:	6861      	ldr	r1, [r4, #4]
 80047ae:	4638      	mov	r0, r7
 80047b0:	3101      	adds	r1, #1
 80047b2:	f7ff ff79 	bl	80046a8 <_Balloc>
 80047b6:	4680      	mov	r8, r0
 80047b8:	b928      	cbnz	r0, 80047c6 <__multadd+0x5a>
 80047ba:	4602      	mov	r2, r0
 80047bc:	21ba      	movs	r1, #186	; 0xba
 80047be:	4b0c      	ldr	r3, [pc, #48]	; (80047f0 <__multadd+0x84>)
 80047c0:	480c      	ldr	r0, [pc, #48]	; (80047f4 <__multadd+0x88>)
 80047c2:	f001 fec3 	bl	800654c <__assert_func>
 80047c6:	6922      	ldr	r2, [r4, #16]
 80047c8:	f104 010c 	add.w	r1, r4, #12
 80047cc:	3202      	adds	r2, #2
 80047ce:	0092      	lsls	r2, r2, #2
 80047d0:	300c      	adds	r0, #12
 80047d2:	f001 fea7 	bl	8006524 <memcpy>
 80047d6:	4621      	mov	r1, r4
 80047d8:	4638      	mov	r0, r7
 80047da:	f7ff ffa5 	bl	8004728 <_Bfree>
 80047de:	4644      	mov	r4, r8
 80047e0:	eb04 0385 	add.w	r3, r4, r5, lsl #2
 80047e4:	3501      	adds	r5, #1
 80047e6:	615e      	str	r6, [r3, #20]
 80047e8:	6125      	str	r5, [r4, #16]
 80047ea:	4620      	mov	r0, r4
 80047ec:	e8bd 81f0 	ldmia.w	sp!, {r4, r5, r6, r7, r8, pc}
 80047f0:	08006f7a 	.word	0x08006f7a
 80047f4:	08006f8b 	.word	0x08006f8b

080047f8 <__s2b>:
 80047f8:	e92d 43f8 	stmdb	sp!, {r3, r4, r5, r6, r7, r8, r9, lr}
 80047fc:	4615      	mov	r5, r2
 80047fe:	2209      	movs	r2, #9
 8004800:	461f      	mov	r7, r3
 8004802:	3308      	adds	r3, #8
 8004804:	460c      	mov	r4, r1
 8004806:	fb93 f3f2 	sdiv	r3, r3, r2
 800480a:	4606      	mov	r6, r0
 800480c:	2201      	movs	r2, #1
 800480e:	2100      	movs	r1, #0
 8004810:	429a      	cmp	r2, r3
 8004812:	db09      	blt.n	8004828 <__s2b+0x30>
 8004814:	4630      	mov	r0, r6
 8004816:	f7ff ff47 	bl	80046a8 <_Balloc>
 800481a:	b940      	cbnz	r0, 800482e <__s2b+0x36>
 800481c:	4602      	mov	r2, r0
 800481e:	21d3      	movs	r1, #211	; 0xd3
 8004820:	4b18      	ldr	r3, [pc, #96]	; (8004884 <__s2b+0x8c>)
 8004822:	4819      	ldr	r0, [pc, #100]	; (8004888 <__s2b+0x90>)
 8004824:	f001 fe92 	bl	800654c <__assert_func>
 8004828:	0052      	lsls	r2, r2, #1
 800482a:	3101      	adds	r1, #1
 800482c:	e7f0      	b.n	8004810 <__s2b+0x18>
 800482e:	9b08      	ldr	r3, [sp, #32]
 8004830:	2d09      	cmp	r5, #9
 8004832:	6143      	str	r3, [r0, #20]
 8004834:	f04f 0301 	mov.w	r3, #1
 8004838:	6103      	str	r3, [r0, #16]
 800483a:	dd16      	ble.n	800486a <__s2b+0x72>
 800483c:	f104 0909 	add.w	r9, r4, #9
 8004840:	46c8      	mov	r8, r9
 8004842:	442c      	add	r4, r5
 8004844:	f818 3b01 	ldrb.w	r3, [r8], #1
 8004848:	4601      	mov	r1, r0
 800484a:	220a      	movs	r2, #10
 800484c:	4630      	mov	r0, r6
 800484e:	3b30      	subs	r3, #48	; 0x30
 8004850:	f7ff ff8c 	bl	800476c <__multadd>
 8004854:	45a0      	cmp	r8, r4
 8004856:	d1f5      	bne.n	8004844 <__s2b+0x4c>
 8004858:	f1a5 0408 	sub.w	r4, r5, #8
 800485c:	444c      	add	r4, r9
 800485e:	1b2d      	subs	r5, r5, r4
 8004860:	1963      	adds	r3, r4, r5
 8004862:	42bb      	cmp	r3, r7
 8004864:	db04      	blt.n	8004870 <__s2b+0x78>
 8004866:	e8bd 83f8 	ldmia.w	sp!, {r3, r4, r5, r6, r7, r8, r9, pc}
 800486a:	2509      	movs	r5, #9
 800486c:	340a      	adds	r4, #10
 800486e:	e7f6      	b.n	800485e <__s2b+0x66>
 8004870:	f814 3b01 	ldrb.w	r3, [r4], #1
 8004874:	4601      	mov	r1, r0
 8004876:	220a      	movs	r2, #10
 8004878:	4630      	mov	r0, r6
 800487a:	3b30      	subs	r3, #48	; 0x30
 800487c:	f7ff ff76 	bl	800476c <__multadd>
 8004880:	e7ee      	b.n	8004860 <__s2b+0x68>
 8004882:	bf00      	nop
 8004884:	08006f7a 	.word	0x08006f7a
 8004888:	08006f8b 	.word	0x08006f8b

0800488c <__hi0bits>:
 800488c:	0c02      	lsrs	r2, r0, #16
 800488e:	0412      	lsls	r2, r2, #16
 8004890:	4603      	mov	r3, r0
 8004892:	b9ca      	cbnz	r2, 80048c8 <__hi0bits+0x3c>
 8004894:	0403      	lsls	r3, r0, #16
 8004896:	2010      	movs	r0, #16
 8004898:	f013 4f7f 	tst.w	r3, #4278190080	; 0xff000000
 800489c:	bf04      	itt	eq
 800489e:	021b      	lsleq	r3, r3, #8
 80048a0:	3008      	addeq	r0, #8
 80048a2:	f013 4f70 	tst.w	r3, #4026531840	; 0xf0000000
 80048a6:	bf04      	itt	eq
 80048a8:	011b      	lsleq	r3, r3, #4
 80048aa:	3004      	addeq	r0, #4
 80048ac:	f013 4f40 	tst.w	r3, #3221225472	; 0xc0000000
 80048b0:	bf04      	itt	eq
 80048b2:	009b      	lsleq	r3, r3, #2
 80048b4:	3002      	addeq	r0, #2
 80048b6:	2b00      	cmp	r3, #0
 80048b8:	db05      	blt.n	80048c6 <__hi0bits+0x3a>
 80048ba:	f013 4f80 	tst.w	r3, #1073741824	; 0x40000000
 80048be:	f100 0001 	add.w	r0, r0, #1
 80048c2:	bf08      	it	eq
 80048c4:	2020      	moveq	r0, #32
 80048c6:	4770      	bx	lr
 80048c8:	2000      	movs	r0, #0
 80048ca:	e7e5      	b.n	8004898 <__hi0bits+0xc>

080048cc <__lo0bits>:
 80048cc:	6803      	ldr	r3, [r0, #0]
 80048ce:	4602      	mov	r2, r0
 80048d0:	f013 0007 	ands.w	r0, r3, #7
 80048d4:	d00b      	beq.n	80048ee <__lo0bits+0x22>
 80048d6:	07d9      	lsls	r1, r3, #31
 80048d8:	d421      	bmi.n	800491e <__lo0bits+0x52>
 80048da:	0798      	lsls	r0, r3, #30
 80048dc:	bf49      	itett	mi
 80048de:	085b      	lsrmi	r3, r3, #1
 80048e0:	089b      	lsrpl	r3, r3, #2
 80048e2:	2001      	movmi	r0, #1
 80048e4:	6013      	strmi	r3, [r2, #0]
 80048e6:	bf5c      	itt	pl
 80048e8:	2002      	movpl	r0, #2
 80048ea:	6013      	strpl	r3, [r2, #0]
 80048ec:	4770      	bx	lr
 80048ee:	b299      	uxth	r1, r3
 80048f0:	b909      	cbnz	r1, 80048f6 <__lo0bits+0x2a>
 80048f2:	2010      	movs	r0, #16
 80048f4:	0c1b      	lsrs	r3, r3, #16
 80048f6:	b2d9      	uxtb	r1, r3
 80048f8:	b909      	cbnz	r1, 80048fe <__lo0bits+0x32>
 80048fa:	3008      	adds	r0, #8
 80048fc:	0a1b      	lsrs	r3, r3, #8
 80048fe:	0719      	lsls	r1, r3, #28
 8004900:	bf04      	itt	eq
 8004902:	091b      	lsreq	r3, r3, #4
 8004904:	3004      	addeq	r0, #4
 8004906:	0799      	lsls	r1, r3, #30
 8004908:	bf04      	itt	eq
 800490a:	089b      	lsreq	r3, r3, #2
 800490c:	3002      	addeq	r0, #2
 800490e:	07d9      	lsls	r1, r3, #31
 8004910:	d403      	bmi.n	800491a <__lo0bits+0x4e>
 8004912:	085b      	lsrs	r3, r3, #1
 8004914:	f100 0001 	add.w	r0, r0, #1
 8004918:	d003      	beq.n	8004922 <__lo0bits+0x56>
 800491a:	6013      	str	r3, [r2, #0]
 800491c:	4770      	bx	lr
 800491e:	2000      	movs	r0, #0
 8004920:	4770      	bx	lr
 8004922:	2020      	movs	r0, #32
 8004924:	4770      	bx	lr
	...

08004928 <__i2b>:
 8004928:	b510      	push	{r4, lr}
 800492a:	460c      	mov	r4, r1
 800492c:	2101      	movs	r1, #1
 800492e:	f7ff febb 	bl	80046a8 <_Balloc>
 8004932:	4602      	mov	r2, r0
 8004934:	b928      	cbnz	r0, 8004942 <__i2b+0x1a>
 8004936:	f240 1145 	movw	r1, #325	; 0x145
 800493a:	4b04      	ldr	r3, [pc, #16]	; (800494c <__i2b+0x24>)
 800493c:	4804      	ldr	r0, [pc, #16]	; (8004950 <__i2b+0x28>)
 800493e:	f001 fe05 	bl	800654c <__assert_func>
 8004942:	2301      	movs	r3, #1
 8004944:	6144      	str	r4, [r0, #20]
 8004946:	6103      	str	r3, [r0, #16]
 8004948:	bd10      	pop	{r4, pc}
 800494a:	bf00      	nop
 800494c:	08006f7a 	.word	0x08006f7a
 8004950:	08006f8b 	.word	0x08006f8b

08004954 <__multiply>:
 8004954:	e92d 4ff0 	stmdb	sp!, {r4, r5, r6, r7, r8, r9, sl, fp, lr}
 8004958:	4691      	mov	r9, r2
 800495a:	690a      	ldr	r2, [r1, #16]
 800495c:	f8d9 3010 	ldr.w	r3, [r9, #16]
 8004960:	460c      	mov	r4, r1
 8004962:	429a      	cmp	r2, r3
 8004964:	bfbe      	ittt	lt
 8004966:	460b      	movlt	r3, r1
 8004968:	464c      	movlt	r4, r9
 800496a:	4699      	movlt	r9, r3
 800496c:	6927      	ldr	r7, [r4, #16]
 800496e:	f8d9 a010 	ldr.w	sl, [r9, #16]
 8004972:	68a3      	ldr	r3, [r4, #8]
 8004974:	6861      	ldr	r1, [r4, #4]
 8004976:	eb07 060a 	add.w	r6, r7, sl
 800497a:	42b3      	cmp	r3, r6
 800497c:	b085      	sub	sp, #20
 800497e:	bfb8      	it	lt
 8004980:	3101      	addlt	r1, #1
 8004982:	f7ff fe91 	bl	80046a8 <_Balloc>
 8004986:	b930      	cbnz	r0, 8004996 <__multiply+0x42>
 8004988:	4602      	mov	r2, r0
 800498a:	f44f 71b1 	mov.w	r1, #354	; 0x162
 800498e:	4b43      	ldr	r3, [pc, #268]	; (8004a9c <__multiply+0x148>)
 8004990:	4843      	ldr	r0, [pc, #268]	; (8004aa0 <__multiply+0x14c>)
 8004992:	f001 fddb 	bl	800654c <__assert_func>
 8004996:	f100 0514 	add.w	r5, r0, #20
 800499a:	462b      	mov	r3, r5
 800499c:	2200      	movs	r2, #0
 800499e:	eb05 0886 	add.w	r8, r5, r6, lsl #2
 80049a2:	4543      	cmp	r3, r8
 80049a4:	d321      	bcc.n	80049ea <__multiply+0x96>
 80049a6:	f104 0314 	add.w	r3, r4, #20
 80049aa:	eb03 0787 	add.w	r7, r3, r7, lsl #2
 80049ae:	f109 0314 	add.w	r3, r9, #20
 80049b2:	eb03 028a 	add.w	r2, r3, sl, lsl #2
 80049b6:	9202      	str	r2, [sp, #8]
 80049b8:	1b3a      	subs	r2, r7, r4
 80049ba:	3a15      	subs	r2, #21
 80049bc:	f022 0203 	bic.w	r2, r2, #3
 80049c0:	3204      	adds	r2, #4
 80049c2:	f104 0115 	add.w	r1, r4, #21
 80049c6:	428f      	cmp	r7, r1
 80049c8:	bf38      	it	cc
 80049ca:	2204      	movcc	r2, #4
 80049cc:	9201      	str	r2, [sp, #4]
 80049ce:	9a02      	ldr	r2, [sp, #8]
 80049d0:	9303      	str	r3, [sp, #12]
 80049d2:	429a      	cmp	r2, r3
 80049d4:	d80c      	bhi.n	80049f0 <__multiply+0x9c>
 80049d6:	2e00      	cmp	r6, #0
 80049d8:	dd03      	ble.n	80049e2 <__multiply+0x8e>
 80049da:	f858 3d04 	ldr.w	r3, [r8, #-4]!
 80049de:	2b00      	cmp	r3, #0
 80049e0:	d05a      	beq.n	8004a98 <__multiply+0x144>
 80049e2:	6106      	str	r6, [r0, #16]
 80049e4:	b005      	add	sp, #20
 80049e6:	e8bd 8ff0 	ldmia.w	sp!, {r4, r5, r6, r7, r8, r9, sl, fp, pc}
 80049ea:	f843 2b04 	str.w	r2, [r3], #4
 80049ee:	e7d8      	b.n	80049a2 <__multiply+0x4e>
 80049f0:	f8b3 a000 	ldrh.w	sl, [r3]
 80049f4:	f1ba 0f00 	cmp.w	sl, #0
 80049f8:	d023      	beq.n	8004a42 <__multiply+0xee>
 80049fa:	46a9      	mov	r9, r5
 80049fc:	f04f 0c00 	mov.w	ip, #0
 8004a00:	f104 0e14 	add.w	lr, r4, #20
 8004a04:	f85e 2b04 	ldr.w	r2, [lr], #4
 8004a08:	f8d9 1000 	ldr.w	r1, [r9]
 8004a0c:	fa1f fb82 	uxth.w	fp, r2
 8004a10:	b289      	uxth	r1, r1
 8004a12:	fb0a 110b 	mla	r1, sl, fp, r1
 8004a16:	4461      	add	r1, ip
 8004a18:	f8d9 c000 	ldr.w	ip, [r9]
 8004a1c:	0c12      	lsrs	r2, r2, #16
 8004a1e:	ea4f 4c1c 	mov.w	ip, ip, lsr #16
 8004a22:	fb0a c202 	mla	r2, sl, r2, ip
 8004a26:	eb02 4211 	add.w	r2, r2, r1, lsr #16
 8004a2a:	b289      	uxth	r1, r1
 8004a2c:	ea41 4102 	orr.w	r1, r1, r2, lsl #16
 8004a30:	4577      	cmp	r7, lr
 8004a32:	ea4f 4c12 	mov.w	ip, r2, lsr #16
 8004a36:	f849 1b04 	str.w	r1, [r9], #4
 8004a3a:	d8e3      	bhi.n	8004a04 <__multiply+0xb0>
 8004a3c:	9a01      	ldr	r2, [sp, #4]
 8004a3e:	f845 c002 	str.w	ip, [r5, r2]
 8004a42:	9a03      	ldr	r2, [sp, #12]
 8004a44:	3304      	adds	r3, #4
 8004a46:	f8b2 9002 	ldrh.w	r9, [r2, #2]
 8004a4a:	f1b9 0f00 	cmp.w	r9, #0
 8004a4e:	d021      	beq.n	8004a94 <__multiply+0x140>
 8004a50:	46ae      	mov	lr, r5
 8004a52:	f04f 0a00 	mov.w	sl, #0
 8004a56:	6829      	ldr	r1, [r5, #0]
 8004a58:	f104 0c14 	add.w	ip, r4, #20
 8004a5c:	f8bc b000 	ldrh.w	fp, [ip]
 8004a60:	f8be 2002 	ldrh.w	r2, [lr, #2]
 8004a64:	b289      	uxth	r1, r1
 8004a66:	fb09 220b 	mla	r2, r9, fp, r2
 8004a6a:	4452      	add	r2, sl
 8004a6c:	ea41 4102 	orr.w	r1, r1, r2, lsl #16
 8004a70:	f84e 1b04 	str.w	r1, [lr], #4
 8004a74:	f85c 1b04 	ldr.w	r1, [ip], #4
 8004a78:	ea4f 4a11 	mov.w	sl, r1, lsr #16
 8004a7c:	f8be 1000 	ldrh.w	r1, [lr]
 8004a80:	4567      	cmp	r7, ip
 8004a82:	fb09 110a 	mla	r1, r9, sl, r1
 8004a86:	eb01 4112 	add.w	r1, r1, r2, lsr #16
 8004a8a:	ea4f 4a11 	mov.w	sl, r1, lsr #16
 8004a8e:	d8e5      	bhi.n	8004a5c <__multiply+0x108>
 8004a90:	9a01      	ldr	r2, [sp, #4]
 8004a92:	50a9      	str	r1, [r5, r2]
 8004a94:	3504      	adds	r5, #4
 8004a96:	e79a      	b.n	80049ce <__multiply+0x7a>
 8004a98:	3e01      	subs	r6, #1
 8004a9a:	e79c      	b.n	80049d6 <__multiply+0x82>
 8004a9c:	08006f7a 	.word	0x08006f7a
 8004aa0:	08006f8b 	.word	0x08006f8b

08004aa4 <__pow5mult>:
 8004aa4:	e92d 43f8 	stmdb	sp!, {r3, r4, r5, r6, r7, r8, r9, lr}
 8004aa8:	4615      	mov	r5, r2
 8004aaa:	f012 0203 	ands.w	r2, r2, #3
 8004aae:	4606      	mov	r6, r0
 8004ab0:	460f      	mov	r7, r1
 8004ab2:	d007      	beq.n	8004ac4 <__pow5mult+0x20>
 8004ab4:	4c25      	ldr	r4, [pc, #148]	; (8004b4c <__pow5mult+0xa8>)
 8004ab6:	3a01      	subs	r2, #1
 8004ab8:	2300      	movs	r3, #0
 8004aba:	f854 2022 	ldr.w	r2, [r4, r2, lsl #2]
 8004abe:	f7ff fe55 	bl	800476c <__multadd>
 8004ac2:	4607      	mov	r7, r0
 8004ac4:	10ad      	asrs	r5, r5, #2
 8004ac6:	d03d      	beq.n	8004b44 <__pow5mult+0xa0>
 8004ac8:	69f4      	ldr	r4, [r6, #28]
 8004aca:	b97c      	cbnz	r4, 8004aec <__pow5mult+0x48>
 8004acc:	2010      	movs	r0, #16
 8004ace:	f7ff fd37 	bl	8004540 <malloc>
 8004ad2:	4602      	mov	r2, r0
 8004ad4:	61f0      	str	r0, [r6, #28]
 8004ad6:	b928      	cbnz	r0, 8004ae4 <__pow5mult+0x40>
 8004ad8:	f240 11b3 	movw	r1, #435	; 0x1b3
 8004adc:	4b1c      	ldr	r3, [pc, #112]	; (8004b50 <__pow5mult+0xac>)
 8004ade:	481d      	ldr	r0, [pc, #116]	; (8004b54 <__pow5mult+0xb0>)
 8004ae0:	f001 fd34 	bl	800654c <__assert_func>
 8004ae4:	e9c0 4401 	strd	r4, r4, [r0, #4]
 8004ae8:	6004      	str	r4, [r0, #0]
 8004aea:	60c4      	str	r4, [r0, #12]
 8004aec:	f8d6 801c 	ldr.w	r8, [r6, #28]
 8004af0:	f8d8 4008 	ldr.w	r4, [r8, #8]
 8004af4:	b94c      	cbnz	r4, 8004b0a <__pow5mult+0x66>
 8004af6:	f240 2171 	movw	r1, #625	; 0x271
 8004afa:	4630      	mov	r0, r6
 8004afc:	f7ff ff14 	bl	8004928 <__i2b>
 8004b00:	2300      	movs	r3, #0
 8004b02:	4604      	mov	r4, r0
 8004b04:	f8c8 0008 	str.w	r0, [r8, #8]
 8004b08:	6003      	str	r3, [r0, #0]
 8004b0a:	f04f 0900 	mov.w	r9, #0
 8004b0e:	07eb      	lsls	r3, r5, #31
 8004b10:	d50a      	bpl.n	8004b28 <__pow5mult+0x84>
 8004b12:	4639      	mov	r1, r7
 8004b14:	4622      	mov	r2, r4
 8004b16:	4630      	mov	r0, r6
 8004b18:	f7ff ff1c 	bl	8004954 <__multiply>
 8004b1c:	4680      	mov	r8, r0
 8004b1e:	4639      	mov	r1, r7
 8004b20:	4630      	mov	r0, r6
 8004b22:	f7ff fe01 	bl	8004728 <_Bfree>
 8004b26:	4647      	mov	r7, r8
 8004b28:	106d      	asrs	r5, r5, #1
 8004b2a:	d00b      	beq.n	8004b44 <__pow5mult+0xa0>
 8004b2c:	6820      	ldr	r0, [r4, #0]
 8004b2e:	b938      	cbnz	r0, 8004b40 <__pow5mult+0x9c>
 8004b30:	4622      	mov	r2, r4
 8004b32:	4621      	mov	r1, r4
 8004b34:	4630      	mov	r0, r6
 8004b36:	f7ff ff0d 	bl	8004954 <__multiply>
 8004b3a:	6020      	str	r0, [r4, #0]
 8004b3c:	f8c0 9000 	str.w	r9, [r0]
 8004b40:	4604      	mov	r4, r0
 8004b42:	e7e4      	b.n	8004b0e <__pow5mult+0x6a>
 8004b44:	4638      	mov	r0, r7
 8004b46:	e8bd 83f8 	ldmia.w	sp!, {r3, r4, r5, r6, r7, r8, r9, pc}
 8004b4a:	bf00      	nop
 8004b4c:	080070d8 	.word	0x080070d8
 8004b50:	08006f0b 	.word	0x08006f0b
 8004b54:	08006f8b 	.word	0x08006f8b

08004b58 <__lshift>:
 8004b58:	e92d 47f0 	stmdb	sp!, {r4, r5, r6, r7, r8, r9, sl, lr}
 8004b5c:	460c      	mov	r4, r1
 8004b5e:	4607      	mov	r7, r0
 8004b60:	4691      	mov	r9, r2
 8004b62:	6923      	ldr	r3, [r4, #16]
 8004b64:	6849      	ldr	r1, [r1, #4]
 8004b66:	eb03 1862 	add.w	r8, r3, r2, asr #5
 8004b6a:	68a3      	ldr	r3, [r4, #8]
 8004b6c:	ea4f 1a62 	mov.w	sl, r2, asr #5
 8004b70:	f108 0601 	add.w	r6, r8, #1
 8004b74:	42b3      	cmp	r3, r6
 8004b76:	db0b      	blt.n	8004b90 <__lshift+0x38>
 8004b78:	4638      	mov	r0, r7
 8004b7a:	f7ff fd95 	bl	80046a8 <_Balloc>
 8004b7e:	4605      	mov	r5, r0
 8004b80:	b948      	cbnz	r0, 8004b96 <__lshift+0x3e>
 8004b82:	4602      	mov	r2, r0
 8004b84:	f44f 71ef 	mov.w	r1, #478	; 0x1de
 8004b88:	4b27      	ldr	r3, [pc, #156]	; (8004c28 <__lshift+0xd0>)
 8004b8a:	4828      	ldr	r0, [pc, #160]	; (8004c2c <__lshift+0xd4>)
 8004b8c:	f001 fcde 	bl	800654c <__assert_func>
 8004b90:	3101      	adds	r1, #1
 8004b92:	005b      	lsls	r3, r3, #1
 8004b94:	e7ee      	b.n	8004b74 <__lshift+0x1c>
 8004b96:	2300      	movs	r3, #0
 8004b98:	f100 0114 	add.w	r1, r0, #20
 8004b9c:	f100 0210 	add.w	r2, r0, #16
 8004ba0:	4618      	mov	r0, r3
 8004ba2:	4553      	cmp	r3, sl
 8004ba4:	db33      	blt.n	8004c0e <__lshift+0xb6>
 8004ba6:	6920      	ldr	r0, [r4, #16]
 8004ba8:	ea2a 7aea 	bic.w	sl, sl, sl, asr #31
 8004bac:	f104 0314 	add.w	r3, r4, #20
 8004bb0:	f019 091f 	ands.w	r9, r9, #31
 8004bb4:	eb01 018a 	add.w	r1, r1, sl, lsl #2
 8004bb8:	eb03 0c80 	add.w	ip, r3, r0, lsl #2
 8004bbc:	d02b      	beq.n	8004c16 <__lshift+0xbe>
 8004bbe:	468a      	mov	sl, r1
 8004bc0:	2200      	movs	r2, #0
 8004bc2:	f1c9 0e20 	rsb	lr, r9, #32
 8004bc6:	6818      	ldr	r0, [r3, #0]
 8004bc8:	fa00 f009 	lsl.w	r0, r0, r9
 8004bcc:	4310      	orrs	r0, r2
 8004bce:	f84a 0b04 	str.w	r0, [sl], #4
 8004bd2:	f853 2b04 	ldr.w	r2, [r3], #4
 8004bd6:	459c      	cmp	ip, r3
 8004bd8:	fa22 f20e 	lsr.w	r2, r2, lr
 8004bdc:	d8f3      	bhi.n	8004bc6 <__lshift+0x6e>
 8004bde:	ebac 0304 	sub.w	r3, ip, r4
 8004be2:	3b15      	subs	r3, #21
 8004be4:	f023 0303 	bic.w	r3, r3, #3
 8004be8:	3304      	adds	r3, #4
 8004bea:	f104 0015 	add.w	r0, r4, #21
 8004bee:	4584      	cmp	ip, r0
 8004bf0:	bf38      	it	cc
 8004bf2:	2304      	movcc	r3, #4
 8004bf4:	50ca      	str	r2, [r1, r3]
 8004bf6:	b10a      	cbz	r2, 8004bfc <__lshift+0xa4>
 8004bf8:	f108 0602 	add.w	r6, r8, #2
 8004bfc:	3e01      	subs	r6, #1
 8004bfe:	4638      	mov	r0, r7
 8004c00:	4621      	mov	r1, r4
 8004c02:	612e      	str	r6, [r5, #16]
 8004c04:	f7ff fd90 	bl	8004728 <_Bfree>
 8004c08:	4628      	mov	r0, r5
 8004c0a:	e8bd 87f0 	ldmia.w	sp!, {r4, r5, r6, r7, r8, r9, sl, pc}
 8004c0e:	f842 0f04 	str.w	r0, [r2, #4]!
 8004c12:	3301      	adds	r3, #1
 8004c14:	e7c5      	b.n	8004ba2 <__lshift+0x4a>
 8004c16:	3904      	subs	r1, #4
 8004c18:	f853 2b04 	ldr.w	r2, [r3], #4
 8004c1c:	459c      	cmp	ip, r3
 8004c1e:	f841 2f04 	str.w	r2, [r1, #4]!
 8004c22:	d8f9      	bhi.n	8004c18 <__lshift+0xc0>
 8004c24:	e7ea      	b.n	8004bfc <__lshift+0xa4>
 8004c26:	bf00      	nop
 8004c28:	08006f7a 	.word	0x08006f7a
 8004c2c:	08006f8b 	.word	0x08006f8b

08004c30 <__mcmp>:
 8004c30:	4603      	mov	r3, r0
 8004c32:	690a      	ldr	r2, [r1, #16]
 8004c34:	6900      	ldr	r0, [r0, #16]
 8004c36:	b530      	push	{r4, r5, lr}
 8004c38:	1a80      	subs	r0, r0, r2
 8004c3a:	d10d      	bne.n	8004c58 <__mcmp+0x28>
 8004c3c:	3314      	adds	r3, #20
 8004c3e:	3114      	adds	r1, #20
 8004c40:	eb03 0482 	add.w	r4, r3, r2, lsl #2
 8004c44:	eb01 0182 	add.w	r1, r1, r2, lsl #2
 8004c48:	f854 5d04 	ldr.w	r5, [r4, #-4]!
 8004c4c:	f851 2d04 	ldr.w	r2, [r1, #-4]!
 8004c50:	4295      	cmp	r5, r2
 8004c52:	d002      	beq.n	8004c5a <__mcmp+0x2a>
 8004c54:	d304      	bcc.n	8004c60 <__mcmp+0x30>
 8004c56:	2001      	movs	r0, #1
 8004c58:	bd30      	pop	{r4, r5, pc}
 8004c5a:	42a3      	cmp	r3, r4
 8004c5c:	d3f4      	bcc.n	8004c48 <__mcmp+0x18>
 8004c5e:	e7fb      	b.n	8004c58 <__mcmp+0x28>
 8004c60:	f04f 30ff 	mov.w	r0, #4294967295
 8004c64:	e7f8      	b.n	8004c58 <__mcmp+0x28>
	...

08004c68 <__mdiff>:
 8004c68:	e92d 4ff8 	stmdb	sp!, {r3, r4, r5, r6, r7, r8, r9, sl, fp, lr}
 8004c6c:	460d      	mov	r5, r1
 8004c6e:	4607      	mov	r7, r0
 8004c70:	4611      	mov	r1, r2
 8004c72:	4628      	mov	r0, r5
 8004c74:	4614      	mov	r4, r2
 8004c76:	f7ff ffdb 	bl	8004c30 <__mcmp>
 8004c7a:	1e06      	subs	r6, r0, #0
 8004c7c:	d111      	bne.n	8004ca2 <__mdiff+0x3a>
 8004c7e:	4631      	mov	r1, r6
 8004c80:	4638      	mov	r0, r7
 8004c82:	f7ff fd11 	bl	80046a8 <_Balloc>
 8004c86:	4602      	mov	r2, r0
 8004c88:	b928      	cbnz	r0, 8004c96 <__mdiff+0x2e>
 8004c8a:	f240 2137 	movw	r1, #567	; 0x237
 8004c8e:	4b3a      	ldr	r3, [pc, #232]	; (8004d78 <__mdiff+0x110>)
 8004c90:	483a      	ldr	r0, [pc, #232]	; (8004d7c <__mdiff+0x114>)
 8004c92:	f001 fc5b 	bl	800654c <__assert_func>
 8004c96:	2301      	movs	r3, #1
 8004c98:	e9c0 3604 	strd	r3, r6, [r0, #16]
 8004c9c:	4610      	mov	r0, r2
 8004c9e:	e8bd 8ff8 	ldmia.w	sp!, {r3, r4, r5, r6, r7, r8, r9, sl, fp, pc}
 8004ca2:	bfa4      	itt	ge
 8004ca4:	4623      	movge	r3, r4
 8004ca6:	462c      	movge	r4, r5
 8004ca8:	4638      	mov	r0, r7
 8004caa:	6861      	ldr	r1, [r4, #4]
 8004cac:	bfa6      	itte	ge
 8004cae:	461d      	movge	r5, r3
 8004cb0:	2600      	movge	r6, #0
 8004cb2:	2601      	movlt	r6, #1
 8004cb4:	f7ff fcf8 	bl	80046a8 <_Balloc>
 8004cb8:	4602      	mov	r2, r0
 8004cba:	b918      	cbnz	r0, 8004cc4 <__mdiff+0x5c>
 8004cbc:	f240 2145 	movw	r1, #581	; 0x245
 8004cc0:	4b2d      	ldr	r3, [pc, #180]	; (8004d78 <__mdiff+0x110>)
 8004cc2:	e7e5      	b.n	8004c90 <__mdiff+0x28>
 8004cc4:	f102 0814 	add.w	r8, r2, #20
 8004cc8:	46c2      	mov	sl, r8
 8004cca:	f04f 0c00 	mov.w	ip, #0
 8004cce:	6927      	ldr	r7, [r4, #16]
 8004cd0:	60c6      	str	r6, [r0, #12]
 8004cd2:	692e      	ldr	r6, [r5, #16]
 8004cd4:	f104 0014 	add.w	r0, r4, #20
 8004cd8:	f105 0914 	add.w	r9, r5, #20
 8004cdc:	eb00 0e87 	add.w	lr, r0, r7, lsl #2
 8004ce0:	eb09 0686 	add.w	r6, r9, r6, lsl #2
 8004ce4:	3410      	adds	r4, #16
 8004ce6:	f854 bf04 	ldr.w	fp, [r4, #4]!
 8004cea:	f859 3b04 	ldr.w	r3, [r9], #4
 8004cee:	fa1f f18b 	uxth.w	r1, fp
 8004cf2:	4461      	add	r1, ip
 8004cf4:	fa1f fc83 	uxth.w	ip, r3
 8004cf8:	0c1b      	lsrs	r3, r3, #16
 8004cfa:	eba1 010c 	sub.w	r1, r1, ip
 8004cfe:	ebc3 431b 	rsb	r3, r3, fp, lsr #16
 8004d02:	eb03 4321 	add.w	r3, r3, r1, asr #16
 8004d06:	b289      	uxth	r1, r1
 8004d08:	ea41 4103 	orr.w	r1, r1, r3, lsl #16
 8004d0c:	454e      	cmp	r6, r9
 8004d0e:	ea4f 4c23 	mov.w	ip, r3, asr #16
 8004d12:	f84a 1b04 	str.w	r1, [sl], #4
 8004d16:	d8e6      	bhi.n	8004ce6 <__mdiff+0x7e>
 8004d18:	1b73      	subs	r3, r6, r5
 8004d1a:	3b15      	subs	r3, #21
 8004d1c:	f023 0303 	bic.w	r3, r3, #3
 8004d20:	3515      	adds	r5, #21
 8004d22:	3304      	adds	r3, #4
 8004d24:	42ae      	cmp	r6, r5
 8004d26:	bf38      	it	cc
 8004d28:	2304      	movcc	r3, #4
 8004d2a:	4418      	add	r0, r3
 8004d2c:	4443      	add	r3, r8
 8004d2e:	461e      	mov	r6, r3
 8004d30:	4605      	mov	r5, r0
 8004d32:	4575      	cmp	r5, lr
 8004d34:	d30e      	bcc.n	8004d54 <__mdiff+0xec>
 8004d36:	f10e 0103 	add.w	r1, lr, #3
 8004d3a:	1a09      	subs	r1, r1, r0
 8004d3c:	f021 0103 	bic.w	r1, r1, #3
 8004d40:	3803      	subs	r0, #3
 8004d42:	4586      	cmp	lr, r0
 8004d44:	bf38      	it	cc
 8004d46:	2100      	movcc	r1, #0
 8004d48:	440b      	add	r3, r1
 8004d4a:	f853 1d04 	ldr.w	r1, [r3, #-4]!
 8004d4e:	b189      	cbz	r1, 8004d74 <__mdiff+0x10c>
 8004d50:	6117      	str	r7, [r2, #16]
 8004d52:	e7a3      	b.n	8004c9c <__mdiff+0x34>
 8004d54:	f855 8b04 	ldr.w	r8, [r5], #4
 8004d58:	fa1f f188 	uxth.w	r1, r8
 8004d5c:	4461      	add	r1, ip
 8004d5e:	140c      	asrs	r4, r1, #16
 8004d60:	eb04 4418 	add.w	r4, r4, r8, lsr #16
 8004d64:	b289      	uxth	r1, r1
 8004d66:	ea41 4104 	orr.w	r1, r1, r4, lsl #16
 8004d6a:	ea4f 4c24 	mov.w	ip, r4, asr #16
 8004d6e:	f846 1b04 	str.w	r1, [r6], #4
 8004d72:	e7de      	b.n	8004d32 <__mdiff+0xca>
 8004d74:	3f01      	subs	r7, #1
 8004d76:	e7e8      	b.n	8004d4a <__mdiff+0xe2>
 8004d78:	08006f7a 	.word	0x08006f7a
 8004d7c:	08006f8b 	.word	0x08006f8b

08004d80 <__ulp>:
 8004d80:	4b0e      	ldr	r3, [pc, #56]	; (8004dbc <__ulp+0x3c>)
 8004d82:	400b      	ands	r3, r1
 8004d84:	f1a3 7350 	sub.w	r3, r3, #54525952	; 0x3400000
 8004d88:	2b00      	cmp	r3, #0
 8004d8a:	dc08      	bgt.n	8004d9e <__ulp+0x1e>
 8004d8c:	425b      	negs	r3, r3
 8004d8e:	f1b3 7fa0 	cmp.w	r3, #20971520	; 0x1400000
 8004d92:	ea4f 5223 	mov.w	r2, r3, asr #20
 8004d96:	da04      	bge.n	8004da2 <__ulp+0x22>
 8004d98:	f44f 2300 	mov.w	r3, #524288	; 0x80000
 8004d9c:	4113      	asrs	r3, r2
 8004d9e:	2200      	movs	r2, #0
 8004da0:	e008      	b.n	8004db4 <__ulp+0x34>
 8004da2:	f1a2 0314 	sub.w	r3, r2, #20
 8004da6:	2b1e      	cmp	r3, #30
 8004da8:	bfd6      	itet	le
 8004daa:	f04f 4200 	movle.w	r2, #2147483648	; 0x80000000
 8004dae:	2201      	movgt	r2, #1
 8004db0:	40da      	lsrle	r2, r3
 8004db2:	2300      	movs	r3, #0
 8004db4:	4619      	mov	r1, r3
 8004db6:	4610      	mov	r0, r2
 8004db8:	4770      	bx	lr
 8004dba:	bf00      	nop
 8004dbc:	7ff00000 	.word	0x7ff00000

08004dc0 <__b2d>:
 8004dc0:	b5f8      	push	{r3, r4, r5, r6, r7, lr}
 8004dc2:	6905      	ldr	r5, [r0, #16]
 8004dc4:	f100 0714 	add.w	r7, r0, #20
 8004dc8:	eb07 0585 	add.w	r5, r7, r5, lsl #2
 8004dcc:	f855 4c04 	ldr.w	r4, [r5, #-4]
 8004dd0:	1f2e      	subs	r6, r5, #4
 8004dd2:	4620      	mov	r0, r4
 8004dd4:	f7ff fd5a 	bl	800488c <__hi0bits>
 8004dd8:	f1c0 0220 	rsb	r2, r0, #32
 8004ddc:	280a      	cmp	r0, #10
 8004dde:	4603      	mov	r3, r0
 8004de0:	f8df c068 	ldr.w	ip, [pc, #104]	; 8004e4c <__b2d+0x8c>
 8004de4:	600a      	str	r2, [r1, #0]
 8004de6:	dc12      	bgt.n	8004e0e <__b2d+0x4e>
 8004de8:	f1c0 0e0b 	rsb	lr, r0, #11
 8004dec:	fa24 f20e 	lsr.w	r2, r4, lr
 8004df0:	42b7      	cmp	r7, r6
 8004df2:	ea42 010c 	orr.w	r1, r2, ip
 8004df6:	bf2c      	ite	cs
 8004df8:	2200      	movcs	r2, #0
 8004dfa:	f855 2c08 	ldrcc.w	r2, [r5, #-8]
 8004dfe:	3315      	adds	r3, #21
 8004e00:	fa04 f303 	lsl.w	r3, r4, r3
 8004e04:	fa22 f20e 	lsr.w	r2, r2, lr
 8004e08:	431a      	orrs	r2, r3
 8004e0a:	4610      	mov	r0, r2
 8004e0c:	bdf8      	pop	{r3, r4, r5, r6, r7, pc}
 8004e0e:	42b7      	cmp	r7, r6
 8004e10:	bf2e      	itee	cs
 8004e12:	2200      	movcs	r2, #0
 8004e14:	f855 2c08 	ldrcc.w	r2, [r5, #-8]
 8004e18:	f1a5 0608 	subcc.w	r6, r5, #8
 8004e1c:	3b0b      	subs	r3, #11
 8004e1e:	d012      	beq.n	8004e46 <__b2d+0x86>
 8004e20:	f1c3 0520 	rsb	r5, r3, #32
 8004e24:	fa22 f105 	lsr.w	r1, r2, r5
 8004e28:	409c      	lsls	r4, r3
 8004e2a:	430c      	orrs	r4, r1
 8004e2c:	42be      	cmp	r6, r7
 8004e2e:	f044 517f 	orr.w	r1, r4, #1069547520	; 0x3fc00000
 8004e32:	bf94      	ite	ls
 8004e34:	2400      	movls	r4, #0
 8004e36:	f856 4c04 	ldrhi.w	r4, [r6, #-4]
 8004e3a:	409a      	lsls	r2, r3
 8004e3c:	40ec      	lsrs	r4, r5
 8004e3e:	f441 1140 	orr.w	r1, r1, #3145728	; 0x300000
 8004e42:	4322      	orrs	r2, r4
 8004e44:	e7e1      	b.n	8004e0a <__b2d+0x4a>
 8004e46:	ea44 010c 	orr.w	r1, r4, ip
 8004e4a:	e7de      	b.n	8004e0a <__b2d+0x4a>
 8004e4c:	3ff00000 	.word	0x3ff00000

08004e50 <__d2b>:
 8004e50:	b5f7      	push	{r0, r1, r2, r4, r5, r6, r7, lr}
 8004e52:	2101      	movs	r1, #1
 8004e54:	4617      	mov	r7, r2
 8004e56:	461c      	mov	r4, r3
 8004e58:	9e08      	ldr	r6, [sp, #32]
 8004e5a:	f7ff fc25 	bl	80046a8 <_Balloc>
 8004e5e:	4605      	mov	r5, r0
 8004e60:	b930      	cbnz	r0, 8004e70 <__d2b+0x20>
 8004e62:	4602      	mov	r2, r0
 8004e64:	f240 310f 	movw	r1, #783	; 0x30f
 8004e68:	4b22      	ldr	r3, [pc, #136]	; (8004ef4 <__d2b+0xa4>)
 8004e6a:	4823      	ldr	r0, [pc, #140]	; (8004ef8 <__d2b+0xa8>)
 8004e6c:	f001 fb6e 	bl	800654c <__assert_func>
 8004e70:	f3c4 0313 	ubfx	r3, r4, #0, #20
 8004e74:	f3c4 540a 	ubfx	r4, r4, #20, #11
 8004e78:	bb24      	cbnz	r4, 8004ec4 <__d2b+0x74>
 8004e7a:	2f00      	cmp	r7, #0
 8004e7c:	9301      	str	r3, [sp, #4]
 8004e7e:	d026      	beq.n	8004ece <__d2b+0x7e>
 8004e80:	4668      	mov	r0, sp
 8004e82:	9700      	str	r7, [sp, #0]
 8004e84:	f7ff fd22 	bl	80048cc <__lo0bits>
 8004e88:	e9dd 1200 	ldrd	r1, r2, [sp]
 8004e8c:	b1e8      	cbz	r0, 8004eca <__d2b+0x7a>
 8004e8e:	f1c0 0320 	rsb	r3, r0, #32
 8004e92:	fa02 f303 	lsl.w	r3, r2, r3
 8004e96:	430b      	orrs	r3, r1
 8004e98:	40c2      	lsrs	r2, r0
 8004e9a:	616b      	str	r3, [r5, #20]
 8004e9c:	9201      	str	r2, [sp, #4]
 8004e9e:	9b01      	ldr	r3, [sp, #4]
 8004ea0:	2b00      	cmp	r3, #0
 8004ea2:	bf14      	ite	ne
 8004ea4:	2102      	movne	r1, #2
 8004ea6:	2101      	moveq	r1, #1
 8004ea8:	61ab      	str	r3, [r5, #24]
 8004eaa:	6129      	str	r1, [r5, #16]
 8004eac:	b1bc      	cbz	r4, 8004ede <__d2b+0x8e>
 8004eae:	f2a4 4433 	subw	r4, r4, #1075	; 0x433
 8004eb2:	4404      	add	r4, r0
 8004eb4:	6034      	str	r4, [r6, #0]
 8004eb6:	f1c0 0035 	rsb	r0, r0, #53	; 0x35
 8004eba:	9b09      	ldr	r3, [sp, #36]	; 0x24
 8004ebc:	6018      	str	r0, [r3, #0]
 8004ebe:	4628      	mov	r0, r5
 8004ec0:	b003      	add	sp, #12
 8004ec2:	bdf0      	pop	{r4, r5, r6, r7, pc}
 8004ec4:	f443 1380 	orr.w	r3, r3, #1048576	; 0x100000
 8004ec8:	e7d7      	b.n	8004e7a <__d2b+0x2a>
 8004eca:	6169      	str	r1, [r5, #20]
 8004ecc:	e7e7      	b.n	8004e9e <__d2b+0x4e>
 8004ece:	a801      	add	r0, sp, #4
 8004ed0:	f7ff fcfc 	bl	80048cc <__lo0bits>
 8004ed4:	9b01      	ldr	r3, [sp, #4]
 8004ed6:	2101      	movs	r1, #1
 8004ed8:	616b      	str	r3, [r5, #20]
 8004eda:	3020      	adds	r0, #32
 8004edc:	e7e5      	b.n	8004eaa <__d2b+0x5a>
 8004ede:	f2a0 4032 	subw	r0, r0, #1074	; 0x432
 8004ee2:	eb05 0381 	add.w	r3, r5, r1, lsl #2
 8004ee6:	6030      	str	r0, [r6, #0]
 8004ee8:	6918      	ldr	r0, [r3, #16]
 8004eea:	f7ff fccf 	bl	800488c <__hi0bits>
 8004eee:	ebc0 1041 	rsb	r0, r0, r1, lsl #5
 8004ef2:	e7e2      	b.n	8004eba <__d2b+0x6a>
 8004ef4:	08006f7a 	.word	0x08006f7a
 8004ef8:	08006f8b 	.word	0x08006f8b

08004efc <__ratio>:
 8004efc:	e92d 4ff7 	stmdb	sp!, {r0, r1, r2, r4, r5, r6, r7, r8, r9, sl, fp, lr}
 8004f00:	4688      	mov	r8, r1
 8004f02:	4669      	mov	r1, sp
 8004f04:	4681      	mov	r9, r0
 8004f06:	f7ff ff5b 	bl	8004dc0 <__b2d>
 8004f0a:	460f      	mov	r7, r1
 8004f0c:	4604      	mov	r4, r0
 8004f0e:	460d      	mov	r5, r1
 8004f10:	4640      	mov	r0, r8
 8004f12:	a901      	add	r1, sp, #4
 8004f14:	f7ff ff54 	bl	8004dc0 <__b2d>
 8004f18:	f8d9 3010 	ldr.w	r3, [r9, #16]
 8004f1c:	f8d8 2010 	ldr.w	r2, [r8, #16]
 8004f20:	468b      	mov	fp, r1
 8004f22:	eba3 0c02 	sub.w	ip, r3, r2
 8004f26:	e9dd 3200 	ldrd	r3, r2, [sp]
 8004f2a:	1a9b      	subs	r3, r3, r2
 8004f2c:	eb03 134c 	add.w	r3, r3, ip, lsl #5
 8004f30:	2b00      	cmp	r3, #0
 8004f32:	bfd5      	itete	le
 8004f34:	460a      	movle	r2, r1
 8004f36:	462a      	movgt	r2, r5
 8004f38:	ebc3 3303 	rsble	r3, r3, r3, lsl #12
 8004f3c:	eb02 5703 	addgt.w	r7, r2, r3, lsl #20
 8004f40:	bfd8      	it	le
 8004f42:	eb02 5b03 	addle.w	fp, r2, r3, lsl #20
 8004f46:	465b      	mov	r3, fp
 8004f48:	4602      	mov	r2, r0
 8004f4a:	4639      	mov	r1, r7
 8004f4c:	4620      	mov	r0, r4
 8004f4e:	f7fb fbed 	bl	800072c <__aeabi_ddiv>
 8004f52:	b003      	add	sp, #12
 8004f54:	e8bd 8ff0 	ldmia.w	sp!, {r4, r5, r6, r7, r8, r9, sl, fp, pc}

08004f58 <__copybits>:
 8004f58:	3901      	subs	r1, #1
 8004f5a:	b570      	push	{r4, r5, r6, lr}
 8004f5c:	1149      	asrs	r1, r1, #5
 8004f5e:	6914      	ldr	r4, [r2, #16]
 8004f60:	3101      	adds	r1, #1
 8004f62:	f102 0314 	add.w	r3, r2, #20
 8004f66:	eb00 0181 	add.w	r1, r0, r1, lsl #2
 8004f6a:	eb03 0484 	add.w	r4, r3, r4, lsl #2
 8004f6e:	1f05      	subs	r5, r0, #4
 8004f70:	42a3      	cmp	r3, r4
 8004f72:	d30c      	bcc.n	8004f8e <__copybits+0x36>
 8004f74:	1aa3      	subs	r3, r4, r2
 8004f76:	3b11      	subs	r3, #17
 8004f78:	f023 0303 	bic.w	r3, r3, #3
 8004f7c:	3211      	adds	r2, #17
 8004f7e:	42a2      	cmp	r2, r4
 8004f80:	bf88      	it	hi
 8004f82:	2300      	movhi	r3, #0
 8004f84:	4418      	add	r0, r3
 8004f86:	2300      	movs	r3, #0
 8004f88:	4288      	cmp	r0, r1
 8004f8a:	d305      	bcc.n	8004f98 <__copybits+0x40>
 8004f8c:	bd70      	pop	{r4, r5, r6, pc}
 8004f8e:	f853 6b04 	ldr.w	r6, [r3], #4
 8004f92:	f845 6f04 	str.w	r6, [r5, #4]!
 8004f96:	e7eb      	b.n	8004f70 <__copybits+0x18>
 8004f98:	f840 3b04 	str.w	r3, [r0], #4
 8004f9c:	e7f4      	b.n	8004f88 <__copybits+0x30>

08004f9e <__any_on>:
 8004f9e:	f100 0214 	add.w	r2, r0, #20
 8004fa2:	6900      	ldr	r0, [r0, #16]
 8004fa4:	114b      	asrs	r3, r1, #5
 8004fa6:	4298      	cmp	r0, r3
 8004fa8:	b510      	push	{r4, lr}
 8004faa:	db11      	blt.n	8004fd0 <__any_on+0x32>
 8004fac:	dd0a      	ble.n	8004fc4 <__any_on+0x26>
 8004fae:	f011 011f 	ands.w	r1, r1, #31
 8004fb2:	d007      	beq.n	8004fc4 <__any_on+0x26>
 8004fb4:	f852 4023 	ldr.w	r4, [r2, r3, lsl #2]
 8004fb8:	fa24 f001 	lsr.w	r0, r4, r1
 8004fbc:	fa00 f101 	lsl.w	r1, r0, r1
 8004fc0:	428c      	cmp	r4, r1
 8004fc2:	d10b      	bne.n	8004fdc <__any_on+0x3e>
 8004fc4:	eb02 0383 	add.w	r3, r2, r3, lsl #2
 8004fc8:	4293      	cmp	r3, r2
 8004fca:	d803      	bhi.n	8004fd4 <__any_on+0x36>
 8004fcc:	2000      	movs	r0, #0
 8004fce:	bd10      	pop	{r4, pc}
 8004fd0:	4603      	mov	r3, r0
 8004fd2:	e7f7      	b.n	8004fc4 <__any_on+0x26>
 8004fd4:	f853 1d04 	ldr.w	r1, [r3, #-4]!
 8004fd8:	2900      	cmp	r1, #0
 8004fda:	d0f5      	beq.n	8004fc8 <__any_on+0x2a>
 8004fdc:	2001      	movs	r0, #1
 8004fde:	e7f6      	b.n	8004fce <__any_on+0x30>

08004fe0 <sulp>:
 8004fe0:	e92d 41f0 	stmdb	sp!, {r4, r5, r6, r7, r8, lr}
 8004fe4:	460f      	mov	r7, r1
 8004fe6:	4690      	mov	r8, r2
 8004fe8:	f7ff feca 	bl	8004d80 <__ulp>
 8004fec:	4604      	mov	r4, r0
 8004fee:	460d      	mov	r5, r1
 8004ff0:	f1b8 0f00 	cmp.w	r8, #0
 8004ff4:	d011      	beq.n	800501a <sulp+0x3a>
 8004ff6:	f3c7 530a 	ubfx	r3, r7, #20, #11
 8004ffa:	f1c3 036b 	rsb	r3, r3, #107	; 0x6b
 8004ffe:	2b00      	cmp	r3, #0
 8005000:	dd0b      	ble.n	800501a <sulp+0x3a>
 8005002:	2400      	movs	r4, #0
 8005004:	051b      	lsls	r3, r3, #20
 8005006:	f103 557f 	add.w	r5, r3, #1069547520	; 0x3fc00000
 800500a:	f505 1540 	add.w	r5, r5, #3145728	; 0x300000
 800500e:	4622      	mov	r2, r4
 8005010:	462b      	mov	r3, r5
 8005012:	f7fb fa61 	bl	80004d8 <__aeabi_dmul>
 8005016:	4604      	mov	r4, r0
 8005018:	460d      	mov	r5, r1
 800501a:	4620      	mov	r0, r4
 800501c:	4629      	mov	r1, r5
 800501e:	e8bd 81f0 	ldmia.w	sp!, {r4, r5, r6, r7, r8, pc}
 8005022:	0000      	movs	r0, r0
 8005024:	0000      	movs	r0, r0
	...

08005028 <_strtod_l>:
 8005028:	e92d 4ff0 	stmdb	sp!, {r4, r5, r6, r7, r8, r9, sl, fp, lr}
 800502c:	b09f      	sub	sp, #124	; 0x7c
 800502e:	9217      	str	r2, [sp, #92]	; 0x5c
 8005030:	2200      	movs	r2, #0
 8005032:	4604      	mov	r4, r0
 8005034:	921a      	str	r2, [sp, #104]	; 0x68
 8005036:	460d      	mov	r5, r1
 8005038:	f04f 0800 	mov.w	r8, #0
 800503c:	f04f 0900 	mov.w	r9, #0
 8005040:	460a      	mov	r2, r1
 8005042:	9219      	str	r2, [sp, #100]	; 0x64
 8005044:	7811      	ldrb	r1, [r2, #0]
 8005046:	292b      	cmp	r1, #43	; 0x2b
 8005048:	d04a      	beq.n	80050e0 <_strtod_l+0xb8>
 800504a:	d838      	bhi.n	80050be <_strtod_l+0x96>
 800504c:	290d      	cmp	r1, #13
 800504e:	d832      	bhi.n	80050b6 <_strtod_l+0x8e>
 8005050:	2908      	cmp	r1, #8
 8005052:	d832      	bhi.n	80050ba <_strtod_l+0x92>
 8005054:	2900      	cmp	r1, #0
 8005056:	d03b      	beq.n	80050d0 <_strtod_l+0xa8>
 8005058:	2200      	movs	r2, #0
 800505a:	920e      	str	r2, [sp, #56]	; 0x38
 800505c:	9e19      	ldr	r6, [sp, #100]	; 0x64
 800505e:	7832      	ldrb	r2, [r6, #0]
 8005060:	2a30      	cmp	r2, #48	; 0x30
 8005062:	f040 80b2 	bne.w	80051ca <_strtod_l+0x1a2>
 8005066:	7872      	ldrb	r2, [r6, #1]
 8005068:	f002 02df 	and.w	r2, r2, #223	; 0xdf
 800506c:	2a58      	cmp	r2, #88	; 0x58
 800506e:	d16e      	bne.n	800514e <_strtod_l+0x126>
 8005070:	9302      	str	r3, [sp, #8]
 8005072:	9b0e      	ldr	r3, [sp, #56]	; 0x38
 8005074:	4620      	mov	r0, r4
 8005076:	9301      	str	r3, [sp, #4]
 8005078:	ab1a      	add	r3, sp, #104	; 0x68
 800507a:	9300      	str	r3, [sp, #0]
 800507c:	4a8c      	ldr	r2, [pc, #560]	; (80052b0 <_strtod_l+0x288>)
 800507e:	ab1b      	add	r3, sp, #108	; 0x6c
 8005080:	a919      	add	r1, sp, #100	; 0x64
 8005082:	f001 fafd 	bl	8006680 <__gethex>
 8005086:	f010 070f 	ands.w	r7, r0, #15
 800508a:	4605      	mov	r5, r0
 800508c:	d005      	beq.n	800509a <_strtod_l+0x72>
 800508e:	2f06      	cmp	r7, #6
 8005090:	d128      	bne.n	80050e4 <_strtod_l+0xbc>
 8005092:	2300      	movs	r3, #0
 8005094:	3601      	adds	r6, #1
 8005096:	9619      	str	r6, [sp, #100]	; 0x64
 8005098:	930e      	str	r3, [sp, #56]	; 0x38
 800509a:	9b17      	ldr	r3, [sp, #92]	; 0x5c
 800509c:	2b00      	cmp	r3, #0
 800509e:	f040 85a0 	bne.w	8005be2 <_strtod_l+0xbba>
 80050a2:	9b0e      	ldr	r3, [sp, #56]	; 0x38
 80050a4:	b1cb      	cbz	r3, 80050da <_strtod_l+0xb2>
 80050a6:	4642      	mov	r2, r8
 80050a8:	f109 4300 	add.w	r3, r9, #2147483648	; 0x80000000
 80050ac:	4610      	mov	r0, r2
 80050ae:	4619      	mov	r1, r3
 80050b0:	b01f      	add	sp, #124	; 0x7c
 80050b2:	e8bd 8ff0 	ldmia.w	sp!, {r4, r5, r6, r7, r8, r9, sl, fp, pc}
 80050b6:	2920      	cmp	r1, #32
 80050b8:	d1ce      	bne.n	8005058 <_strtod_l+0x30>
 80050ba:	3201      	adds	r2, #1
 80050bc:	e7c1      	b.n	8005042 <_strtod_l+0x1a>
 80050be:	292d      	cmp	r1, #45	; 0x2d
 80050c0:	d1ca      	bne.n	8005058 <_strtod_l+0x30>
 80050c2:	2101      	movs	r1, #1
 80050c4:	910e      	str	r1, [sp, #56]	; 0x38
 80050c6:	1c51      	adds	r1, r2, #1
 80050c8:	9119      	str	r1, [sp, #100]	; 0x64
 80050ca:	7852      	ldrb	r2, [r2, #1]
 80050cc:	2a00      	cmp	r2, #0
 80050ce:	d1c5      	bne.n	800505c <_strtod_l+0x34>
 80050d0:	9b17      	ldr	r3, [sp, #92]	; 0x5c
 80050d2:	9519      	str	r5, [sp, #100]	; 0x64
 80050d4:	2b00      	cmp	r3, #0
 80050d6:	f040 8582 	bne.w	8005bde <_strtod_l+0xbb6>
 80050da:	4642      	mov	r2, r8
 80050dc:	464b      	mov	r3, r9
 80050de:	e7e5      	b.n	80050ac <_strtod_l+0x84>
 80050e0:	2100      	movs	r1, #0
 80050e2:	e7ef      	b.n	80050c4 <_strtod_l+0x9c>
 80050e4:	9a1a      	ldr	r2, [sp, #104]	; 0x68
 80050e6:	b13a      	cbz	r2, 80050f8 <_strtod_l+0xd0>
 80050e8:	2135      	movs	r1, #53	; 0x35
 80050ea:	a81c      	add	r0, sp, #112	; 0x70
 80050ec:	f7ff ff34 	bl	8004f58 <__copybits>
 80050f0:	4620      	mov	r0, r4
 80050f2:	991a      	ldr	r1, [sp, #104]	; 0x68
 80050f4:	f7ff fb18 	bl	8004728 <_Bfree>
 80050f8:	3f01      	subs	r7, #1
 80050fa:	9a1b      	ldr	r2, [sp, #108]	; 0x6c
 80050fc:	2f04      	cmp	r7, #4
 80050fe:	d806      	bhi.n	800510e <_strtod_l+0xe6>
 8005100:	e8df f007 	tbb	[pc, r7]
 8005104:	201d0314 	.word	0x201d0314
 8005108:	14          	.byte	0x14
 8005109:	00          	.byte	0x00
 800510a:	e9dd 891c 	ldrd	r8, r9, [sp, #112]	; 0x70
 800510e:	05e9      	lsls	r1, r5, #23
 8005110:	bf48      	it	mi
 8005112:	f049 4900 	orrmi.w	r9, r9, #2147483648	; 0x80000000
 8005116:	f029 4300 	bic.w	r3, r9, #2147483648	; 0x80000000
 800511a:	0d1b      	lsrs	r3, r3, #20
 800511c:	051b      	lsls	r3, r3, #20
 800511e:	2b00      	cmp	r3, #0
 8005120:	d1bb      	bne.n	800509a <_strtod_l+0x72>
 8005122:	f7fe fb15 	bl	8003750 <__errno>
 8005126:	2322      	movs	r3, #34	; 0x22
 8005128:	6003      	str	r3, [r0, #0]
 800512a:	e7b6      	b.n	800509a <_strtod_l+0x72>
 800512c:	f202 4233 	addw	r2, r2, #1075	; 0x433
 8005130:	e9dd 831c 	ldrd	r8, r3, [sp, #112]	; 0x70
 8005134:	f423 1380 	bic.w	r3, r3, #1048576	; 0x100000
 8005138:	ea43 5902 	orr.w	r9, r3, r2, lsl #20
 800513c:	e7e7      	b.n	800510e <_strtod_l+0xe6>
 800513e:	f8df 9174 	ldr.w	r9, [pc, #372]	; 80052b4 <_strtod_l+0x28c>
 8005142:	e7e4      	b.n	800510e <_strtod_l+0xe6>
 8005144:	f06f 4900 	mvn.w	r9, #2147483648	; 0x80000000
 8005148:	f04f 38ff 	mov.w	r8, #4294967295
 800514c:	e7df      	b.n	800510e <_strtod_l+0xe6>
 800514e:	9b19      	ldr	r3, [sp, #100]	; 0x64
 8005150:	1c5a      	adds	r2, r3, #1
 8005152:	9219      	str	r2, [sp, #100]	; 0x64
 8005154:	785b      	ldrb	r3, [r3, #1]
 8005156:	2b30      	cmp	r3, #48	; 0x30
 8005158:	d0f9      	beq.n	800514e <_strtod_l+0x126>
 800515a:	2b00      	cmp	r3, #0
 800515c:	d09d      	beq.n	800509a <_strtod_l+0x72>
 800515e:	2301      	movs	r3, #1
 8005160:	f04f 0a00 	mov.w	sl, #0
 8005164:	220a      	movs	r2, #10
 8005166:	46d3      	mov	fp, sl
 8005168:	9305      	str	r3, [sp, #20]
 800516a:	9b19      	ldr	r3, [sp, #100]	; 0x64
 800516c:	f8cd a028 	str.w	sl, [sp, #40]	; 0x28
 8005170:	930b      	str	r3, [sp, #44]	; 0x2c
 8005172:	9819      	ldr	r0, [sp, #100]	; 0x64
 8005174:	7806      	ldrb	r6, [r0, #0]
 8005176:	f1a6 0330 	sub.w	r3, r6, #48	; 0x30
 800517a:	b2d9      	uxtb	r1, r3
 800517c:	2909      	cmp	r1, #9
 800517e:	d926      	bls.n	80051ce <_strtod_l+0x1a6>
 8005180:	2201      	movs	r2, #1
 8005182:	494d      	ldr	r1, [pc, #308]	; (80052b8 <_strtod_l+0x290>)
 8005184:	f001 f989 	bl	800649a <strncmp>
 8005188:	2800      	cmp	r0, #0
 800518a:	d030      	beq.n	80051ee <_strtod_l+0x1c6>
 800518c:	2000      	movs	r0, #0
 800518e:	4632      	mov	r2, r6
 8005190:	4603      	mov	r3, r0
 8005192:	465e      	mov	r6, fp
 8005194:	9008      	str	r0, [sp, #32]
 8005196:	2a65      	cmp	r2, #101	; 0x65
 8005198:	d001      	beq.n	800519e <_strtod_l+0x176>
 800519a:	2a45      	cmp	r2, #69	; 0x45
 800519c:	d113      	bne.n	80051c6 <_strtod_l+0x19e>
 800519e:	b91e      	cbnz	r6, 80051a8 <_strtod_l+0x180>
 80051a0:	9a05      	ldr	r2, [sp, #20]
 80051a2:	4302      	orrs	r2, r0
 80051a4:	d094      	beq.n	80050d0 <_strtod_l+0xa8>
 80051a6:	2600      	movs	r6, #0
 80051a8:	9d19      	ldr	r5, [sp, #100]	; 0x64
 80051aa:	1c6a      	adds	r2, r5, #1
 80051ac:	9219      	str	r2, [sp, #100]	; 0x64
 80051ae:	786a      	ldrb	r2, [r5, #1]
 80051b0:	2a2b      	cmp	r2, #43	; 0x2b
 80051b2:	d074      	beq.n	800529e <_strtod_l+0x276>
 80051b4:	2a2d      	cmp	r2, #45	; 0x2d
 80051b6:	d078      	beq.n	80052aa <_strtod_l+0x282>
 80051b8:	f04f 0c00 	mov.w	ip, #0
 80051bc:	f1a2 0130 	sub.w	r1, r2, #48	; 0x30
 80051c0:	2909      	cmp	r1, #9
 80051c2:	d97f      	bls.n	80052c4 <_strtod_l+0x29c>
 80051c4:	9519      	str	r5, [sp, #100]	; 0x64
 80051c6:	2700      	movs	r7, #0
 80051c8:	e09e      	b.n	8005308 <_strtod_l+0x2e0>
 80051ca:	2300      	movs	r3, #0
 80051cc:	e7c8      	b.n	8005160 <_strtod_l+0x138>
 80051ce:	f1bb 0f08 	cmp.w	fp, #8
 80051d2:	bfd8      	it	le
 80051d4:	990a      	ldrle	r1, [sp, #40]	; 0x28
 80051d6:	f100 0001 	add.w	r0, r0, #1
 80051da:	bfd6      	itet	le
 80051dc:	fb02 3301 	mlale	r3, r2, r1, r3
 80051e0:	fb02 3a0a 	mlagt	sl, r2, sl, r3
 80051e4:	930a      	strle	r3, [sp, #40]	; 0x28
 80051e6:	f10b 0b01 	add.w	fp, fp, #1
 80051ea:	9019      	str	r0, [sp, #100]	; 0x64
 80051ec:	e7c1      	b.n	8005172 <_strtod_l+0x14a>
 80051ee:	9b19      	ldr	r3, [sp, #100]	; 0x64
 80051f0:	1c5a      	adds	r2, r3, #1
 80051f2:	9219      	str	r2, [sp, #100]	; 0x64
 80051f4:	785a      	ldrb	r2, [r3, #1]
 80051f6:	f1bb 0f00 	cmp.w	fp, #0
 80051fa:	d037      	beq.n	800526c <_strtod_l+0x244>
 80051fc:	465e      	mov	r6, fp
 80051fe:	9008      	str	r0, [sp, #32]
 8005200:	f1a2 0330 	sub.w	r3, r2, #48	; 0x30
 8005204:	2b09      	cmp	r3, #9
 8005206:	d912      	bls.n	800522e <_strtod_l+0x206>
 8005208:	2301      	movs	r3, #1
 800520a:	e7c4      	b.n	8005196 <_strtod_l+0x16e>
 800520c:	9b19      	ldr	r3, [sp, #100]	; 0x64
 800520e:	3001      	adds	r0, #1
 8005210:	1c5a      	adds	r2, r3, #1
 8005212:	9219      	str	r2, [sp, #100]	; 0x64
 8005214:	785a      	ldrb	r2, [r3, #1]
 8005216:	2a30      	cmp	r2, #48	; 0x30
 8005218:	d0f8      	beq.n	800520c <_strtod_l+0x1e4>
 800521a:	f1a2 0331 	sub.w	r3, r2, #49	; 0x31
 800521e:	2b08      	cmp	r3, #8
 8005220:	f200 84e4 	bhi.w	8005bec <_strtod_l+0xbc4>
 8005224:	9008      	str	r0, [sp, #32]
 8005226:	2000      	movs	r0, #0
 8005228:	4606      	mov	r6, r0
 800522a:	9b19      	ldr	r3, [sp, #100]	; 0x64
 800522c:	930b      	str	r3, [sp, #44]	; 0x2c
 800522e:	3a30      	subs	r2, #48	; 0x30
 8005230:	f100 0301 	add.w	r3, r0, #1
 8005234:	d014      	beq.n	8005260 <_strtod_l+0x238>
 8005236:	9908      	ldr	r1, [sp, #32]
 8005238:	eb00 0c06 	add.w	ip, r0, r6
 800523c:	4419      	add	r1, r3
 800523e:	9108      	str	r1, [sp, #32]
 8005240:	4633      	mov	r3, r6
 8005242:	210a      	movs	r1, #10
 8005244:	4563      	cmp	r3, ip
 8005246:	d113      	bne.n	8005270 <_strtod_l+0x248>
 8005248:	1833      	adds	r3, r6, r0
 800524a:	2b08      	cmp	r3, #8
 800524c:	f106 0601 	add.w	r6, r6, #1
 8005250:	4406      	add	r6, r0
 8005252:	dc1a      	bgt.n	800528a <_strtod_l+0x262>
 8005254:	230a      	movs	r3, #10
 8005256:	990a      	ldr	r1, [sp, #40]	; 0x28
 8005258:	fb03 2301 	mla	r3, r3, r1, r2
 800525c:	930a      	str	r3, [sp, #40]	; 0x28
 800525e:	2300      	movs	r3, #0
 8005260:	9a19      	ldr	r2, [sp, #100]	; 0x64
 8005262:	4618      	mov	r0, r3
 8005264:	1c51      	adds	r1, r2, #1
 8005266:	9119      	str	r1, [sp, #100]	; 0x64
 8005268:	7852      	ldrb	r2, [r2, #1]
 800526a:	e7c9      	b.n	8005200 <_strtod_l+0x1d8>
 800526c:	4658      	mov	r0, fp
 800526e:	e7d2      	b.n	8005216 <_strtod_l+0x1ee>
 8005270:	2b08      	cmp	r3, #8
 8005272:	f103 0301 	add.w	r3, r3, #1
 8005276:	dc03      	bgt.n	8005280 <_strtod_l+0x258>
 8005278:	9f0a      	ldr	r7, [sp, #40]	; 0x28
 800527a:	434f      	muls	r7, r1
 800527c:	970a      	str	r7, [sp, #40]	; 0x28
 800527e:	e7e1      	b.n	8005244 <_strtod_l+0x21c>
 8005280:	2b10      	cmp	r3, #16
 8005282:	bfd8      	it	le
 8005284:	fb01 fa0a 	mulle.w	sl, r1, sl
 8005288:	e7dc      	b.n	8005244 <_strtod_l+0x21c>
 800528a:	2e10      	cmp	r6, #16
 800528c:	bfdc      	itt	le
 800528e:	230a      	movle	r3, #10
 8005290:	fb03 2a0a 	mlale	sl, r3, sl, r2
 8005294:	e7e3      	b.n	800525e <_strtod_l+0x236>
 8005296:	2300      	movs	r3, #0
 8005298:	9308      	str	r3, [sp, #32]
 800529a:	2301      	movs	r3, #1
 800529c:	e780      	b.n	80051a0 <_strtod_l+0x178>
 800529e:	f04f 0c00 	mov.w	ip, #0
 80052a2:	1caa      	adds	r2, r5, #2
 80052a4:	9219      	str	r2, [sp, #100]	; 0x64
 80052a6:	78aa      	ldrb	r2, [r5, #2]
 80052a8:	e788      	b.n	80051bc <_strtod_l+0x194>
 80052aa:	f04f 0c01 	mov.w	ip, #1
 80052ae:	e7f8      	b.n	80052a2 <_strtod_l+0x27a>
 80052b0:	080070e8 	.word	0x080070e8
 80052b4:	7ff00000 	.word	0x7ff00000
 80052b8:	080070e4 	.word	0x080070e4
 80052bc:	9a19      	ldr	r2, [sp, #100]	; 0x64
 80052be:	1c51      	adds	r1, r2, #1
 80052c0:	9119      	str	r1, [sp, #100]	; 0x64
 80052c2:	7852      	ldrb	r2, [r2, #1]
 80052c4:	2a30      	cmp	r2, #48	; 0x30
 80052c6:	d0f9      	beq.n	80052bc <_strtod_l+0x294>
 80052c8:	f1a2 0131 	sub.w	r1, r2, #49	; 0x31
 80052cc:	2908      	cmp	r1, #8
 80052ce:	f63f af7a 	bhi.w	80051c6 <_strtod_l+0x19e>
 80052d2:	3a30      	subs	r2, #48	; 0x30
 80052d4:	9209      	str	r2, [sp, #36]	; 0x24
 80052d6:	9a19      	ldr	r2, [sp, #100]	; 0x64
 80052d8:	920c      	str	r2, [sp, #48]	; 0x30
 80052da:	9a19      	ldr	r2, [sp, #100]	; 0x64
 80052dc:	1c57      	adds	r7, r2, #1
 80052de:	9719      	str	r7, [sp, #100]	; 0x64
 80052e0:	7852      	ldrb	r2, [r2, #1]
 80052e2:	f1a2 0e30 	sub.w	lr, r2, #48	; 0x30
 80052e6:	f1be 0f09 	cmp.w	lr, #9
 80052ea:	d938      	bls.n	800535e <_strtod_l+0x336>
 80052ec:	990c      	ldr	r1, [sp, #48]	; 0x30
 80052ee:	1a7f      	subs	r7, r7, r1
 80052f0:	2f08      	cmp	r7, #8
 80052f2:	f644 671f 	movw	r7, #19999	; 0x4e1f
 80052f6:	dc03      	bgt.n	8005300 <_strtod_l+0x2d8>
 80052f8:	9909      	ldr	r1, [sp, #36]	; 0x24
 80052fa:	428f      	cmp	r7, r1
 80052fc:	bfa8      	it	ge
 80052fe:	460f      	movge	r7, r1
 8005300:	f1bc 0f00 	cmp.w	ip, #0
 8005304:	d000      	beq.n	8005308 <_strtod_l+0x2e0>
 8005306:	427f      	negs	r7, r7
 8005308:	2e00      	cmp	r6, #0
 800530a:	d14f      	bne.n	80053ac <_strtod_l+0x384>
 800530c:	9905      	ldr	r1, [sp, #20]
 800530e:	4301      	orrs	r1, r0
 8005310:	f47f aec3 	bne.w	800509a <_strtod_l+0x72>
 8005314:	2b00      	cmp	r3, #0
 8005316:	f47f aedb 	bne.w	80050d0 <_strtod_l+0xa8>
 800531a:	2a69      	cmp	r2, #105	; 0x69
 800531c:	d029      	beq.n	8005372 <_strtod_l+0x34a>
 800531e:	dc26      	bgt.n	800536e <_strtod_l+0x346>
 8005320:	2a49      	cmp	r2, #73	; 0x49
 8005322:	d026      	beq.n	8005372 <_strtod_l+0x34a>
 8005324:	2a4e      	cmp	r2, #78	; 0x4e
 8005326:	f47f aed3 	bne.w	80050d0 <_strtod_l+0xa8>
 800532a:	499a      	ldr	r1, [pc, #616]	; (8005594 <_strtod_l+0x56c>)
 800532c:	a819      	add	r0, sp, #100	; 0x64
 800532e:	f001 fbe9 	bl	8006b04 <__match>
 8005332:	2800      	cmp	r0, #0
 8005334:	f43f aecc 	beq.w	80050d0 <_strtod_l+0xa8>
 8005338:	9b19      	ldr	r3, [sp, #100]	; 0x64
 800533a:	781b      	ldrb	r3, [r3, #0]
 800533c:	2b28      	cmp	r3, #40	; 0x28
 800533e:	d12f      	bne.n	80053a0 <_strtod_l+0x378>
 8005340:	4995      	ldr	r1, [pc, #596]	; (8005598 <_strtod_l+0x570>)
 8005342:	aa1c      	add	r2, sp, #112	; 0x70
 8005344:	a819      	add	r0, sp, #100	; 0x64
 8005346:	f001 fbf1 	bl	8006b2c <__hexnan>
 800534a:	2805      	cmp	r0, #5
 800534c:	d128      	bne.n	80053a0 <_strtod_l+0x378>
 800534e:	9b1d      	ldr	r3, [sp, #116]	; 0x74
 8005350:	f8dd 8070 	ldr.w	r8, [sp, #112]	; 0x70
 8005354:	f043 49ff 	orr.w	r9, r3, #2139095040	; 0x7f800000
 8005358:	f449 09e0 	orr.w	r9, r9, #7340032	; 0x700000
 800535c:	e69d      	b.n	800509a <_strtod_l+0x72>
 800535e:	210a      	movs	r1, #10
 8005360:	9f09      	ldr	r7, [sp, #36]	; 0x24
 8005362:	fb01 2107 	mla	r1, r1, r7, r2
 8005366:	f1a1 0230 	sub.w	r2, r1, #48	; 0x30
 800536a:	9209      	str	r2, [sp, #36]	; 0x24
 800536c:	e7b5      	b.n	80052da <_strtod_l+0x2b2>
 800536e:	2a6e      	cmp	r2, #110	; 0x6e
 8005370:	e7d9      	b.n	8005326 <_strtod_l+0x2fe>
 8005372:	498a      	ldr	r1, [pc, #552]	; (800559c <_strtod_l+0x574>)
 8005374:	a819      	add	r0, sp, #100	; 0x64
 8005376:	f001 fbc5 	bl	8006b04 <__match>
 800537a:	2800      	cmp	r0, #0
 800537c:	f43f aea8 	beq.w	80050d0 <_strtod_l+0xa8>
 8005380:	9b19      	ldr	r3, [sp, #100]	; 0x64
 8005382:	4987      	ldr	r1, [pc, #540]	; (80055a0 <_strtod_l+0x578>)
 8005384:	3b01      	subs	r3, #1
 8005386:	a819      	add	r0, sp, #100	; 0x64
 8005388:	9319      	str	r3, [sp, #100]	; 0x64
 800538a:	f001 fbbb 	bl	8006b04 <__match>
 800538e:	b910      	cbnz	r0, 8005396 <_strtod_l+0x36e>
 8005390:	9b19      	ldr	r3, [sp, #100]	; 0x64
 8005392:	3301      	adds	r3, #1
 8005394:	9319      	str	r3, [sp, #100]	; 0x64
 8005396:	f04f 0800 	mov.w	r8, #0
 800539a:	f8df 9208 	ldr.w	r9, [pc, #520]	; 80055a4 <_strtod_l+0x57c>
 800539e:	e67c      	b.n	800509a <_strtod_l+0x72>
 80053a0:	4881      	ldr	r0, [pc, #516]	; (80055a8 <_strtod_l+0x580>)
 80053a2:	f001 f8cd 	bl	8006540 <nan>
 80053a6:	4680      	mov	r8, r0
 80053a8:	4689      	mov	r9, r1
 80053aa:	e676      	b.n	800509a <_strtod_l+0x72>
 80053ac:	9b08      	ldr	r3, [sp, #32]
 80053ae:	f1bb 0f00 	cmp.w	fp, #0
 80053b2:	bf08      	it	eq
 80053b4:	46b3      	moveq	fp, r6
 80053b6:	1afb      	subs	r3, r7, r3
 80053b8:	2e10      	cmp	r6, #16
 80053ba:	980a      	ldr	r0, [sp, #40]	; 0x28
 80053bc:	4635      	mov	r5, r6
 80053be:	9309      	str	r3, [sp, #36]	; 0x24
 80053c0:	bfa8      	it	ge
 80053c2:	2510      	movge	r5, #16
 80053c4:	f7fb f80e 	bl	80003e4 <__aeabi_ui2d>
 80053c8:	2e09      	cmp	r6, #9
 80053ca:	4680      	mov	r8, r0
 80053cc:	4689      	mov	r9, r1
 80053ce:	dd13      	ble.n	80053f8 <_strtod_l+0x3d0>
 80053d0:	4b76      	ldr	r3, [pc, #472]	; (80055ac <_strtod_l+0x584>)
 80053d2:	eb03 03c5 	add.w	r3, r3, r5, lsl #3
 80053d6:	e953 2312 	ldrd	r2, r3, [r3, #-72]	; 0x48
 80053da:	f7fb f87d 	bl	80004d8 <__aeabi_dmul>
 80053de:	4680      	mov	r8, r0
 80053e0:	4650      	mov	r0, sl
 80053e2:	4689      	mov	r9, r1
 80053e4:	f7fa fffe 	bl	80003e4 <__aeabi_ui2d>
 80053e8:	4602      	mov	r2, r0
 80053ea:	460b      	mov	r3, r1
 80053ec:	4640      	mov	r0, r8
 80053ee:	4649      	mov	r1, r9
 80053f0:	f7fa febc 	bl	800016c <__adddf3>
 80053f4:	4680      	mov	r8, r0
 80053f6:	4689      	mov	r9, r1
 80053f8:	2e0f      	cmp	r6, #15
 80053fa:	dc36      	bgt.n	800546a <_strtod_l+0x442>
 80053fc:	9b09      	ldr	r3, [sp, #36]	; 0x24
 80053fe:	2b00      	cmp	r3, #0
 8005400:	f43f ae4b 	beq.w	800509a <_strtod_l+0x72>
 8005404:	dd22      	ble.n	800544c <_strtod_l+0x424>
 8005406:	2b16      	cmp	r3, #22
 8005408:	dc09      	bgt.n	800541e <_strtod_l+0x3f6>
 800540a:	4968      	ldr	r1, [pc, #416]	; (80055ac <_strtod_l+0x584>)
 800540c:	4642      	mov	r2, r8
 800540e:	eb01 01c3 	add.w	r1, r1, r3, lsl #3
 8005412:	464b      	mov	r3, r9
 8005414:	e9d1 0100 	ldrd	r0, r1, [r1]
 8005418:	f7fb f85e 	bl	80004d8 <__aeabi_dmul>
 800541c:	e7c3      	b.n	80053a6 <_strtod_l+0x37e>
 800541e:	9a09      	ldr	r2, [sp, #36]	; 0x24
 8005420:	f1c6 0325 	rsb	r3, r6, #37	; 0x25
 8005424:	4293      	cmp	r3, r2
 8005426:	db20      	blt.n	800546a <_strtod_l+0x442>
 8005428:	4c60      	ldr	r4, [pc, #384]	; (80055ac <_strtod_l+0x584>)
 800542a:	f1c6 060f 	rsb	r6, r6, #15
 800542e:	eb04 01c6 	add.w	r1, r4, r6, lsl #3
 8005432:	4642      	mov	r2, r8
 8005434:	e9d1 0100 	ldrd	r0, r1, [r1]
 8005438:	464b      	mov	r3, r9
 800543a:	f7fb f84d 	bl	80004d8 <__aeabi_dmul>
 800543e:	9b09      	ldr	r3, [sp, #36]	; 0x24
 8005440:	1b9e      	subs	r6, r3, r6
 8005442:	eb04 04c6 	add.w	r4, r4, r6, lsl #3
 8005446:	e9d4 2300 	ldrd	r2, r3, [r4]
 800544a:	e7e5      	b.n	8005418 <_strtod_l+0x3f0>
 800544c:	9b09      	ldr	r3, [sp, #36]	; 0x24
 800544e:	3316      	adds	r3, #22
 8005450:	db0b      	blt.n	800546a <_strtod_l+0x442>
 8005452:	9b08      	ldr	r3, [sp, #32]
 8005454:	4640      	mov	r0, r8
 8005456:	1bdf      	subs	r7, r3, r7
 8005458:	4b54      	ldr	r3, [pc, #336]	; (80055ac <_strtod_l+0x584>)
 800545a:	4649      	mov	r1, r9
 800545c:	eb03 07c7 	add.w	r7, r3, r7, lsl #3
 8005460:	e9d7 2300 	ldrd	r2, r3, [r7]
 8005464:	f7fb f962 	bl	800072c <__aeabi_ddiv>
 8005468:	e79d      	b.n	80053a6 <_strtod_l+0x37e>
 800546a:	9b09      	ldr	r3, [sp, #36]	; 0x24
 800546c:	1b75      	subs	r5, r6, r5
 800546e:	441d      	add	r5, r3
 8005470:	2d00      	cmp	r5, #0
 8005472:	dd70      	ble.n	8005556 <_strtod_l+0x52e>
 8005474:	f015 030f 	ands.w	r3, r5, #15
 8005478:	d00a      	beq.n	8005490 <_strtod_l+0x468>
 800547a:	494c      	ldr	r1, [pc, #304]	; (80055ac <_strtod_l+0x584>)
 800547c:	4642      	mov	r2, r8
 800547e:	eb01 01c3 	add.w	r1, r1, r3, lsl #3
 8005482:	e9d1 0100 	ldrd	r0, r1, [r1]
 8005486:	464b      	mov	r3, r9
 8005488:	f7fb f826 	bl	80004d8 <__aeabi_dmul>
 800548c:	4680      	mov	r8, r0
 800548e:	4689      	mov	r9, r1
 8005490:	f035 050f 	bics.w	r5, r5, #15
 8005494:	d04d      	beq.n	8005532 <_strtod_l+0x50a>
 8005496:	f5b5 7f9a 	cmp.w	r5, #308	; 0x134
 800549a:	dd22      	ble.n	80054e2 <_strtod_l+0x4ba>
 800549c:	2600      	movs	r6, #0
 800549e:	46b3      	mov	fp, r6
 80054a0:	960b      	str	r6, [sp, #44]	; 0x2c
 80054a2:	9608      	str	r6, [sp, #32]
 80054a4:	2322      	movs	r3, #34	; 0x22
 80054a6:	f04f 0800 	mov.w	r8, #0
 80054aa:	f8df 90f8 	ldr.w	r9, [pc, #248]	; 80055a4 <_strtod_l+0x57c>
 80054ae:	6023      	str	r3, [r4, #0]
 80054b0:	9b0b      	ldr	r3, [sp, #44]	; 0x2c
 80054b2:	2b00      	cmp	r3, #0
 80054b4:	f43f adf1 	beq.w	800509a <_strtod_l+0x72>
 80054b8:	4620      	mov	r0, r4
 80054ba:	991a      	ldr	r1, [sp, #104]	; 0x68
 80054bc:	f7ff f934 	bl	8004728 <_Bfree>
 80054c0:	4620      	mov	r0, r4
 80054c2:	9908      	ldr	r1, [sp, #32]
 80054c4:	f7ff f930 	bl	8004728 <_Bfree>
 80054c8:	4659      	mov	r1, fp
 80054ca:	4620      	mov	r0, r4
 80054cc:	f7ff f92c 	bl	8004728 <_Bfree>
 80054d0:	4620      	mov	r0, r4
 80054d2:	990b      	ldr	r1, [sp, #44]	; 0x2c
 80054d4:	f7ff f928 	bl	8004728 <_Bfree>
 80054d8:	4631      	mov	r1, r6
 80054da:	4620      	mov	r0, r4
 80054dc:	f7ff f924 	bl	8004728 <_Bfree>
 80054e0:	e5db      	b.n	800509a <_strtod_l+0x72>
 80054e2:	4b33      	ldr	r3, [pc, #204]	; (80055b0 <_strtod_l+0x588>)
 80054e4:	4640      	mov	r0, r8
 80054e6:	9305      	str	r3, [sp, #20]
 80054e8:	2300      	movs	r3, #0
 80054ea:	4649      	mov	r1, r9
 80054ec:	469a      	mov	sl, r3
 80054ee:	112d      	asrs	r5, r5, #4
 80054f0:	2d01      	cmp	r5, #1
 80054f2:	dc21      	bgt.n	8005538 <_strtod_l+0x510>
 80054f4:	b10b      	cbz	r3, 80054fa <_strtod_l+0x4d2>
 80054f6:	4680      	mov	r8, r0
 80054f8:	4689      	mov	r9, r1
 80054fa:	492d      	ldr	r1, [pc, #180]	; (80055b0 <_strtod_l+0x588>)
 80054fc:	f1a9 7954 	sub.w	r9, r9, #55574528	; 0x3500000
 8005500:	eb01 01ca 	add.w	r1, r1, sl, lsl #3
 8005504:	4642      	mov	r2, r8
 8005506:	e9d1 0100 	ldrd	r0, r1, [r1]
 800550a:	464b      	mov	r3, r9
 800550c:	f7fa ffe4 	bl	80004d8 <__aeabi_dmul>
 8005510:	4b24      	ldr	r3, [pc, #144]	; (80055a4 <_strtod_l+0x57c>)
 8005512:	460a      	mov	r2, r1
 8005514:	400b      	ands	r3, r1
 8005516:	4927      	ldr	r1, [pc, #156]	; (80055b4 <_strtod_l+0x58c>)
 8005518:	4680      	mov	r8, r0
 800551a:	428b      	cmp	r3, r1
 800551c:	d8be      	bhi.n	800549c <_strtod_l+0x474>
 800551e:	f5a1 1180 	sub.w	r1, r1, #1048576	; 0x100000
 8005522:	428b      	cmp	r3, r1
 8005524:	bf86      	itte	hi
 8005526:	f04f 38ff 	movhi.w	r8, #4294967295
 800552a:	f8df 908c 	ldrhi.w	r9, [pc, #140]	; 80055b8 <_strtod_l+0x590>
 800552e:	f102 7954 	addls.w	r9, r2, #55574528	; 0x3500000
 8005532:	2300      	movs	r3, #0
 8005534:	9305      	str	r3, [sp, #20]
 8005536:	e07b      	b.n	8005630 <_strtod_l+0x608>
 8005538:	07ea      	lsls	r2, r5, #31
 800553a:	d505      	bpl.n	8005548 <_strtod_l+0x520>
 800553c:	9b05      	ldr	r3, [sp, #20]
 800553e:	e9d3 2300 	ldrd	r2, r3, [r3]
 8005542:	f7fa ffc9 	bl	80004d8 <__aeabi_dmul>
 8005546:	2301      	movs	r3, #1
 8005548:	9a05      	ldr	r2, [sp, #20]
 800554a:	f10a 0a01 	add.w	sl, sl, #1
 800554e:	3208      	adds	r2, #8
 8005550:	106d      	asrs	r5, r5, #1
 8005552:	9205      	str	r2, [sp, #20]
 8005554:	e7cc      	b.n	80054f0 <_strtod_l+0x4c8>
 8005556:	d0ec      	beq.n	8005532 <_strtod_l+0x50a>
 8005558:	426d      	negs	r5, r5
 800555a:	f015 020f 	ands.w	r2, r5, #15
 800555e:	d00a      	beq.n	8005576 <_strtod_l+0x54e>
 8005560:	4b12      	ldr	r3, [pc, #72]	; (80055ac <_strtod_l+0x584>)
 8005562:	4640      	mov	r0, r8
 8005564:	eb03 03c2 	add.w	r3, r3, r2, lsl #3
 8005568:	4649      	mov	r1, r9
 800556a:	e9d3 2300 	ldrd	r2, r3, [r3]
 800556e:	f7fb f8dd 	bl	800072c <__aeabi_ddiv>
 8005572:	4680      	mov	r8, r0
 8005574:	4689      	mov	r9, r1
 8005576:	112d      	asrs	r5, r5, #4
 8005578:	d0db      	beq.n	8005532 <_strtod_l+0x50a>
 800557a:	2d1f      	cmp	r5, #31
 800557c:	dd1e      	ble.n	80055bc <_strtod_l+0x594>
 800557e:	2600      	movs	r6, #0
 8005580:	46b3      	mov	fp, r6
 8005582:	960b      	str	r6, [sp, #44]	; 0x2c
 8005584:	9608      	str	r6, [sp, #32]
 8005586:	2322      	movs	r3, #34	; 0x22
 8005588:	f04f 0800 	mov.w	r8, #0
 800558c:	f04f 0900 	mov.w	r9, #0
 8005590:	6023      	str	r3, [r4, #0]
 8005592:	e78d      	b.n	80054b0 <_strtod_l+0x488>
 8005594:	08006ed2 	.word	0x08006ed2
 8005598:	080070fc 	.word	0x080070fc
 800559c:	08006eca 	.word	0x08006eca
 80055a0:	08006f01 	.word	0x08006f01
 80055a4:	7ff00000 	.word	0x7ff00000
 80055a8:	08006e30 	.word	0x08006e30
 80055ac:	08007010 	.word	0x08007010
 80055b0:	08006fe8 	.word	0x08006fe8
 80055b4:	7ca00000 	.word	0x7ca00000
 80055b8:	7fefffff 	.word	0x7fefffff
 80055bc:	f015 0310 	ands.w	r3, r5, #16
 80055c0:	bf18      	it	ne
 80055c2:	236a      	movne	r3, #106	; 0x6a
 80055c4:	4640      	mov	r0, r8
 80055c6:	9305      	str	r3, [sp, #20]
 80055c8:	4649      	mov	r1, r9
 80055ca:	2300      	movs	r3, #0
 80055cc:	f8df a2c8 	ldr.w	sl, [pc, #712]	; 8005898 <_strtod_l+0x870>
 80055d0:	07ea      	lsls	r2, r5, #31
 80055d2:	d504      	bpl.n	80055de <_strtod_l+0x5b6>
 80055d4:	e9da 2300 	ldrd	r2, r3, [sl]
 80055d8:	f7fa ff7e 	bl	80004d8 <__aeabi_dmul>
 80055dc:	2301      	movs	r3, #1
 80055de:	106d      	asrs	r5, r5, #1
 80055e0:	f10a 0a08 	add.w	sl, sl, #8
 80055e4:	d1f4      	bne.n	80055d0 <_strtod_l+0x5a8>
 80055e6:	b10b      	cbz	r3, 80055ec <_strtod_l+0x5c4>
 80055e8:	4680      	mov	r8, r0
 80055ea:	4689      	mov	r9, r1
 80055ec:	9b05      	ldr	r3, [sp, #20]
 80055ee:	b1bb      	cbz	r3, 8005620 <_strtod_l+0x5f8>
 80055f0:	f3c9 520a 	ubfx	r2, r9, #20, #11
 80055f4:	f1c2 036b 	rsb	r3, r2, #107	; 0x6b
 80055f8:	2b00      	cmp	r3, #0
 80055fa:	4649      	mov	r1, r9
 80055fc:	dd10      	ble.n	8005620 <_strtod_l+0x5f8>
 80055fe:	2b1f      	cmp	r3, #31
 8005600:	f340 8128 	ble.w	8005854 <_strtod_l+0x82c>
 8005604:	2b34      	cmp	r3, #52	; 0x34
 8005606:	bfd8      	it	le
 8005608:	f04f 33ff 	movle.w	r3, #4294967295
 800560c:	f04f 0800 	mov.w	r8, #0
 8005610:	bfcf      	iteee	gt
 8005612:	f04f 795c 	movgt.w	r9, #57671680	; 0x3700000
 8005616:	f1c2 024b 	rsble	r2, r2, #75	; 0x4b
 800561a:	4093      	lslle	r3, r2
 800561c:	ea03 0901 	andle.w	r9, r3, r1
 8005620:	2200      	movs	r2, #0
 8005622:	2300      	movs	r3, #0
 8005624:	4640      	mov	r0, r8
 8005626:	4649      	mov	r1, r9
 8005628:	f7fb f9be 	bl	80009a8 <__aeabi_dcmpeq>
 800562c:	2800      	cmp	r0, #0
 800562e:	d1a6      	bne.n	800557e <_strtod_l+0x556>
 8005630:	9b0a      	ldr	r3, [sp, #40]	; 0x28
 8005632:	465a      	mov	r2, fp
 8005634:	9300      	str	r3, [sp, #0]
 8005636:	4620      	mov	r0, r4
 8005638:	4633      	mov	r3, r6
 800563a:	990b      	ldr	r1, [sp, #44]	; 0x2c
 800563c:	f7ff f8dc 	bl	80047f8 <__s2b>
 8005640:	900b      	str	r0, [sp, #44]	; 0x2c
 8005642:	2800      	cmp	r0, #0
 8005644:	f43f af2a 	beq.w	800549c <_strtod_l+0x474>
 8005648:	2600      	movs	r6, #0
 800564a:	9a09      	ldr	r2, [sp, #36]	; 0x24
 800564c:	9b08      	ldr	r3, [sp, #32]
 800564e:	2a00      	cmp	r2, #0
 8005650:	eba3 0307 	sub.w	r3, r3, r7
 8005654:	bfa8      	it	ge
 8005656:	2300      	movge	r3, #0
 8005658:	46b3      	mov	fp, r6
 800565a:	9312      	str	r3, [sp, #72]	; 0x48
 800565c:	ea22 73e2 	bic.w	r3, r2, r2, asr #31
 8005660:	9316      	str	r3, [sp, #88]	; 0x58
 8005662:	9b0b      	ldr	r3, [sp, #44]	; 0x2c
 8005664:	4620      	mov	r0, r4
 8005666:	6859      	ldr	r1, [r3, #4]
 8005668:	f7ff f81e 	bl	80046a8 <_Balloc>
 800566c:	9008      	str	r0, [sp, #32]
 800566e:	2800      	cmp	r0, #0
 8005670:	f43f af18 	beq.w	80054a4 <_strtod_l+0x47c>
 8005674:	9b0b      	ldr	r3, [sp, #44]	; 0x2c
 8005676:	300c      	adds	r0, #12
 8005678:	691a      	ldr	r2, [r3, #16]
 800567a:	f103 010c 	add.w	r1, r3, #12
 800567e:	3202      	adds	r2, #2
 8005680:	0092      	lsls	r2, r2, #2
 8005682:	f000 ff4f 	bl	8006524 <memcpy>
 8005686:	ab1c      	add	r3, sp, #112	; 0x70
 8005688:	9301      	str	r3, [sp, #4]
 800568a:	ab1b      	add	r3, sp, #108	; 0x6c
 800568c:	9300      	str	r3, [sp, #0]
 800568e:	4642      	mov	r2, r8
 8005690:	464b      	mov	r3, r9
 8005692:	4620      	mov	r0, r4
 8005694:	f8cd 8030 	str.w	r8, [sp, #48]	; 0x30
 8005698:	f8cd 903c 	str.w	r9, [sp, #60]	; 0x3c
 800569c:	f7ff fbd8 	bl	8004e50 <__d2b>
 80056a0:	901a      	str	r0, [sp, #104]	; 0x68
 80056a2:	2800      	cmp	r0, #0
 80056a4:	f43f aefe 	beq.w	80054a4 <_strtod_l+0x47c>
 80056a8:	2101      	movs	r1, #1
 80056aa:	4620      	mov	r0, r4
 80056ac:	f7ff f93c 	bl	8004928 <__i2b>
 80056b0:	4683      	mov	fp, r0
 80056b2:	2800      	cmp	r0, #0
 80056b4:	f43f aef6 	beq.w	80054a4 <_strtod_l+0x47c>
 80056b8:	9f1b      	ldr	r7, [sp, #108]	; 0x6c
 80056ba:	9a1c      	ldr	r2, [sp, #112]	; 0x70
 80056bc:	2f00      	cmp	r7, #0
 80056be:	bfab      	itete	ge
 80056c0:	9b12      	ldrge	r3, [sp, #72]	; 0x48
 80056c2:	9b16      	ldrlt	r3, [sp, #88]	; 0x58
 80056c4:	eb07 0a03 	addge.w	sl, r7, r3
 80056c8:	1bdd      	sublt	r5, r3, r7
 80056ca:	9b05      	ldr	r3, [sp, #20]
 80056cc:	bfa8      	it	ge
 80056ce:	9d16      	ldrge	r5, [sp, #88]	; 0x58
 80056d0:	eba7 0703 	sub.w	r7, r7, r3
 80056d4:	4417      	add	r7, r2
 80056d6:	4b71      	ldr	r3, [pc, #452]	; (800589c <_strtod_l+0x874>)
 80056d8:	f107 37ff 	add.w	r7, r7, #4294967295
 80056dc:	bfb8      	it	lt
 80056de:	f8dd a048 	ldrlt.w	sl, [sp, #72]	; 0x48
 80056e2:	429f      	cmp	r7, r3
 80056e4:	f1c2 0236 	rsb	r2, r2, #54	; 0x36
 80056e8:	f280 80c7 	bge.w	800587a <_strtod_l+0x852>
 80056ec:	1bdb      	subs	r3, r3, r7
 80056ee:	2b1f      	cmp	r3, #31
 80056f0:	f04f 0101 	mov.w	r1, #1
 80056f4:	eba2 0203 	sub.w	r2, r2, r3
 80056f8:	f300 80b3 	bgt.w	8005862 <_strtod_l+0x83a>
 80056fc:	fa01 f303 	lsl.w	r3, r1, r3
 8005700:	9313      	str	r3, [sp, #76]	; 0x4c
 8005702:	2300      	movs	r3, #0
 8005704:	9310      	str	r3, [sp, #64]	; 0x40
 8005706:	eb0a 0702 	add.w	r7, sl, r2
 800570a:	9b05      	ldr	r3, [sp, #20]
 800570c:	45ba      	cmp	sl, r7
 800570e:	4415      	add	r5, r2
 8005710:	441d      	add	r5, r3
 8005712:	4653      	mov	r3, sl
 8005714:	bfa8      	it	ge
 8005716:	463b      	movge	r3, r7
 8005718:	42ab      	cmp	r3, r5
 800571a:	bfa8      	it	ge
 800571c:	462b      	movge	r3, r5
 800571e:	2b00      	cmp	r3, #0
 8005720:	bfc2      	ittt	gt
 8005722:	1aff      	subgt	r7, r7, r3
 8005724:	1aed      	subgt	r5, r5, r3
 8005726:	ebaa 0a03 	subgt.w	sl, sl, r3
 800572a:	9b12      	ldr	r3, [sp, #72]	; 0x48
 800572c:	2b00      	cmp	r3, #0
 800572e:	dd17      	ble.n	8005760 <_strtod_l+0x738>
 8005730:	4659      	mov	r1, fp
 8005732:	461a      	mov	r2, r3
 8005734:	4620      	mov	r0, r4
 8005736:	f7ff f9b5 	bl	8004aa4 <__pow5mult>
 800573a:	4683      	mov	fp, r0
 800573c:	2800      	cmp	r0, #0
 800573e:	f43f aeb1 	beq.w	80054a4 <_strtod_l+0x47c>
 8005742:	4601      	mov	r1, r0
 8005744:	9a1a      	ldr	r2, [sp, #104]	; 0x68
 8005746:	4620      	mov	r0, r4
 8005748:	f7ff f904 	bl	8004954 <__multiply>
 800574c:	900a      	str	r0, [sp, #40]	; 0x28
 800574e:	2800      	cmp	r0, #0
 8005750:	f43f aea8 	beq.w	80054a4 <_strtod_l+0x47c>
 8005754:	4620      	mov	r0, r4
 8005756:	991a      	ldr	r1, [sp, #104]	; 0x68
 8005758:	f7fe ffe6 	bl	8004728 <_Bfree>
 800575c:	9b0a      	ldr	r3, [sp, #40]	; 0x28
 800575e:	931a      	str	r3, [sp, #104]	; 0x68
 8005760:	2f00      	cmp	r7, #0
 8005762:	f300 808f 	bgt.w	8005884 <_strtod_l+0x85c>
 8005766:	9b09      	ldr	r3, [sp, #36]	; 0x24
 8005768:	2b00      	cmp	r3, #0
 800576a:	dd08      	ble.n	800577e <_strtod_l+0x756>
 800576c:	4620      	mov	r0, r4
 800576e:	9a16      	ldr	r2, [sp, #88]	; 0x58
 8005770:	9908      	ldr	r1, [sp, #32]
 8005772:	f7ff f997 	bl	8004aa4 <__pow5mult>
 8005776:	9008      	str	r0, [sp, #32]
 8005778:	2800      	cmp	r0, #0
 800577a:	f43f ae93 	beq.w	80054a4 <_strtod_l+0x47c>
 800577e:	2d00      	cmp	r5, #0
 8005780:	dd08      	ble.n	8005794 <_strtod_l+0x76c>
 8005782:	462a      	mov	r2, r5
 8005784:	4620      	mov	r0, r4
 8005786:	9908      	ldr	r1, [sp, #32]
 8005788:	f7ff f9e6 	bl	8004b58 <__lshift>
 800578c:	9008      	str	r0, [sp, #32]
 800578e:	2800      	cmp	r0, #0
 8005790:	f43f ae88 	beq.w	80054a4 <_strtod_l+0x47c>
 8005794:	f1ba 0f00 	cmp.w	sl, #0
 8005798:	dd08      	ble.n	80057ac <_strtod_l+0x784>
 800579a:	4659      	mov	r1, fp
 800579c:	4652      	mov	r2, sl
 800579e:	4620      	mov	r0, r4
 80057a0:	f7ff f9da 	bl	8004b58 <__lshift>
 80057a4:	4683      	mov	fp, r0
 80057a6:	2800      	cmp	r0, #0
 80057a8:	f43f ae7c 	beq.w	80054a4 <_strtod_l+0x47c>
 80057ac:	4620      	mov	r0, r4
 80057ae:	9a08      	ldr	r2, [sp, #32]
 80057b0:	991a      	ldr	r1, [sp, #104]	; 0x68
 80057b2:	f7ff fa59 	bl	8004c68 <__mdiff>
 80057b6:	4606      	mov	r6, r0
 80057b8:	2800      	cmp	r0, #0
 80057ba:	f43f ae73 	beq.w	80054a4 <_strtod_l+0x47c>
 80057be:	2500      	movs	r5, #0
 80057c0:	68c3      	ldr	r3, [r0, #12]
 80057c2:	4659      	mov	r1, fp
 80057c4:	60c5      	str	r5, [r0, #12]
 80057c6:	930a      	str	r3, [sp, #40]	; 0x28
 80057c8:	f7ff fa32 	bl	8004c30 <__mcmp>
 80057cc:	42a8      	cmp	r0, r5
 80057ce:	da6b      	bge.n	80058a8 <_strtod_l+0x880>
 80057d0:	9b0a      	ldr	r3, [sp, #40]	; 0x28
 80057d2:	ea53 0308 	orrs.w	r3, r3, r8
 80057d6:	f040 808f 	bne.w	80058f8 <_strtod_l+0x8d0>
 80057da:	f3c9 0313 	ubfx	r3, r9, #0, #20
 80057de:	2b00      	cmp	r3, #0
 80057e0:	f040 808a 	bne.w	80058f8 <_strtod_l+0x8d0>
 80057e4:	f029 4300 	bic.w	r3, r9, #2147483648	; 0x80000000
 80057e8:	0d1b      	lsrs	r3, r3, #20
 80057ea:	051b      	lsls	r3, r3, #20
 80057ec:	f1b3 6fd6 	cmp.w	r3, #112197632	; 0x6b00000
 80057f0:	f240 8082 	bls.w	80058f8 <_strtod_l+0x8d0>
 80057f4:	6973      	ldr	r3, [r6, #20]
 80057f6:	b913      	cbnz	r3, 80057fe <_strtod_l+0x7d6>
 80057f8:	6933      	ldr	r3, [r6, #16]
 80057fa:	2b01      	cmp	r3, #1
 80057fc:	dd7c      	ble.n	80058f8 <_strtod_l+0x8d0>
 80057fe:	4631      	mov	r1, r6
 8005800:	2201      	movs	r2, #1
 8005802:	4620      	mov	r0, r4
 8005804:	f7ff f9a8 	bl	8004b58 <__lshift>
 8005808:	4659      	mov	r1, fp
 800580a:	4606      	mov	r6, r0
 800580c:	f7ff fa10 	bl	8004c30 <__mcmp>
 8005810:	2800      	cmp	r0, #0
 8005812:	dd71      	ble.n	80058f8 <_strtod_l+0x8d0>
 8005814:	9905      	ldr	r1, [sp, #20]
 8005816:	464b      	mov	r3, r9
 8005818:	4a21      	ldr	r2, [pc, #132]	; (80058a0 <_strtod_l+0x878>)
 800581a:	2900      	cmp	r1, #0
 800581c:	f000 808d 	beq.w	800593a <_strtod_l+0x912>
 8005820:	ea02 0109 	and.w	r1, r2, r9
 8005824:	f1b1 6fd6 	cmp.w	r1, #112197632	; 0x6b00000
 8005828:	f300 8087 	bgt.w	800593a <_strtod_l+0x912>
 800582c:	f1b1 7f5c 	cmp.w	r1, #57671680	; 0x3700000
 8005830:	f77f aea9 	ble.w	8005586 <_strtod_l+0x55e>
 8005834:	4640      	mov	r0, r8
 8005836:	4649      	mov	r1, r9
 8005838:	4b1a      	ldr	r3, [pc, #104]	; (80058a4 <_strtod_l+0x87c>)
 800583a:	2200      	movs	r2, #0
 800583c:	f7fa fe4c 	bl	80004d8 <__aeabi_dmul>
 8005840:	4b17      	ldr	r3, [pc, #92]	; (80058a0 <_strtod_l+0x878>)
 8005842:	4680      	mov	r8, r0
 8005844:	400b      	ands	r3, r1
 8005846:	4689      	mov	r9, r1
 8005848:	2b00      	cmp	r3, #0
 800584a:	f47f ae35 	bne.w	80054b8 <_strtod_l+0x490>
 800584e:	2322      	movs	r3, #34	; 0x22
 8005850:	6023      	str	r3, [r4, #0]
 8005852:	e631      	b.n	80054b8 <_strtod_l+0x490>
 8005854:	f04f 32ff 	mov.w	r2, #4294967295
 8005858:	fa02 f303 	lsl.w	r3, r2, r3
 800585c:	ea03 0808 	and.w	r8, r3, r8
 8005860:	e6de      	b.n	8005620 <_strtod_l+0x5f8>
 8005862:	f1c7 477f 	rsb	r7, r7, #4278190080	; 0xff000000
 8005866:	f507 077f 	add.w	r7, r7, #16711680	; 0xff0000
 800586a:	f507 477b 	add.w	r7, r7, #64256	; 0xfb00
 800586e:	37e2      	adds	r7, #226	; 0xe2
 8005870:	fa01 f307 	lsl.w	r3, r1, r7
 8005874:	9310      	str	r3, [sp, #64]	; 0x40
 8005876:	9113      	str	r1, [sp, #76]	; 0x4c
 8005878:	e745      	b.n	8005706 <_strtod_l+0x6de>
 800587a:	2300      	movs	r3, #0
 800587c:	9310      	str	r3, [sp, #64]	; 0x40
 800587e:	2301      	movs	r3, #1
 8005880:	9313      	str	r3, [sp, #76]	; 0x4c
 8005882:	e740      	b.n	8005706 <_strtod_l+0x6de>
 8005884:	463a      	mov	r2, r7
 8005886:	4620      	mov	r0, r4
 8005888:	991a      	ldr	r1, [sp, #104]	; 0x68
 800588a:	f7ff f965 	bl	8004b58 <__lshift>
 800588e:	901a      	str	r0, [sp, #104]	; 0x68
 8005890:	2800      	cmp	r0, #0
 8005892:	f47f af68 	bne.w	8005766 <_strtod_l+0x73e>
 8005896:	e605      	b.n	80054a4 <_strtod_l+0x47c>
 8005898:	08007110 	.word	0x08007110
 800589c:	fffffc02 	.word	0xfffffc02
 80058a0:	7ff00000 	.word	0x7ff00000
 80058a4:	39500000 	.word	0x39500000
 80058a8:	46ca      	mov	sl, r9
 80058aa:	d165      	bne.n	8005978 <_strtod_l+0x950>
 80058ac:	9a0a      	ldr	r2, [sp, #40]	; 0x28
 80058ae:	f3c9 0313 	ubfx	r3, r9, #0, #20
 80058b2:	b352      	cbz	r2, 800590a <_strtod_l+0x8e2>
 80058b4:	4a9e      	ldr	r2, [pc, #632]	; (8005b30 <_strtod_l+0xb08>)
 80058b6:	4293      	cmp	r3, r2
 80058b8:	d12a      	bne.n	8005910 <_strtod_l+0x8e8>
 80058ba:	9b05      	ldr	r3, [sp, #20]
 80058bc:	4641      	mov	r1, r8
 80058be:	b1fb      	cbz	r3, 8005900 <_strtod_l+0x8d8>
 80058c0:	4b9c      	ldr	r3, [pc, #624]	; (8005b34 <_strtod_l+0xb0c>)
 80058c2:	f04f 32ff 	mov.w	r2, #4294967295
 80058c6:	ea09 0303 	and.w	r3, r9, r3
 80058ca:	f1b3 6fd4 	cmp.w	r3, #111149056	; 0x6a00000
 80058ce:	d81a      	bhi.n	8005906 <_strtod_l+0x8de>
 80058d0:	0d1b      	lsrs	r3, r3, #20
 80058d2:	f1c3 036b 	rsb	r3, r3, #107	; 0x6b
 80058d6:	fa02 f303 	lsl.w	r3, r2, r3
 80058da:	4299      	cmp	r1, r3
 80058dc:	d118      	bne.n	8005910 <_strtod_l+0x8e8>
 80058de:	4b96      	ldr	r3, [pc, #600]	; (8005b38 <_strtod_l+0xb10>)
 80058e0:	459a      	cmp	sl, r3
 80058e2:	d102      	bne.n	80058ea <_strtod_l+0x8c2>
 80058e4:	3101      	adds	r1, #1
 80058e6:	f43f addd 	beq.w	80054a4 <_strtod_l+0x47c>
 80058ea:	f04f 0800 	mov.w	r8, #0
 80058ee:	4b91      	ldr	r3, [pc, #580]	; (8005b34 <_strtod_l+0xb0c>)
 80058f0:	ea0a 0303 	and.w	r3, sl, r3
 80058f4:	f503 1980 	add.w	r9, r3, #1048576	; 0x100000
 80058f8:	9b05      	ldr	r3, [sp, #20]
 80058fa:	2b00      	cmp	r3, #0
 80058fc:	d19a      	bne.n	8005834 <_strtod_l+0x80c>
 80058fe:	e5db      	b.n	80054b8 <_strtod_l+0x490>
 8005900:	f04f 33ff 	mov.w	r3, #4294967295
 8005904:	e7e9      	b.n	80058da <_strtod_l+0x8b2>
 8005906:	4613      	mov	r3, r2
 8005908:	e7e7      	b.n	80058da <_strtod_l+0x8b2>
 800590a:	ea53 0308 	orrs.w	r3, r3, r8
 800590e:	d081      	beq.n	8005814 <_strtod_l+0x7ec>
 8005910:	9b10      	ldr	r3, [sp, #64]	; 0x40
 8005912:	b1e3      	cbz	r3, 800594e <_strtod_l+0x926>
 8005914:	ea13 0f0a 	tst.w	r3, sl
 8005918:	d0ee      	beq.n	80058f8 <_strtod_l+0x8d0>
 800591a:	9b0a      	ldr	r3, [sp, #40]	; 0x28
 800591c:	4640      	mov	r0, r8
 800591e:	4649      	mov	r1, r9
 8005920:	9a05      	ldr	r2, [sp, #20]
 8005922:	b1c3      	cbz	r3, 8005956 <_strtod_l+0x92e>
 8005924:	f7ff fb5c 	bl	8004fe0 <sulp>
 8005928:	4602      	mov	r2, r0
 800592a:	460b      	mov	r3, r1
 800592c:	980c      	ldr	r0, [sp, #48]	; 0x30
 800592e:	990f      	ldr	r1, [sp, #60]	; 0x3c
 8005930:	f7fa fc1c 	bl	800016c <__adddf3>
 8005934:	4680      	mov	r8, r0
 8005936:	4689      	mov	r9, r1
 8005938:	e7de      	b.n	80058f8 <_strtod_l+0x8d0>
 800593a:	4013      	ands	r3, r2
 800593c:	f5a3 1380 	sub.w	r3, r3, #1048576	; 0x100000
 8005940:	ea6f 5913 	mvn.w	r9, r3, lsr #20
 8005944:	f04f 38ff 	mov.w	r8, #4294967295
 8005948:	ea6f 5909 	mvn.w	r9, r9, lsl #20
 800594c:	e7d4      	b.n	80058f8 <_strtod_l+0x8d0>
 800594e:	9b13      	ldr	r3, [sp, #76]	; 0x4c
 8005950:	ea13 0f08 	tst.w	r3, r8
 8005954:	e7e0      	b.n	8005918 <_strtod_l+0x8f0>
 8005956:	f7ff fb43 	bl	8004fe0 <sulp>
 800595a:	4602      	mov	r2, r0
 800595c:	460b      	mov	r3, r1
 800595e:	980c      	ldr	r0, [sp, #48]	; 0x30
 8005960:	990f      	ldr	r1, [sp, #60]	; 0x3c
 8005962:	f7fa fc01 	bl	8000168 <__aeabi_dsub>
 8005966:	2200      	movs	r2, #0
 8005968:	2300      	movs	r3, #0
 800596a:	4680      	mov	r8, r0
 800596c:	4689      	mov	r9, r1
 800596e:	f7fb f81b 	bl	80009a8 <__aeabi_dcmpeq>
 8005972:	2800      	cmp	r0, #0
 8005974:	d0c0      	beq.n	80058f8 <_strtod_l+0x8d0>
 8005976:	e606      	b.n	8005586 <_strtod_l+0x55e>
 8005978:	4659      	mov	r1, fp
 800597a:	4630      	mov	r0, r6
 800597c:	f7ff fabe 	bl	8004efc <__ratio>
 8005980:	4602      	mov	r2, r0
 8005982:	460b      	mov	r3, r1
 8005984:	e9cd 2310 	strd	r2, r3, [sp, #64]	; 0x40
 8005988:	2200      	movs	r2, #0
 800598a:	f04f 4380 	mov.w	r3, #1073741824	; 0x40000000
 800598e:	f7fb f81f 	bl	80009d0 <__aeabi_dcmple>
 8005992:	2800      	cmp	r0, #0
 8005994:	d06f      	beq.n	8005a76 <_strtod_l+0xa4e>
 8005996:	9b0a      	ldr	r3, [sp, #40]	; 0x28
 8005998:	2b00      	cmp	r3, #0
 800599a:	d17c      	bne.n	8005a96 <_strtod_l+0xa6e>
 800599c:	f1b8 0f00 	cmp.w	r8, #0
 80059a0:	d159      	bne.n	8005a56 <_strtod_l+0xa2e>
 80059a2:	f3c9 0313 	ubfx	r3, r9, #0, #20
 80059a6:	2b00      	cmp	r3, #0
 80059a8:	d17b      	bne.n	8005aa2 <_strtod_l+0xa7a>
 80059aa:	e9dd 0110 	ldrd	r0, r1, [sp, #64]	; 0x40
 80059ae:	2200      	movs	r2, #0
 80059b0:	4b62      	ldr	r3, [pc, #392]	; (8005b3c <_strtod_l+0xb14>)
 80059b2:	f7fb f803 	bl	80009bc <__aeabi_dcmplt>
 80059b6:	2800      	cmp	r0, #0
 80059b8:	d15a      	bne.n	8005a70 <_strtod_l+0xa48>
 80059ba:	e9dd 0110 	ldrd	r0, r1, [sp, #64]	; 0x40
 80059be:	2200      	movs	r2, #0
 80059c0:	4b5f      	ldr	r3, [pc, #380]	; (8005b40 <_strtod_l+0xb18>)
 80059c2:	f7fa fd89 	bl	80004d8 <__aeabi_dmul>
 80059c6:	4605      	mov	r5, r0
 80059c8:	460f      	mov	r7, r1
 80059ca:	f107 4300 	add.w	r3, r7, #2147483648	; 0x80000000
 80059ce:	9506      	str	r5, [sp, #24]
 80059d0:	9307      	str	r3, [sp, #28]
 80059d2:	e9dd 2306 	ldrd	r2, r3, [sp, #24]
 80059d6:	e9cd 2310 	strd	r2, r3, [sp, #64]	; 0x40
 80059da:	4b56      	ldr	r3, [pc, #344]	; (8005b34 <_strtod_l+0xb0c>)
 80059dc:	4a55      	ldr	r2, [pc, #340]	; (8005b34 <_strtod_l+0xb0c>)
 80059de:	ea0a 0303 	and.w	r3, sl, r3
 80059e2:	9313      	str	r3, [sp, #76]	; 0x4c
 80059e4:	4b57      	ldr	r3, [pc, #348]	; (8005b44 <_strtod_l+0xb1c>)
 80059e6:	ea0a 0202 	and.w	r2, sl, r2
 80059ea:	429a      	cmp	r2, r3
 80059ec:	f040 80b0 	bne.w	8005b50 <_strtod_l+0xb28>
 80059f0:	f1aa 7954 	sub.w	r9, sl, #55574528	; 0x3500000
 80059f4:	4640      	mov	r0, r8
 80059f6:	4649      	mov	r1, r9
 80059f8:	f7ff f9c2 	bl	8004d80 <__ulp>
 80059fc:	e9dd 2306 	ldrd	r2, r3, [sp, #24]
 8005a00:	f7fa fd6a 	bl	80004d8 <__aeabi_dmul>
 8005a04:	4642      	mov	r2, r8
 8005a06:	464b      	mov	r3, r9
 8005a08:	f7fa fbb0 	bl	800016c <__adddf3>
 8005a0c:	f8df a124 	ldr.w	sl, [pc, #292]	; 8005b34 <_strtod_l+0xb0c>
 8005a10:	4a4d      	ldr	r2, [pc, #308]	; (8005b48 <_strtod_l+0xb20>)
 8005a12:	ea01 0a0a 	and.w	sl, r1, sl
 8005a16:	4592      	cmp	sl, r2
 8005a18:	4680      	mov	r8, r0
 8005a1a:	d948      	bls.n	8005aae <_strtod_l+0xa86>
 8005a1c:	9a0f      	ldr	r2, [sp, #60]	; 0x3c
 8005a1e:	4b46      	ldr	r3, [pc, #280]	; (8005b38 <_strtod_l+0xb10>)
 8005a20:	429a      	cmp	r2, r3
 8005a22:	d103      	bne.n	8005a2c <_strtod_l+0xa04>
 8005a24:	9b0c      	ldr	r3, [sp, #48]	; 0x30
 8005a26:	3301      	adds	r3, #1
 8005a28:	f43f ad3c 	beq.w	80054a4 <_strtod_l+0x47c>
 8005a2c:	f04f 38ff 	mov.w	r8, #4294967295
 8005a30:	f8df 9104 	ldr.w	r9, [pc, #260]	; 8005b38 <_strtod_l+0xb10>
 8005a34:	4620      	mov	r0, r4
 8005a36:	991a      	ldr	r1, [sp, #104]	; 0x68
 8005a38:	f7fe fe76 	bl	8004728 <_Bfree>
 8005a3c:	4620      	mov	r0, r4
 8005a3e:	9908      	ldr	r1, [sp, #32]
 8005a40:	f7fe fe72 	bl	8004728 <_Bfree>
 8005a44:	4659      	mov	r1, fp
 8005a46:	4620      	mov	r0, r4
 8005a48:	f7fe fe6e 	bl	8004728 <_Bfree>
 8005a4c:	4631      	mov	r1, r6
 8005a4e:	4620      	mov	r0, r4
 8005a50:	f7fe fe6a 	bl	8004728 <_Bfree>
 8005a54:	e605      	b.n	8005662 <_strtod_l+0x63a>
 8005a56:	f1b8 0f01 	cmp.w	r8, #1
 8005a5a:	d103      	bne.n	8005a64 <_strtod_l+0xa3c>
 8005a5c:	f1b9 0f00 	cmp.w	r9, #0
 8005a60:	f43f ad91 	beq.w	8005586 <_strtod_l+0x55e>
 8005a64:	2200      	movs	r2, #0
 8005a66:	4b39      	ldr	r3, [pc, #228]	; (8005b4c <_strtod_l+0xb24>)
 8005a68:	9d0a      	ldr	r5, [sp, #40]	; 0x28
 8005a6a:	e9cd 2306 	strd	r2, r3, [sp, #24]
 8005a6e:	e016      	b.n	8005a9e <_strtod_l+0xa76>
 8005a70:	9d0a      	ldr	r5, [sp, #40]	; 0x28
 8005a72:	4f33      	ldr	r7, [pc, #204]	; (8005b40 <_strtod_l+0xb18>)
 8005a74:	e7a9      	b.n	80059ca <_strtod_l+0x9a2>
 8005a76:	4b32      	ldr	r3, [pc, #200]	; (8005b40 <_strtod_l+0xb18>)
 8005a78:	2200      	movs	r2, #0
 8005a7a:	e9dd 0110 	ldrd	r0, r1, [sp, #64]	; 0x40
 8005a7e:	f7fa fd2b 	bl	80004d8 <__aeabi_dmul>
 8005a82:	9b0a      	ldr	r3, [sp, #40]	; 0x28
 8005a84:	4605      	mov	r5, r0
 8005a86:	460f      	mov	r7, r1
 8005a88:	2b00      	cmp	r3, #0
 8005a8a:	d09e      	beq.n	80059ca <_strtod_l+0x9a2>
 8005a8c:	4602      	mov	r2, r0
 8005a8e:	460b      	mov	r3, r1
 8005a90:	e9cd 2306 	strd	r2, r3, [sp, #24]
 8005a94:	e79d      	b.n	80059d2 <_strtod_l+0x9aa>
 8005a96:	2200      	movs	r2, #0
 8005a98:	4b28      	ldr	r3, [pc, #160]	; (8005b3c <_strtod_l+0xb14>)
 8005a9a:	e9cd 2306 	strd	r2, r3, [sp, #24]
 8005a9e:	4f27      	ldr	r7, [pc, #156]	; (8005b3c <_strtod_l+0xb14>)
 8005aa0:	e797      	b.n	80059d2 <_strtod_l+0x9aa>
 8005aa2:	2200      	movs	r2, #0
 8005aa4:	4b29      	ldr	r3, [pc, #164]	; (8005b4c <_strtod_l+0xb24>)
 8005aa6:	4645      	mov	r5, r8
 8005aa8:	e9cd 2306 	strd	r2, r3, [sp, #24]
 8005aac:	e7f7      	b.n	8005a9e <_strtod_l+0xa76>
 8005aae:	f101 7954 	add.w	r9, r1, #55574528	; 0x3500000
 8005ab2:	9b05      	ldr	r3, [sp, #20]
 8005ab4:	46ca      	mov	sl, r9
 8005ab6:	2b00      	cmp	r3, #0
 8005ab8:	d1bc      	bne.n	8005a34 <_strtod_l+0xa0c>
 8005aba:	f029 4300 	bic.w	r3, r9, #2147483648	; 0x80000000
 8005abe:	9a13      	ldr	r2, [sp, #76]	; 0x4c
 8005ac0:	0d1b      	lsrs	r3, r3, #20
 8005ac2:	051b      	lsls	r3, r3, #20
 8005ac4:	429a      	cmp	r2, r3
 8005ac6:	d1b5      	bne.n	8005a34 <_strtod_l+0xa0c>
 8005ac8:	4628      	mov	r0, r5
 8005aca:	4639      	mov	r1, r7
 8005acc:	f7fb f84c 	bl	8000b68 <__aeabi_d2lz>
 8005ad0:	f7fa fcd4 	bl	800047c <__aeabi_l2d>
 8005ad4:	4602      	mov	r2, r0
 8005ad6:	460b      	mov	r3, r1
 8005ad8:	4628      	mov	r0, r5
 8005ada:	4639      	mov	r1, r7
 8005adc:	f7fa fb44 	bl	8000168 <__aeabi_dsub>
 8005ae0:	460b      	mov	r3, r1
 8005ae2:	4602      	mov	r2, r0
 8005ae4:	f3c9 0a13 	ubfx	sl, r9, #0, #20
 8005ae8:	e9cd 230c 	strd	r2, r3, [sp, #48]	; 0x30
 8005aec:	9b0a      	ldr	r3, [sp, #40]	; 0x28
 8005aee:	ea4a 0a08 	orr.w	sl, sl, r8
 8005af2:	ea5a 0a03 	orrs.w	sl, sl, r3
 8005af6:	d06c      	beq.n	8005bd2 <_strtod_l+0xbaa>
 8005af8:	a309      	add	r3, pc, #36	; (adr r3, 8005b20 <_strtod_l+0xaf8>)
 8005afa:	e9d3 2300 	ldrd	r2, r3, [r3]
 8005afe:	f7fa ff5d 	bl	80009bc <__aeabi_dcmplt>
 8005b02:	2800      	cmp	r0, #0
 8005b04:	f47f acd8 	bne.w	80054b8 <_strtod_l+0x490>
 8005b08:	a307      	add	r3, pc, #28	; (adr r3, 8005b28 <_strtod_l+0xb00>)
 8005b0a:	e9d3 2300 	ldrd	r2, r3, [r3]
 8005b0e:	e9dd 010c 	ldrd	r0, r1, [sp, #48]	; 0x30
 8005b12:	f7fa ff71 	bl	80009f8 <__aeabi_dcmpgt>
 8005b16:	2800      	cmp	r0, #0
 8005b18:	d08c      	beq.n	8005a34 <_strtod_l+0xa0c>
 8005b1a:	e4cd      	b.n	80054b8 <_strtod_l+0x490>
 8005b1c:	f3af 8000 	nop.w
 8005b20:	94a03595 	.word	0x94a03595
 8005b24:	3fdfffff 	.word	0x3fdfffff
 8005b28:	35afe535 	.word	0x35afe535
 8005b2c:	3fe00000 	.word	0x3fe00000
 8005b30:	000fffff 	.word	0x000fffff
 8005b34:	7ff00000 	.word	0x7ff00000
 8005b38:	7fefffff 	.word	0x7fefffff
 8005b3c:	3ff00000 	.word	0x3ff00000
 8005b40:	3fe00000 	.word	0x3fe00000
 8005b44:	7fe00000 	.word	0x7fe00000
 8005b48:	7c9fffff 	.word	0x7c9fffff
 8005b4c:	bff00000 	.word	0xbff00000
 8005b50:	9b05      	ldr	r3, [sp, #20]
 8005b52:	b333      	cbz	r3, 8005ba2 <_strtod_l+0xb7a>
 8005b54:	9b13      	ldr	r3, [sp, #76]	; 0x4c
 8005b56:	f1b3 6fd4 	cmp.w	r3, #111149056	; 0x6a00000
 8005b5a:	d822      	bhi.n	8005ba2 <_strtod_l+0xb7a>
 8005b5c:	a328      	add	r3, pc, #160	; (adr r3, 8005c00 <_strtod_l+0xbd8>)
 8005b5e:	e9d3 2300 	ldrd	r2, r3, [r3]
 8005b62:	4628      	mov	r0, r5
 8005b64:	4639      	mov	r1, r7
 8005b66:	f7fa ff33 	bl	80009d0 <__aeabi_dcmple>
 8005b6a:	b1a0      	cbz	r0, 8005b96 <_strtod_l+0xb6e>
 8005b6c:	4639      	mov	r1, r7
 8005b6e:	4628      	mov	r0, r5
 8005b70:	f7fa ff8a 	bl	8000a88 <__aeabi_d2uiz>
 8005b74:	2801      	cmp	r0, #1
 8005b76:	bf38      	it	cc
 8005b78:	2001      	movcc	r0, #1
 8005b7a:	f7fa fc33 	bl	80003e4 <__aeabi_ui2d>
 8005b7e:	9b0a      	ldr	r3, [sp, #40]	; 0x28
 8005b80:	4605      	mov	r5, r0
 8005b82:	460f      	mov	r7, r1
 8005b84:	bb03      	cbnz	r3, 8005bc8 <_strtod_l+0xba0>
 8005b86:	f101 4300 	add.w	r3, r1, #2147483648	; 0x80000000
 8005b8a:	9014      	str	r0, [sp, #80]	; 0x50
 8005b8c:	9315      	str	r3, [sp, #84]	; 0x54
 8005b8e:	e9dd 2314 	ldrd	r2, r3, [sp, #80]	; 0x50
 8005b92:	e9cd 2310 	strd	r2, r3, [sp, #64]	; 0x40
 8005b96:	9b11      	ldr	r3, [sp, #68]	; 0x44
 8005b98:	9a13      	ldr	r2, [sp, #76]	; 0x4c
 8005b9a:	f103 63d6 	add.w	r3, r3, #112197632	; 0x6b00000
 8005b9e:	1a9b      	subs	r3, r3, r2
 8005ba0:	9311      	str	r3, [sp, #68]	; 0x44
 8005ba2:	980c      	ldr	r0, [sp, #48]	; 0x30
 8005ba4:	990f      	ldr	r1, [sp, #60]	; 0x3c
 8005ba6:	e9dd 8910 	ldrd	r8, r9, [sp, #64]	; 0x40
 8005baa:	f7ff f8e9 	bl	8004d80 <__ulp>
 8005bae:	4602      	mov	r2, r0
 8005bb0:	460b      	mov	r3, r1
 8005bb2:	4640      	mov	r0, r8
 8005bb4:	4649      	mov	r1, r9
 8005bb6:	f7fa fc8f 	bl	80004d8 <__aeabi_dmul>
 8005bba:	9a0c      	ldr	r2, [sp, #48]	; 0x30
 8005bbc:	9b0f      	ldr	r3, [sp, #60]	; 0x3c
 8005bbe:	f7fa fad5 	bl	800016c <__adddf3>
 8005bc2:	4680      	mov	r8, r0
 8005bc4:	4689      	mov	r9, r1
 8005bc6:	e774      	b.n	8005ab2 <_strtod_l+0xa8a>
 8005bc8:	4602      	mov	r2, r0
 8005bca:	460b      	mov	r3, r1
 8005bcc:	e9cd 2314 	strd	r2, r3, [sp, #80]	; 0x50
 8005bd0:	e7dd      	b.n	8005b8e <_strtod_l+0xb66>
 8005bd2:	a30d      	add	r3, pc, #52	; (adr r3, 8005c08 <_strtod_l+0xbe0>)
 8005bd4:	e9d3 2300 	ldrd	r2, r3, [r3]
 8005bd8:	f7fa fef0 	bl	80009bc <__aeabi_dcmplt>
 8005bdc:	e79b      	b.n	8005b16 <_strtod_l+0xaee>
 8005bde:	2300      	movs	r3, #0
 8005be0:	930e      	str	r3, [sp, #56]	; 0x38
 8005be2:	9b19      	ldr	r3, [sp, #100]	; 0x64
 8005be4:	9a17      	ldr	r2, [sp, #92]	; 0x5c
 8005be6:	6013      	str	r3, [r2, #0]
 8005be8:	f7ff ba5b 	b.w	80050a2 <_strtod_l+0x7a>
 8005bec:	2a65      	cmp	r2, #101	; 0x65
 8005bee:	f43f ab52 	beq.w	8005296 <_strtod_l+0x26e>
 8005bf2:	2a45      	cmp	r2, #69	; 0x45
 8005bf4:	f43f ab4f 	beq.w	8005296 <_strtod_l+0x26e>
 8005bf8:	2301      	movs	r3, #1
 8005bfa:	f7ff bb87 	b.w	800530c <_strtod_l+0x2e4>
 8005bfe:	bf00      	nop
 8005c00:	ffc00000 	.word	0xffc00000
 8005c04:	41dfffff 	.word	0x41dfffff
 8005c08:	94a03595 	.word	0x94a03595
 8005c0c:	3fcfffff 	.word	0x3fcfffff

08005c10 <_strtod_r>:
 8005c10:	4b01      	ldr	r3, [pc, #4]	; (8005c18 <_strtod_r+0x8>)
 8005c12:	f7ff ba09 	b.w	8005028 <_strtod_l>
 8005c16:	bf00      	nop
 8005c18:	20000084 	.word	0x20000084

08005c1c <_strtol_l.constprop.0>:
 8005c1c:	2b01      	cmp	r3, #1
 8005c1e:	e92d 47f0 	stmdb	sp!, {r4, r5, r6, r7, r8, r9, sl, lr}
 8005c22:	4686      	mov	lr, r0
 8005c24:	4690      	mov	r8, r2
 8005c26:	d001      	beq.n	8005c2c <_strtol_l.constprop.0+0x10>
 8005c28:	2b24      	cmp	r3, #36	; 0x24
 8005c2a:	d906      	bls.n	8005c3a <_strtol_l.constprop.0+0x1e>
 8005c2c:	f7fd fd90 	bl	8003750 <__errno>
 8005c30:	2316      	movs	r3, #22
 8005c32:	6003      	str	r3, [r0, #0]
 8005c34:	2000      	movs	r0, #0
 8005c36:	e8bd 87f0 	ldmia.w	sp!, {r4, r5, r6, r7, r8, r9, sl, pc}
 8005c3a:	460d      	mov	r5, r1
 8005c3c:	4835      	ldr	r0, [pc, #212]	; (8005d14 <_strtol_l.constprop.0+0xf8>)
 8005c3e:	462a      	mov	r2, r5
 8005c40:	f815 4b01 	ldrb.w	r4, [r5], #1
 8005c44:	5d06      	ldrb	r6, [r0, r4]
 8005c46:	f016 0608 	ands.w	r6, r6, #8
 8005c4a:	d1f8      	bne.n	8005c3e <_strtol_l.constprop.0+0x22>
 8005c4c:	2c2d      	cmp	r4, #45	; 0x2d
 8005c4e:	d12e      	bne.n	8005cae <_strtol_l.constprop.0+0x92>
 8005c50:	2601      	movs	r6, #1
 8005c52:	782c      	ldrb	r4, [r5, #0]
 8005c54:	1c95      	adds	r5, r2, #2
 8005c56:	2b00      	cmp	r3, #0
 8005c58:	d057      	beq.n	8005d0a <_strtol_l.constprop.0+0xee>
 8005c5a:	2b10      	cmp	r3, #16
 8005c5c:	d109      	bne.n	8005c72 <_strtol_l.constprop.0+0x56>
 8005c5e:	2c30      	cmp	r4, #48	; 0x30
 8005c60:	d107      	bne.n	8005c72 <_strtol_l.constprop.0+0x56>
 8005c62:	782a      	ldrb	r2, [r5, #0]
 8005c64:	f002 02df 	and.w	r2, r2, #223	; 0xdf
 8005c68:	2a58      	cmp	r2, #88	; 0x58
 8005c6a:	d149      	bne.n	8005d00 <_strtol_l.constprop.0+0xe4>
 8005c6c:	2310      	movs	r3, #16
 8005c6e:	786c      	ldrb	r4, [r5, #1]
 8005c70:	3502      	adds	r5, #2
 8005c72:	2200      	movs	r2, #0
 8005c74:	f106 4c00 	add.w	ip, r6, #2147483648	; 0x80000000
 8005c78:	f10c 3cff 	add.w	ip, ip, #4294967295
 8005c7c:	fbbc f9f3 	udiv	r9, ip, r3
 8005c80:	4610      	mov	r0, r2
 8005c82:	fb03 ca19 	mls	sl, r3, r9, ip
 8005c86:	f1a4 0730 	sub.w	r7, r4, #48	; 0x30
 8005c8a:	2f09      	cmp	r7, #9
 8005c8c:	d814      	bhi.n	8005cb8 <_strtol_l.constprop.0+0x9c>
 8005c8e:	463c      	mov	r4, r7
 8005c90:	42a3      	cmp	r3, r4
 8005c92:	dd20      	ble.n	8005cd6 <_strtol_l.constprop.0+0xba>
 8005c94:	1c57      	adds	r7, r2, #1
 8005c96:	d007      	beq.n	8005ca8 <_strtol_l.constprop.0+0x8c>
 8005c98:	4581      	cmp	r9, r0
 8005c9a:	d319      	bcc.n	8005cd0 <_strtol_l.constprop.0+0xb4>
 8005c9c:	d101      	bne.n	8005ca2 <_strtol_l.constprop.0+0x86>
 8005c9e:	45a2      	cmp	sl, r4
 8005ca0:	db16      	blt.n	8005cd0 <_strtol_l.constprop.0+0xb4>
 8005ca2:	2201      	movs	r2, #1
 8005ca4:	fb00 4003 	mla	r0, r0, r3, r4
 8005ca8:	f815 4b01 	ldrb.w	r4, [r5], #1
 8005cac:	e7eb      	b.n	8005c86 <_strtol_l.constprop.0+0x6a>
 8005cae:	2c2b      	cmp	r4, #43	; 0x2b
 8005cb0:	bf04      	itt	eq
 8005cb2:	782c      	ldrbeq	r4, [r5, #0]
 8005cb4:	1c95      	addeq	r5, r2, #2
 8005cb6:	e7ce      	b.n	8005c56 <_strtol_l.constprop.0+0x3a>
 8005cb8:	f1a4 0741 	sub.w	r7, r4, #65	; 0x41
 8005cbc:	2f19      	cmp	r7, #25
 8005cbe:	d801      	bhi.n	8005cc4 <_strtol_l.constprop.0+0xa8>
 8005cc0:	3c37      	subs	r4, #55	; 0x37
 8005cc2:	e7e5      	b.n	8005c90 <_strtol_l.constprop.0+0x74>
 8005cc4:	f1a4 0761 	sub.w	r7, r4, #97	; 0x61
 8005cc8:	2f19      	cmp	r7, #25
 8005cca:	d804      	bhi.n	8005cd6 <_strtol_l.constprop.0+0xba>
 8005ccc:	3c57      	subs	r4, #87	; 0x57
 8005cce:	e7df      	b.n	8005c90 <_strtol_l.constprop.0+0x74>
 8005cd0:	f04f 32ff 	mov.w	r2, #4294967295
 8005cd4:	e7e8      	b.n	8005ca8 <_strtol_l.constprop.0+0x8c>
 8005cd6:	1c53      	adds	r3, r2, #1
 8005cd8:	d108      	bne.n	8005cec <_strtol_l.constprop.0+0xd0>
 8005cda:	2322      	movs	r3, #34	; 0x22
 8005cdc:	4660      	mov	r0, ip
 8005cde:	f8ce 3000 	str.w	r3, [lr]
 8005ce2:	f1b8 0f00 	cmp.w	r8, #0
 8005ce6:	d0a6      	beq.n	8005c36 <_strtol_l.constprop.0+0x1a>
 8005ce8:	1e69      	subs	r1, r5, #1
 8005cea:	e006      	b.n	8005cfa <_strtol_l.constprop.0+0xde>
 8005cec:	b106      	cbz	r6, 8005cf0 <_strtol_l.constprop.0+0xd4>
 8005cee:	4240      	negs	r0, r0
 8005cf0:	f1b8 0f00 	cmp.w	r8, #0
 8005cf4:	d09f      	beq.n	8005c36 <_strtol_l.constprop.0+0x1a>
 8005cf6:	2a00      	cmp	r2, #0
 8005cf8:	d1f6      	bne.n	8005ce8 <_strtol_l.constprop.0+0xcc>
 8005cfa:	f8c8 1000 	str.w	r1, [r8]
 8005cfe:	e79a      	b.n	8005c36 <_strtol_l.constprop.0+0x1a>
 8005d00:	2430      	movs	r4, #48	; 0x30
 8005d02:	2b00      	cmp	r3, #0
 8005d04:	d1b5      	bne.n	8005c72 <_strtol_l.constprop.0+0x56>
 8005d06:	2308      	movs	r3, #8
 8005d08:	e7b3      	b.n	8005c72 <_strtol_l.constprop.0+0x56>
 8005d0a:	2c30      	cmp	r4, #48	; 0x30
 8005d0c:	d0a9      	beq.n	8005c62 <_strtol_l.constprop.0+0x46>
 8005d0e:	230a      	movs	r3, #10
 8005d10:	e7af      	b.n	8005c72 <_strtol_l.constprop.0+0x56>
 8005d12:	bf00      	nop
 8005d14:	08007139 	.word	0x08007139

08005d18 <_strtol_r>:
 8005d18:	f7ff bf80 	b.w	8005c1c <_strtol_l.constprop.0>

08005d1c <__ssputs_r>:
 8005d1c:	e92d 47f0 	stmdb	sp!, {r4, r5, r6, r7, r8, r9, sl, lr}
 8005d20:	461f      	mov	r7, r3
 8005d22:	688e      	ldr	r6, [r1, #8]
 8005d24:	4682      	mov	sl, r0
 8005d26:	42be      	cmp	r6, r7
 8005d28:	460c      	mov	r4, r1
 8005d2a:	4690      	mov	r8, r2
 8005d2c:	680b      	ldr	r3, [r1, #0]
 8005d2e:	d82c      	bhi.n	8005d8a <__ssputs_r+0x6e>
 8005d30:	898a      	ldrh	r2, [r1, #12]
 8005d32:	f412 6f90 	tst.w	r2, #1152	; 0x480
 8005d36:	d026      	beq.n	8005d86 <__ssputs_r+0x6a>
 8005d38:	6965      	ldr	r5, [r4, #20]
 8005d3a:	6909      	ldr	r1, [r1, #16]
 8005d3c:	eb05 0545 	add.w	r5, r5, r5, lsl #1
 8005d40:	eba3 0901 	sub.w	r9, r3, r1
 8005d44:	eb05 75d5 	add.w	r5, r5, r5, lsr #31
 8005d48:	1c7b      	adds	r3, r7, #1
 8005d4a:	444b      	add	r3, r9
 8005d4c:	106d      	asrs	r5, r5, #1
 8005d4e:	429d      	cmp	r5, r3
 8005d50:	bf38      	it	cc
 8005d52:	461d      	movcc	r5, r3
 8005d54:	0553      	lsls	r3, r2, #21
 8005d56:	d527      	bpl.n	8005da8 <__ssputs_r+0x8c>
 8005d58:	4629      	mov	r1, r5
 8005d5a:	f7fe fc19 	bl	8004590 <_malloc_r>
 8005d5e:	4606      	mov	r6, r0
 8005d60:	b360      	cbz	r0, 8005dbc <__ssputs_r+0xa0>
 8005d62:	464a      	mov	r2, r9
 8005d64:	6921      	ldr	r1, [r4, #16]
 8005d66:	f000 fbdd 	bl	8006524 <memcpy>
 8005d6a:	89a3      	ldrh	r3, [r4, #12]
 8005d6c:	f423 6390 	bic.w	r3, r3, #1152	; 0x480
 8005d70:	f043 0380 	orr.w	r3, r3, #128	; 0x80
 8005d74:	81a3      	strh	r3, [r4, #12]
 8005d76:	6126      	str	r6, [r4, #16]
 8005d78:	444e      	add	r6, r9
 8005d7a:	6026      	str	r6, [r4, #0]
 8005d7c:	463e      	mov	r6, r7
 8005d7e:	6165      	str	r5, [r4, #20]
 8005d80:	eba5 0509 	sub.w	r5, r5, r9
 8005d84:	60a5      	str	r5, [r4, #8]
 8005d86:	42be      	cmp	r6, r7
 8005d88:	d900      	bls.n	8005d8c <__ssputs_r+0x70>
 8005d8a:	463e      	mov	r6, r7
 8005d8c:	4632      	mov	r2, r6
 8005d8e:	4641      	mov	r1, r8
 8005d90:	6820      	ldr	r0, [r4, #0]
 8005d92:	f000 fb68 	bl	8006466 <memmove>
 8005d96:	2000      	movs	r0, #0
 8005d98:	68a3      	ldr	r3, [r4, #8]
 8005d9a:	1b9b      	subs	r3, r3, r6
 8005d9c:	60a3      	str	r3, [r4, #8]
 8005d9e:	6823      	ldr	r3, [r4, #0]
 8005da0:	4433      	add	r3, r6
 8005da2:	6023      	str	r3, [r4, #0]
 8005da4:	e8bd 87f0 	ldmia.w	sp!, {r4, r5, r6, r7, r8, r9, sl, pc}
 8005da8:	462a      	mov	r2, r5
 8005daa:	f000 ff6c 	bl	8006c86 <_realloc_r>
 8005dae:	4606      	mov	r6, r0
 8005db0:	2800      	cmp	r0, #0
 8005db2:	d1e0      	bne.n	8005d76 <__ssputs_r+0x5a>
 8005db4:	4650      	mov	r0, sl
 8005db6:	6921      	ldr	r1, [r4, #16]
 8005db8:	f7fe fb7a 	bl	80044b0 <_free_r>
 8005dbc:	230c      	movs	r3, #12
 8005dbe:	f8ca 3000 	str.w	r3, [sl]
 8005dc2:	89a3      	ldrh	r3, [r4, #12]
 8005dc4:	f04f 30ff 	mov.w	r0, #4294967295
 8005dc8:	f043 0340 	orr.w	r3, r3, #64	; 0x40
 8005dcc:	81a3      	strh	r3, [r4, #12]
 8005dce:	e7e9      	b.n	8005da4 <__ssputs_r+0x88>

08005dd0 <_svfiprintf_r>:
 8005dd0:	e92d 4ff0 	stmdb	sp!, {r4, r5, r6, r7, r8, r9, sl, fp, lr}
 8005dd4:	4698      	mov	r8, r3
 8005dd6:	898b      	ldrh	r3, [r1, #12]
 8005dd8:	4607      	mov	r7, r0
 8005dda:	061b      	lsls	r3, r3, #24
 8005ddc:	460d      	mov	r5, r1
 8005dde:	4614      	mov	r4, r2
 8005de0:	b09d      	sub	sp, #116	; 0x74
 8005de2:	d50e      	bpl.n	8005e02 <_svfiprintf_r+0x32>
 8005de4:	690b      	ldr	r3, [r1, #16]
 8005de6:	b963      	cbnz	r3, 8005e02 <_svfiprintf_r+0x32>
 8005de8:	2140      	movs	r1, #64	; 0x40
 8005dea:	f7fe fbd1 	bl	8004590 <_malloc_r>
 8005dee:	6028      	str	r0, [r5, #0]
 8005df0:	6128      	str	r0, [r5, #16]
 8005df2:	b920      	cbnz	r0, 8005dfe <_svfiprintf_r+0x2e>
 8005df4:	230c      	movs	r3, #12
 8005df6:	603b      	str	r3, [r7, #0]
 8005df8:	f04f 30ff 	mov.w	r0, #4294967295
 8005dfc:	e0d0      	b.n	8005fa0 <_svfiprintf_r+0x1d0>
 8005dfe:	2340      	movs	r3, #64	; 0x40
 8005e00:	616b      	str	r3, [r5, #20]
 8005e02:	2300      	movs	r3, #0
 8005e04:	9309      	str	r3, [sp, #36]	; 0x24
 8005e06:	2320      	movs	r3, #32
 8005e08:	f88d 3029 	strb.w	r3, [sp, #41]	; 0x29
 8005e0c:	2330      	movs	r3, #48	; 0x30
 8005e0e:	f04f 0901 	mov.w	r9, #1
 8005e12:	f8cd 800c 	str.w	r8, [sp, #12]
 8005e16:	f8df 81a0 	ldr.w	r8, [pc, #416]	; 8005fb8 <_svfiprintf_r+0x1e8>
 8005e1a:	f88d 302a 	strb.w	r3, [sp, #42]	; 0x2a
 8005e1e:	4623      	mov	r3, r4
 8005e20:	469a      	mov	sl, r3
 8005e22:	f813 2b01 	ldrb.w	r2, [r3], #1
 8005e26:	b10a      	cbz	r2, 8005e2c <_svfiprintf_r+0x5c>
 8005e28:	2a25      	cmp	r2, #37	; 0x25
 8005e2a:	d1f9      	bne.n	8005e20 <_svfiprintf_r+0x50>
 8005e2c:	ebba 0b04 	subs.w	fp, sl, r4
 8005e30:	d00b      	beq.n	8005e4a <_svfiprintf_r+0x7a>
 8005e32:	465b      	mov	r3, fp
 8005e34:	4622      	mov	r2, r4
 8005e36:	4629      	mov	r1, r5
 8005e38:	4638      	mov	r0, r7
 8005e3a:	f7ff ff6f 	bl	8005d1c <__ssputs_r>
 8005e3e:	3001      	adds	r0, #1
 8005e40:	f000 80a9 	beq.w	8005f96 <_svfiprintf_r+0x1c6>
 8005e44:	9a09      	ldr	r2, [sp, #36]	; 0x24
 8005e46:	445a      	add	r2, fp
 8005e48:	9209      	str	r2, [sp, #36]	; 0x24
 8005e4a:	f89a 3000 	ldrb.w	r3, [sl]
 8005e4e:	2b00      	cmp	r3, #0
 8005e50:	f000 80a1 	beq.w	8005f96 <_svfiprintf_r+0x1c6>
 8005e54:	2300      	movs	r3, #0
 8005e56:	f04f 32ff 	mov.w	r2, #4294967295
 8005e5a:	e9cd 2305 	strd	r2, r3, [sp, #20]
 8005e5e:	f10a 0a01 	add.w	sl, sl, #1
 8005e62:	9304      	str	r3, [sp, #16]
 8005e64:	9307      	str	r3, [sp, #28]
 8005e66:	f88d 3053 	strb.w	r3, [sp, #83]	; 0x53
 8005e6a:	931a      	str	r3, [sp, #104]	; 0x68
 8005e6c:	4654      	mov	r4, sl
 8005e6e:	2205      	movs	r2, #5
 8005e70:	f814 1b01 	ldrb.w	r1, [r4], #1
 8005e74:	4850      	ldr	r0, [pc, #320]	; (8005fb8 <_svfiprintf_r+0x1e8>)
 8005e76:	f7fd fc98 	bl	80037aa <memchr>
 8005e7a:	9a04      	ldr	r2, [sp, #16]
 8005e7c:	b9d8      	cbnz	r0, 8005eb6 <_svfiprintf_r+0xe6>
 8005e7e:	06d0      	lsls	r0, r2, #27
 8005e80:	bf44      	itt	mi
 8005e82:	2320      	movmi	r3, #32
 8005e84:	f88d 3053 	strbmi.w	r3, [sp, #83]	; 0x53
 8005e88:	0711      	lsls	r1, r2, #28
 8005e8a:	bf44      	itt	mi
 8005e8c:	232b      	movmi	r3, #43	; 0x2b
 8005e8e:	f88d 3053 	strbmi.w	r3, [sp, #83]	; 0x53
 8005e92:	f89a 3000 	ldrb.w	r3, [sl]
 8005e96:	2b2a      	cmp	r3, #42	; 0x2a
 8005e98:	d015      	beq.n	8005ec6 <_svfiprintf_r+0xf6>
 8005e9a:	4654      	mov	r4, sl
 8005e9c:	2000      	movs	r0, #0
 8005e9e:	f04f 0c0a 	mov.w	ip, #10
 8005ea2:	9a07      	ldr	r2, [sp, #28]
 8005ea4:	4621      	mov	r1, r4
 8005ea6:	f811 3b01 	ldrb.w	r3, [r1], #1
 8005eaa:	3b30      	subs	r3, #48	; 0x30
 8005eac:	2b09      	cmp	r3, #9
 8005eae:	d94d      	bls.n	8005f4c <_svfiprintf_r+0x17c>
 8005eb0:	b1b0      	cbz	r0, 8005ee0 <_svfiprintf_r+0x110>
 8005eb2:	9207      	str	r2, [sp, #28]
 8005eb4:	e014      	b.n	8005ee0 <_svfiprintf_r+0x110>
 8005eb6:	eba0 0308 	sub.w	r3, r0, r8
 8005eba:	fa09 f303 	lsl.w	r3, r9, r3
 8005ebe:	4313      	orrs	r3, r2
 8005ec0:	46a2      	mov	sl, r4
 8005ec2:	9304      	str	r3, [sp, #16]
 8005ec4:	e7d2      	b.n	8005e6c <_svfiprintf_r+0x9c>
 8005ec6:	9b03      	ldr	r3, [sp, #12]
 8005ec8:	1d19      	adds	r1, r3, #4
 8005eca:	681b      	ldr	r3, [r3, #0]
 8005ecc:	9103      	str	r1, [sp, #12]
 8005ece:	2b00      	cmp	r3, #0
 8005ed0:	bfbb      	ittet	lt
 8005ed2:	425b      	neglt	r3, r3
 8005ed4:	f042 0202 	orrlt.w	r2, r2, #2
 8005ed8:	9307      	strge	r3, [sp, #28]
 8005eda:	9307      	strlt	r3, [sp, #28]
 8005edc:	bfb8      	it	lt
 8005ede:	9204      	strlt	r2, [sp, #16]
 8005ee0:	7823      	ldrb	r3, [r4, #0]
 8005ee2:	2b2e      	cmp	r3, #46	; 0x2e
 8005ee4:	d10c      	bne.n	8005f00 <_svfiprintf_r+0x130>
 8005ee6:	7863      	ldrb	r3, [r4, #1]
 8005ee8:	2b2a      	cmp	r3, #42	; 0x2a
 8005eea:	d134      	bne.n	8005f56 <_svfiprintf_r+0x186>
 8005eec:	9b03      	ldr	r3, [sp, #12]
 8005eee:	3402      	adds	r4, #2
 8005ef0:	1d1a      	adds	r2, r3, #4
 8005ef2:	681b      	ldr	r3, [r3, #0]
 8005ef4:	9203      	str	r2, [sp, #12]
 8005ef6:	2b00      	cmp	r3, #0
 8005ef8:	bfb8      	it	lt
 8005efa:	f04f 33ff 	movlt.w	r3, #4294967295
 8005efe:	9305      	str	r3, [sp, #20]
 8005f00:	f8df a0b8 	ldr.w	sl, [pc, #184]	; 8005fbc <_svfiprintf_r+0x1ec>
 8005f04:	2203      	movs	r2, #3
 8005f06:	4650      	mov	r0, sl
 8005f08:	7821      	ldrb	r1, [r4, #0]
 8005f0a:	f7fd fc4e 	bl	80037aa <memchr>
 8005f0e:	b138      	cbz	r0, 8005f20 <_svfiprintf_r+0x150>
 8005f10:	2240      	movs	r2, #64	; 0x40
 8005f12:	9b04      	ldr	r3, [sp, #16]
 8005f14:	eba0 000a 	sub.w	r0, r0, sl
 8005f18:	4082      	lsls	r2, r0
 8005f1a:	4313      	orrs	r3, r2
 8005f1c:	3401      	adds	r4, #1
 8005f1e:	9304      	str	r3, [sp, #16]
 8005f20:	f814 1b01 	ldrb.w	r1, [r4], #1
 8005f24:	2206      	movs	r2, #6
 8005f26:	4826      	ldr	r0, [pc, #152]	; (8005fc0 <_svfiprintf_r+0x1f0>)
 8005f28:	f88d 1028 	strb.w	r1, [sp, #40]	; 0x28
 8005f2c:	f7fd fc3d 	bl	80037aa <memchr>
 8005f30:	2800      	cmp	r0, #0
 8005f32:	d038      	beq.n	8005fa6 <_svfiprintf_r+0x1d6>
 8005f34:	4b23      	ldr	r3, [pc, #140]	; (8005fc4 <_svfiprintf_r+0x1f4>)
 8005f36:	bb1b      	cbnz	r3, 8005f80 <_svfiprintf_r+0x1b0>
 8005f38:	9b03      	ldr	r3, [sp, #12]
 8005f3a:	3307      	adds	r3, #7
 8005f3c:	f023 0307 	bic.w	r3, r3, #7
 8005f40:	3308      	adds	r3, #8
 8005f42:	9303      	str	r3, [sp, #12]
 8005f44:	9b09      	ldr	r3, [sp, #36]	; 0x24
 8005f46:	4433      	add	r3, r6
 8005f48:	9309      	str	r3, [sp, #36]	; 0x24
 8005f4a:	e768      	b.n	8005e1e <_svfiprintf_r+0x4e>
 8005f4c:	460c      	mov	r4, r1
 8005f4e:	2001      	movs	r0, #1
 8005f50:	fb0c 3202 	mla	r2, ip, r2, r3
 8005f54:	e7a6      	b.n	8005ea4 <_svfiprintf_r+0xd4>
 8005f56:	2300      	movs	r3, #0
 8005f58:	f04f 0c0a 	mov.w	ip, #10
 8005f5c:	4619      	mov	r1, r3
 8005f5e:	3401      	adds	r4, #1
 8005f60:	9305      	str	r3, [sp, #20]
 8005f62:	4620      	mov	r0, r4
 8005f64:	f810 2b01 	ldrb.w	r2, [r0], #1
 8005f68:	3a30      	subs	r2, #48	; 0x30
 8005f6a:	2a09      	cmp	r2, #9
 8005f6c:	d903      	bls.n	8005f76 <_svfiprintf_r+0x1a6>
 8005f6e:	2b00      	cmp	r3, #0
 8005f70:	d0c6      	beq.n	8005f00 <_svfiprintf_r+0x130>
 8005f72:	9105      	str	r1, [sp, #20]
 8005f74:	e7c4      	b.n	8005f00 <_svfiprintf_r+0x130>
 8005f76:	4604      	mov	r4, r0
 8005f78:	2301      	movs	r3, #1
 8005f7a:	fb0c 2101 	mla	r1, ip, r1, r2
 8005f7e:	e7f0      	b.n	8005f62 <_svfiprintf_r+0x192>
 8005f80:	ab03      	add	r3, sp, #12
 8005f82:	9300      	str	r3, [sp, #0]
 8005f84:	462a      	mov	r2, r5
 8005f86:	4638      	mov	r0, r7
 8005f88:	4b0f      	ldr	r3, [pc, #60]	; (8005fc8 <_svfiprintf_r+0x1f8>)
 8005f8a:	a904      	add	r1, sp, #16
 8005f8c:	f7fc fb96 	bl	80026bc <_printf_float>
 8005f90:	1c42      	adds	r2, r0, #1
 8005f92:	4606      	mov	r6, r0
 8005f94:	d1d6      	bne.n	8005f44 <_svfiprintf_r+0x174>
 8005f96:	89ab      	ldrh	r3, [r5, #12]
 8005f98:	065b      	lsls	r3, r3, #25
 8005f9a:	f53f af2d 	bmi.w	8005df8 <_svfiprintf_r+0x28>
 8005f9e:	9809      	ldr	r0, [sp, #36]	; 0x24
 8005fa0:	b01d      	add	sp, #116	; 0x74
 8005fa2:	e8bd 8ff0 	ldmia.w	sp!, {r4, r5, r6, r7, r8, r9, sl, fp, pc}
 8005fa6:	ab03      	add	r3, sp, #12
 8005fa8:	9300      	str	r3, [sp, #0]
 8005faa:	462a      	mov	r2, r5
 8005fac:	4638      	mov	r0, r7
 8005fae:	4b06      	ldr	r3, [pc, #24]	; (8005fc8 <_svfiprintf_r+0x1f8>)
 8005fb0:	a904      	add	r1, sp, #16
 8005fb2:	f7fc fe23 	bl	8002bfc <_printf_i>
 8005fb6:	e7eb      	b.n	8005f90 <_svfiprintf_r+0x1c0>
 8005fb8:	08007239 	.word	0x08007239
 8005fbc:	0800723f 	.word	0x0800723f
 8005fc0:	08007243 	.word	0x08007243
 8005fc4:	080026bd 	.word	0x080026bd
 8005fc8:	08005d1d 	.word	0x08005d1d

08005fcc <__sfputc_r>:
 8005fcc:	6893      	ldr	r3, [r2, #8]
 8005fce:	b410      	push	{r4}
 8005fd0:	3b01      	subs	r3, #1
 8005fd2:	2b00      	cmp	r3, #0
 8005fd4:	6093      	str	r3, [r2, #8]
 8005fd6:	da07      	bge.n	8005fe8 <__sfputc_r+0x1c>
 8005fd8:	6994      	ldr	r4, [r2, #24]
 8005fda:	42a3      	cmp	r3, r4
 8005fdc:	db01      	blt.n	8005fe2 <__sfputc_r+0x16>
 8005fde:	290a      	cmp	r1, #10
 8005fe0:	d102      	bne.n	8005fe8 <__sfputc_r+0x1c>
 8005fe2:	bc10      	pop	{r4}
 8005fe4:	f7fd bacd 	b.w	8003582 <__swbuf_r>
 8005fe8:	6813      	ldr	r3, [r2, #0]
 8005fea:	1c58      	adds	r0, r3, #1
 8005fec:	6010      	str	r0, [r2, #0]
 8005fee:	7019      	strb	r1, [r3, #0]
 8005ff0:	4608      	mov	r0, r1
 8005ff2:	bc10      	pop	{r4}
 8005ff4:	4770      	bx	lr

08005ff6 <__sfputs_r>:
 8005ff6:	b5f8      	push	{r3, r4, r5, r6, r7, lr}
 8005ff8:	4606      	mov	r6, r0
 8005ffa:	460f      	mov	r7, r1
 8005ffc:	4614      	mov	r4, r2
 8005ffe:	18d5      	adds	r5, r2, r3
 8006000:	42ac      	cmp	r4, r5
 8006002:	d101      	bne.n	8006008 <__sfputs_r+0x12>
 8006004:	2000      	movs	r0, #0
 8006006:	e007      	b.n	8006018 <__sfputs_r+0x22>
 8006008:	463a      	mov	r2, r7
 800600a:	4630      	mov	r0, r6
 800600c:	f814 1b01 	ldrb.w	r1, [r4], #1
 8006010:	f7ff ffdc 	bl	8005fcc <__sfputc_r>
 8006014:	1c43      	adds	r3, r0, #1
 8006016:	d1f3      	bne.n	8006000 <__sfputs_r+0xa>
 8006018:	bdf8      	pop	{r3, r4, r5, r6, r7, pc}
	...

0800601c <_vfiprintf_r>:
 800601c:	e92d 4ff0 	stmdb	sp!, {r4, r5, r6, r7, r8, r9, sl, fp, lr}
 8006020:	460d      	mov	r5, r1
 8006022:	4614      	mov	r4, r2
 8006024:	4698      	mov	r8, r3
 8006026:	4606      	mov	r6, r0
 8006028:	b09d      	sub	sp, #116	; 0x74
 800602a:	b118      	cbz	r0, 8006034 <_vfiprintf_r+0x18>
 800602c:	6a03      	ldr	r3, [r0, #32]
 800602e:	b90b      	cbnz	r3, 8006034 <_vfiprintf_r+0x18>
 8006030:	f7fd f9a0 	bl	8003374 <__sinit>
 8006034:	6e6b      	ldr	r3, [r5, #100]	; 0x64
 8006036:	07d9      	lsls	r1, r3, #31
 8006038:	d405      	bmi.n	8006046 <_vfiprintf_r+0x2a>
 800603a:	89ab      	ldrh	r3, [r5, #12]
 800603c:	059a      	lsls	r2, r3, #22
 800603e:	d402      	bmi.n	8006046 <_vfiprintf_r+0x2a>
 8006040:	6da8      	ldr	r0, [r5, #88]	; 0x58
 8006042:	f7fd fbb0 	bl	80037a6 <__retarget_lock_acquire_recursive>
 8006046:	89ab      	ldrh	r3, [r5, #12]
 8006048:	071b      	lsls	r3, r3, #28
 800604a:	d501      	bpl.n	8006050 <_vfiprintf_r+0x34>
 800604c:	692b      	ldr	r3, [r5, #16]
 800604e:	b99b      	cbnz	r3, 8006078 <_vfiprintf_r+0x5c>
 8006050:	4629      	mov	r1, r5
 8006052:	4630      	mov	r0, r6
 8006054:	f7fd fad2 	bl	80035fc <__swsetup_r>
 8006058:	b170      	cbz	r0, 8006078 <_vfiprintf_r+0x5c>
 800605a:	6e6b      	ldr	r3, [r5, #100]	; 0x64
 800605c:	07dc      	lsls	r4, r3, #31
 800605e:	d504      	bpl.n	800606a <_vfiprintf_r+0x4e>
 8006060:	f04f 30ff 	mov.w	r0, #4294967295
 8006064:	b01d      	add	sp, #116	; 0x74
 8006066:	e8bd 8ff0 	ldmia.w	sp!, {r4, r5, r6, r7, r8, r9, sl, fp, pc}
 800606a:	89ab      	ldrh	r3, [r5, #12]
 800606c:	0598      	lsls	r0, r3, #22
 800606e:	d4f7      	bmi.n	8006060 <_vfiprintf_r+0x44>
 8006070:	6da8      	ldr	r0, [r5, #88]	; 0x58
 8006072:	f7fd fb99 	bl	80037a8 <__retarget_lock_release_recursive>
 8006076:	e7f3      	b.n	8006060 <_vfiprintf_r+0x44>
 8006078:	2300      	movs	r3, #0
 800607a:	9309      	str	r3, [sp, #36]	; 0x24
 800607c:	2320      	movs	r3, #32
 800607e:	f88d 3029 	strb.w	r3, [sp, #41]	; 0x29
 8006082:	2330      	movs	r3, #48	; 0x30
 8006084:	f04f 0901 	mov.w	r9, #1
 8006088:	f8cd 800c 	str.w	r8, [sp, #12]
 800608c:	f8df 81ac 	ldr.w	r8, [pc, #428]	; 800623c <_vfiprintf_r+0x220>
 8006090:	f88d 302a 	strb.w	r3, [sp, #42]	; 0x2a
 8006094:	4623      	mov	r3, r4
 8006096:	469a      	mov	sl, r3
 8006098:	f813 2b01 	ldrb.w	r2, [r3], #1
 800609c:	b10a      	cbz	r2, 80060a2 <_vfiprintf_r+0x86>
 800609e:	2a25      	cmp	r2, #37	; 0x25
 80060a0:	d1f9      	bne.n	8006096 <_vfiprintf_r+0x7a>
 80060a2:	ebba 0b04 	subs.w	fp, sl, r4
 80060a6:	d00b      	beq.n	80060c0 <_vfiprintf_r+0xa4>
 80060a8:	465b      	mov	r3, fp
 80060aa:	4622      	mov	r2, r4
 80060ac:	4629      	mov	r1, r5
 80060ae:	4630      	mov	r0, r6
 80060b0:	f7ff ffa1 	bl	8005ff6 <__sfputs_r>
 80060b4:	3001      	adds	r0, #1
 80060b6:	f000 80a9 	beq.w	800620c <_vfiprintf_r+0x1f0>
 80060ba:	9a09      	ldr	r2, [sp, #36]	; 0x24
 80060bc:	445a      	add	r2, fp
 80060be:	9209      	str	r2, [sp, #36]	; 0x24
 80060c0:	f89a 3000 	ldrb.w	r3, [sl]
 80060c4:	2b00      	cmp	r3, #0
 80060c6:	f000 80a1 	beq.w	800620c <_vfiprintf_r+0x1f0>
 80060ca:	2300      	movs	r3, #0
 80060cc:	f04f 32ff 	mov.w	r2, #4294967295
 80060d0:	e9cd 2305 	strd	r2, r3, [sp, #20]
 80060d4:	f10a 0a01 	add.w	sl, sl, #1
 80060d8:	9304      	str	r3, [sp, #16]
 80060da:	9307      	str	r3, [sp, #28]
 80060dc:	f88d 3053 	strb.w	r3, [sp, #83]	; 0x53
 80060e0:	931a      	str	r3, [sp, #104]	; 0x68
 80060e2:	4654      	mov	r4, sl
 80060e4:	2205      	movs	r2, #5
 80060e6:	f814 1b01 	ldrb.w	r1, [r4], #1
 80060ea:	4854      	ldr	r0, [pc, #336]	; (800623c <_vfiprintf_r+0x220>)
 80060ec:	f7fd fb5d 	bl	80037aa <memchr>
 80060f0:	9a04      	ldr	r2, [sp, #16]
 80060f2:	b9d8      	cbnz	r0, 800612c <_vfiprintf_r+0x110>
 80060f4:	06d1      	lsls	r1, r2, #27
 80060f6:	bf44      	itt	mi
 80060f8:	2320      	movmi	r3, #32
 80060fa:	f88d 3053 	strbmi.w	r3, [sp, #83]	; 0x53
 80060fe:	0713      	lsls	r3, r2, #28
 8006100:	bf44      	itt	mi
 8006102:	232b      	movmi	r3, #43	; 0x2b
 8006104:	f88d 3053 	strbmi.w	r3, [sp, #83]	; 0x53
 8006108:	f89a 3000 	ldrb.w	r3, [sl]
 800610c:	2b2a      	cmp	r3, #42	; 0x2a
 800610e:	d015      	beq.n	800613c <_vfiprintf_r+0x120>
 8006110:	4654      	mov	r4, sl
 8006112:	2000      	movs	r0, #0
 8006114:	f04f 0c0a 	mov.w	ip, #10
 8006118:	9a07      	ldr	r2, [sp, #28]
 800611a:	4621      	mov	r1, r4
 800611c:	f811 3b01 	ldrb.w	r3, [r1], #1
 8006120:	3b30      	subs	r3, #48	; 0x30
 8006122:	2b09      	cmp	r3, #9
 8006124:	d94d      	bls.n	80061c2 <_vfiprintf_r+0x1a6>
 8006126:	b1b0      	cbz	r0, 8006156 <_vfiprintf_r+0x13a>
 8006128:	9207      	str	r2, [sp, #28]
 800612a:	e014      	b.n	8006156 <_vfiprintf_r+0x13a>
 800612c:	eba0 0308 	sub.w	r3, r0, r8
 8006130:	fa09 f303 	lsl.w	r3, r9, r3
 8006134:	4313      	orrs	r3, r2
 8006136:	46a2      	mov	sl, r4
 8006138:	9304      	str	r3, [sp, #16]
 800613a:	e7d2      	b.n	80060e2 <_vfiprintf_r+0xc6>
 800613c:	9b03      	ldr	r3, [sp, #12]
 800613e:	1d19      	adds	r1, r3, #4
 8006140:	681b      	ldr	r3, [r3, #0]
 8006142:	9103      	str	r1, [sp, #12]
 8006144:	2b00      	cmp	r3, #0
 8006146:	bfbb      	ittet	lt
 8006148:	425b      	neglt	r3, r3
 800614a:	f042 0202 	orrlt.w	r2, r2, #2
 800614e:	9307      	strge	r3, [sp, #28]
 8006150:	9307      	strlt	r3, [sp, #28]
 8006152:	bfb8      	it	lt
 8006154:	9204      	strlt	r2, [sp, #16]
 8006156:	7823      	ldrb	r3, [r4, #0]
 8006158:	2b2e      	cmp	r3, #46	; 0x2e
 800615a:	d10c      	bne.n	8006176 <_vfiprintf_r+0x15a>
 800615c:	7863      	ldrb	r3, [r4, #1]
 800615e:	2b2a      	cmp	r3, #42	; 0x2a
 8006160:	d134      	bne.n	80061cc <_vfiprintf_r+0x1b0>
 8006162:	9b03      	ldr	r3, [sp, #12]
 8006164:	3402      	adds	r4, #2
 8006166:	1d1a      	adds	r2, r3, #4
 8006168:	681b      	ldr	r3, [r3, #0]
 800616a:	9203      	str	r2, [sp, #12]
 800616c:	2b00      	cmp	r3, #0
 800616e:	bfb8      	it	lt
 8006170:	f04f 33ff 	movlt.w	r3, #4294967295
 8006174:	9305      	str	r3, [sp, #20]
 8006176:	f8df a0c8 	ldr.w	sl, [pc, #200]	; 8006240 <_vfiprintf_r+0x224>
 800617a:	2203      	movs	r2, #3
 800617c:	4650      	mov	r0, sl
 800617e:	7821      	ldrb	r1, [r4, #0]
 8006180:	f7fd fb13 	bl	80037aa <memchr>
 8006184:	b138      	cbz	r0, 8006196 <_vfiprintf_r+0x17a>
 8006186:	2240      	movs	r2, #64	; 0x40
 8006188:	9b04      	ldr	r3, [sp, #16]
 800618a:	eba0 000a 	sub.w	r0, r0, sl
 800618e:	4082      	lsls	r2, r0
 8006190:	4313      	orrs	r3, r2
 8006192:	3401      	adds	r4, #1
 8006194:	9304      	str	r3, [sp, #16]
 8006196:	f814 1b01 	ldrb.w	r1, [r4], #1
 800619a:	2206      	movs	r2, #6
 800619c:	4829      	ldr	r0, [pc, #164]	; (8006244 <_vfiprintf_r+0x228>)
 800619e:	f88d 1028 	strb.w	r1, [sp, #40]	; 0x28
 80061a2:	f7fd fb02 	bl	80037aa <memchr>
 80061a6:	2800      	cmp	r0, #0
 80061a8:	d03f      	beq.n	800622a <_vfiprintf_r+0x20e>
 80061aa:	4b27      	ldr	r3, [pc, #156]	; (8006248 <_vfiprintf_r+0x22c>)
 80061ac:	bb1b      	cbnz	r3, 80061f6 <_vfiprintf_r+0x1da>
 80061ae:	9b03      	ldr	r3, [sp, #12]
 80061b0:	3307      	adds	r3, #7
 80061b2:	f023 0307 	bic.w	r3, r3, #7
 80061b6:	3308      	adds	r3, #8
 80061b8:	9303      	str	r3, [sp, #12]
 80061ba:	9b09      	ldr	r3, [sp, #36]	; 0x24
 80061bc:	443b      	add	r3, r7
 80061be:	9309      	str	r3, [sp, #36]	; 0x24
 80061c0:	e768      	b.n	8006094 <_vfiprintf_r+0x78>
 80061c2:	460c      	mov	r4, r1
 80061c4:	2001      	movs	r0, #1
 80061c6:	fb0c 3202 	mla	r2, ip, r2, r3
 80061ca:	e7a6      	b.n	800611a <_vfiprintf_r+0xfe>
 80061cc:	2300      	movs	r3, #0
 80061ce:	f04f 0c0a 	mov.w	ip, #10
 80061d2:	4619      	mov	r1, r3
 80061d4:	3401      	adds	r4, #1
 80061d6:	9305      	str	r3, [sp, #20]
 80061d8:	4620      	mov	r0, r4
 80061da:	f810 2b01 	ldrb.w	r2, [r0], #1
 80061de:	3a30      	subs	r2, #48	; 0x30
 80061e0:	2a09      	cmp	r2, #9
 80061e2:	d903      	bls.n	80061ec <_vfiprintf_r+0x1d0>
 80061e4:	2b00      	cmp	r3, #0
 80061e6:	d0c6      	beq.n	8006176 <_vfiprintf_r+0x15a>
 80061e8:	9105      	str	r1, [sp, #20]
 80061ea:	e7c4      	b.n	8006176 <_vfiprintf_r+0x15a>
 80061ec:	4604      	mov	r4, r0
 80061ee:	2301      	movs	r3, #1
 80061f0:	fb0c 2101 	mla	r1, ip, r1, r2
 80061f4:	e7f0      	b.n	80061d8 <_vfiprintf_r+0x1bc>
 80061f6:	ab03      	add	r3, sp, #12
 80061f8:	9300      	str	r3, [sp, #0]
 80061fa:	462a      	mov	r2, r5
 80061fc:	4630      	mov	r0, r6
 80061fe:	4b13      	ldr	r3, [pc, #76]	; (800624c <_vfiprintf_r+0x230>)
 8006200:	a904      	add	r1, sp, #16
 8006202:	f7fc fa5b 	bl	80026bc <_printf_float>
 8006206:	4607      	mov	r7, r0
 8006208:	1c78      	adds	r0, r7, #1
 800620a:	d1d6      	bne.n	80061ba <_vfiprintf_r+0x19e>
 800620c:	6e6b      	ldr	r3, [r5, #100]	; 0x64
 800620e:	07d9      	lsls	r1, r3, #31
 8006210:	d405      	bmi.n	800621e <_vfiprintf_r+0x202>
 8006212:	89ab      	ldrh	r3, [r5, #12]
 8006214:	059a      	lsls	r2, r3, #22
 8006216:	d402      	bmi.n	800621e <_vfiprintf_r+0x202>
 8006218:	6da8      	ldr	r0, [r5, #88]	; 0x58
 800621a:	f7fd fac5 	bl	80037a8 <__retarget_lock_release_recursive>
 800621e:	89ab      	ldrh	r3, [r5, #12]
 8006220:	065b      	lsls	r3, r3, #25
 8006222:	f53f af1d 	bmi.w	8006060 <_vfiprintf_r+0x44>
 8006226:	9809      	ldr	r0, [sp, #36]	; 0x24
 8006228:	e71c      	b.n	8006064 <_vfiprintf_r+0x48>
 800622a:	ab03      	add	r3, sp, #12
 800622c:	9300      	str	r3, [sp, #0]
 800622e:	462a      	mov	r2, r5
 8006230:	4630      	mov	r0, r6
 8006232:	4b06      	ldr	r3, [pc, #24]	; (800624c <_vfiprintf_r+0x230>)
 8006234:	a904      	add	r1, sp, #16
 8006236:	f7fc fce1 	bl	8002bfc <_printf_i>
 800623a:	e7e4      	b.n	8006206 <_vfiprintf_r+0x1ea>
 800623c:	08007239 	.word	0x08007239
 8006240:	0800723f 	.word	0x0800723f
 8006244:	08007243 	.word	0x08007243
 8006248:	080026bd 	.word	0x080026bd
 800624c:	08005ff7 	.word	0x08005ff7

08006250 <__sflush_r>:
 8006250:	898a      	ldrh	r2, [r1, #12]
 8006252:	b5f8      	push	{r3, r4, r5, r6, r7, lr}
 8006254:	4605      	mov	r5, r0
 8006256:	0710      	lsls	r0, r2, #28
 8006258:	460c      	mov	r4, r1
 800625a:	d457      	bmi.n	800630c <__sflush_r+0xbc>
 800625c:	684b      	ldr	r3, [r1, #4]
 800625e:	2b00      	cmp	r3, #0
 8006260:	dc04      	bgt.n	800626c <__sflush_r+0x1c>
 8006262:	6c0b      	ldr	r3, [r1, #64]	; 0x40
 8006264:	2b00      	cmp	r3, #0
 8006266:	dc01      	bgt.n	800626c <__sflush_r+0x1c>
 8006268:	2000      	movs	r0, #0
 800626a:	bdf8      	pop	{r3, r4, r5, r6, r7, pc}
 800626c:	6ae6      	ldr	r6, [r4, #44]	; 0x2c
 800626e:	2e00      	cmp	r6, #0
 8006270:	d0fa      	beq.n	8006268 <__sflush_r+0x18>
 8006272:	2300      	movs	r3, #0
 8006274:	f412 5280 	ands.w	r2, r2, #4096	; 0x1000
 8006278:	682f      	ldr	r7, [r5, #0]
 800627a:	6a21      	ldr	r1, [r4, #32]
 800627c:	602b      	str	r3, [r5, #0]
 800627e:	d032      	beq.n	80062e6 <__sflush_r+0x96>
 8006280:	6d60      	ldr	r0, [r4, #84]	; 0x54
 8006282:	89a3      	ldrh	r3, [r4, #12]
 8006284:	075a      	lsls	r2, r3, #29
 8006286:	d505      	bpl.n	8006294 <__sflush_r+0x44>
 8006288:	6863      	ldr	r3, [r4, #4]
 800628a:	1ac0      	subs	r0, r0, r3
 800628c:	6b63      	ldr	r3, [r4, #52]	; 0x34
 800628e:	b10b      	cbz	r3, 8006294 <__sflush_r+0x44>
 8006290:	6c23      	ldr	r3, [r4, #64]	; 0x40
 8006292:	1ac0      	subs	r0, r0, r3
 8006294:	2300      	movs	r3, #0
 8006296:	4602      	mov	r2, r0
 8006298:	6ae6      	ldr	r6, [r4, #44]	; 0x2c
 800629a:	4628      	mov	r0, r5
 800629c:	6a21      	ldr	r1, [r4, #32]
 800629e:	47b0      	blx	r6
 80062a0:	1c43      	adds	r3, r0, #1
 80062a2:	89a3      	ldrh	r3, [r4, #12]
 80062a4:	d106      	bne.n	80062b4 <__sflush_r+0x64>
 80062a6:	6829      	ldr	r1, [r5, #0]
 80062a8:	291d      	cmp	r1, #29
 80062aa:	d82b      	bhi.n	8006304 <__sflush_r+0xb4>
 80062ac:	4a28      	ldr	r2, [pc, #160]	; (8006350 <__sflush_r+0x100>)
 80062ae:	410a      	asrs	r2, r1
 80062b0:	07d6      	lsls	r6, r2, #31
 80062b2:	d427      	bmi.n	8006304 <__sflush_r+0xb4>
 80062b4:	2200      	movs	r2, #0
 80062b6:	6062      	str	r2, [r4, #4]
 80062b8:	6922      	ldr	r2, [r4, #16]
 80062ba:	04d9      	lsls	r1, r3, #19
 80062bc:	6022      	str	r2, [r4, #0]
 80062be:	d504      	bpl.n	80062ca <__sflush_r+0x7a>
 80062c0:	1c42      	adds	r2, r0, #1
 80062c2:	d101      	bne.n	80062c8 <__sflush_r+0x78>
 80062c4:	682b      	ldr	r3, [r5, #0]
 80062c6:	b903      	cbnz	r3, 80062ca <__sflush_r+0x7a>
 80062c8:	6560      	str	r0, [r4, #84]	; 0x54
 80062ca:	6b61      	ldr	r1, [r4, #52]	; 0x34
 80062cc:	602f      	str	r7, [r5, #0]
 80062ce:	2900      	cmp	r1, #0
 80062d0:	d0ca      	beq.n	8006268 <__sflush_r+0x18>
 80062d2:	f104 0344 	add.w	r3, r4, #68	; 0x44
 80062d6:	4299      	cmp	r1, r3
 80062d8:	d002      	beq.n	80062e0 <__sflush_r+0x90>
 80062da:	4628      	mov	r0, r5
 80062dc:	f7fe f8e8 	bl	80044b0 <_free_r>
 80062e0:	2000      	movs	r0, #0
 80062e2:	6360      	str	r0, [r4, #52]	; 0x34
 80062e4:	e7c1      	b.n	800626a <__sflush_r+0x1a>
 80062e6:	2301      	movs	r3, #1
 80062e8:	4628      	mov	r0, r5
 80062ea:	47b0      	blx	r6
 80062ec:	1c41      	adds	r1, r0, #1
 80062ee:	d1c8      	bne.n	8006282 <__sflush_r+0x32>
 80062f0:	682b      	ldr	r3, [r5, #0]
 80062f2:	2b00      	cmp	r3, #0
 80062f4:	d0c5      	beq.n	8006282 <__sflush_r+0x32>
 80062f6:	2b1d      	cmp	r3, #29
 80062f8:	d001      	beq.n	80062fe <__sflush_r+0xae>
 80062fa:	2b16      	cmp	r3, #22
 80062fc:	d101      	bne.n	8006302 <__sflush_r+0xb2>
 80062fe:	602f      	str	r7, [r5, #0]
 8006300:	e7b2      	b.n	8006268 <__sflush_r+0x18>
 8006302:	89a3      	ldrh	r3, [r4, #12]
 8006304:	f043 0340 	orr.w	r3, r3, #64	; 0x40
 8006308:	81a3      	strh	r3, [r4, #12]
 800630a:	e7ae      	b.n	800626a <__sflush_r+0x1a>
 800630c:	690f      	ldr	r7, [r1, #16]
 800630e:	2f00      	cmp	r7, #0
 8006310:	d0aa      	beq.n	8006268 <__sflush_r+0x18>
 8006312:	0793      	lsls	r3, r2, #30
 8006314:	bf18      	it	ne
 8006316:	2300      	movne	r3, #0
 8006318:	680e      	ldr	r6, [r1, #0]
 800631a:	bf08      	it	eq
 800631c:	694b      	ldreq	r3, [r1, #20]
 800631e:	1bf6      	subs	r6, r6, r7
 8006320:	600f      	str	r7, [r1, #0]
 8006322:	608b      	str	r3, [r1, #8]
 8006324:	2e00      	cmp	r6, #0
 8006326:	dd9f      	ble.n	8006268 <__sflush_r+0x18>
 8006328:	4633      	mov	r3, r6
 800632a:	463a      	mov	r2, r7
 800632c:	4628      	mov	r0, r5
 800632e:	6a21      	ldr	r1, [r4, #32]
 8006330:	f8d4 c028 	ldr.w	ip, [r4, #40]	; 0x28
 8006334:	47e0      	blx	ip
 8006336:	2800      	cmp	r0, #0
 8006338:	dc06      	bgt.n	8006348 <__sflush_r+0xf8>
 800633a:	89a3      	ldrh	r3, [r4, #12]
 800633c:	f04f 30ff 	mov.w	r0, #4294967295
 8006340:	f043 0340 	orr.w	r3, r3, #64	; 0x40
 8006344:	81a3      	strh	r3, [r4, #12]
 8006346:	e790      	b.n	800626a <__sflush_r+0x1a>
 8006348:	4407      	add	r7, r0
 800634a:	1a36      	subs	r6, r6, r0
 800634c:	e7ea      	b.n	8006324 <__sflush_r+0xd4>
 800634e:	bf00      	nop
 8006350:	dfbffffe 	.word	0xdfbffffe

08006354 <_fflush_r>:
 8006354:	b538      	push	{r3, r4, r5, lr}
 8006356:	690b      	ldr	r3, [r1, #16]
 8006358:	4605      	mov	r5, r0
 800635a:	460c      	mov	r4, r1
 800635c:	b913      	cbnz	r3, 8006364 <_fflush_r+0x10>
 800635e:	2500      	movs	r5, #0
 8006360:	4628      	mov	r0, r5
 8006362:	bd38      	pop	{r3, r4, r5, pc}
 8006364:	b118      	cbz	r0, 800636e <_fflush_r+0x1a>
 8006366:	6a03      	ldr	r3, [r0, #32]
 8006368:	b90b      	cbnz	r3, 800636e <_fflush_r+0x1a>
 800636a:	f7fd f803 	bl	8003374 <__sinit>
 800636e:	f9b4 300c 	ldrsh.w	r3, [r4, #12]
 8006372:	2b00      	cmp	r3, #0
 8006374:	d0f3      	beq.n	800635e <_fflush_r+0xa>
 8006376:	6e62      	ldr	r2, [r4, #100]	; 0x64
 8006378:	07d0      	lsls	r0, r2, #31
 800637a:	d404      	bmi.n	8006386 <_fflush_r+0x32>
 800637c:	0599      	lsls	r1, r3, #22
 800637e:	d402      	bmi.n	8006386 <_fflush_r+0x32>
 8006380:	6da0      	ldr	r0, [r4, #88]	; 0x58
 8006382:	f7fd fa10 	bl	80037a6 <__retarget_lock_acquire_recursive>
 8006386:	4628      	mov	r0, r5
 8006388:	4621      	mov	r1, r4
 800638a:	f7ff ff61 	bl	8006250 <__sflush_r>
 800638e:	6e63      	ldr	r3, [r4, #100]	; 0x64
 8006390:	4605      	mov	r5, r0
 8006392:	07da      	lsls	r2, r3, #31
 8006394:	d4e4      	bmi.n	8006360 <_fflush_r+0xc>
 8006396:	89a3      	ldrh	r3, [r4, #12]
 8006398:	059b      	lsls	r3, r3, #22
 800639a:	d4e1      	bmi.n	8006360 <_fflush_r+0xc>
 800639c:	6da0      	ldr	r0, [r4, #88]	; 0x58
 800639e:	f7fd fa03 	bl	80037a8 <__retarget_lock_release_recursive>
 80063a2:	e7dd      	b.n	8006360 <_fflush_r+0xc>

080063a4 <__swhatbuf_r>:
 80063a4:	b570      	push	{r4, r5, r6, lr}
 80063a6:	460c      	mov	r4, r1
 80063a8:	f9b1 100e 	ldrsh.w	r1, [r1, #14]
 80063ac:	4615      	mov	r5, r2
 80063ae:	2900      	cmp	r1, #0
 80063b0:	461e      	mov	r6, r3
 80063b2:	b096      	sub	sp, #88	; 0x58
 80063b4:	da0c      	bge.n	80063d0 <__swhatbuf_r+0x2c>
 80063b6:	89a3      	ldrh	r3, [r4, #12]
 80063b8:	2100      	movs	r1, #0
 80063ba:	f013 0f80 	tst.w	r3, #128	; 0x80
 80063be:	bf0c      	ite	eq
 80063c0:	f44f 6380 	moveq.w	r3, #1024	; 0x400
 80063c4:	2340      	movne	r3, #64	; 0x40
 80063c6:	2000      	movs	r0, #0
 80063c8:	6031      	str	r1, [r6, #0]
 80063ca:	602b      	str	r3, [r5, #0]
 80063cc:	b016      	add	sp, #88	; 0x58
 80063ce:	bd70      	pop	{r4, r5, r6, pc}
 80063d0:	466a      	mov	r2, sp
 80063d2:	f000 f875 	bl	80064c0 <_fstat_r>
 80063d6:	2800      	cmp	r0, #0
 80063d8:	dbed      	blt.n	80063b6 <__swhatbuf_r+0x12>
 80063da:	9901      	ldr	r1, [sp, #4]
 80063dc:	f401 4170 	and.w	r1, r1, #61440	; 0xf000
 80063e0:	f5a1 5300 	sub.w	r3, r1, #8192	; 0x2000
 80063e4:	4259      	negs	r1, r3
 80063e6:	4159      	adcs	r1, r3
 80063e8:	f44f 6380 	mov.w	r3, #1024	; 0x400
 80063ec:	e7eb      	b.n	80063c6 <__swhatbuf_r+0x22>

080063ee <__smakebuf_r>:
 80063ee:	898b      	ldrh	r3, [r1, #12]
 80063f0:	b573      	push	{r0, r1, r4, r5, r6, lr}
 80063f2:	079d      	lsls	r5, r3, #30
 80063f4:	4606      	mov	r6, r0
 80063f6:	460c      	mov	r4, r1
 80063f8:	d507      	bpl.n	800640a <__smakebuf_r+0x1c>
 80063fa:	f104 0347 	add.w	r3, r4, #71	; 0x47
 80063fe:	6023      	str	r3, [r4, #0]
 8006400:	6123      	str	r3, [r4, #16]
 8006402:	2301      	movs	r3, #1
 8006404:	6163      	str	r3, [r4, #20]
 8006406:	b002      	add	sp, #8
 8006408:	bd70      	pop	{r4, r5, r6, pc}
 800640a:	466a      	mov	r2, sp
 800640c:	ab01      	add	r3, sp, #4
 800640e:	f7ff ffc9 	bl	80063a4 <__swhatbuf_r>
 8006412:	9900      	ldr	r1, [sp, #0]
 8006414:	4605      	mov	r5, r0
 8006416:	4630      	mov	r0, r6
 8006418:	f7fe f8ba 	bl	8004590 <_malloc_r>
 800641c:	b948      	cbnz	r0, 8006432 <__smakebuf_r+0x44>
 800641e:	f9b4 300c 	ldrsh.w	r3, [r4, #12]
 8006422:	059a      	lsls	r2, r3, #22
 8006424:	d4ef      	bmi.n	8006406 <__smakebuf_r+0x18>
 8006426:	f023 0303 	bic.w	r3, r3, #3
 800642a:	f043 0302 	orr.w	r3, r3, #2
 800642e:	81a3      	strh	r3, [r4, #12]
 8006430:	e7e3      	b.n	80063fa <__smakebuf_r+0xc>
 8006432:	89a3      	ldrh	r3, [r4, #12]
 8006434:	6020      	str	r0, [r4, #0]
 8006436:	f043 0380 	orr.w	r3, r3, #128	; 0x80
 800643a:	81a3      	strh	r3, [r4, #12]
 800643c:	9b00      	ldr	r3, [sp, #0]
 800643e:	6120      	str	r0, [r4, #16]
 8006440:	6163      	str	r3, [r4, #20]
 8006442:	9b01      	ldr	r3, [sp, #4]
 8006444:	b15b      	cbz	r3, 800645e <__smakebuf_r+0x70>
 8006446:	4630      	mov	r0, r6
 8006448:	f9b4 100e 	ldrsh.w	r1, [r4, #14]
 800644c:	f000 f84a 	bl	80064e4 <_isatty_r>
 8006450:	b128      	cbz	r0, 800645e <__smakebuf_r+0x70>
 8006452:	89a3      	ldrh	r3, [r4, #12]
 8006454:	f023 0303 	bic.w	r3, r3, #3
 8006458:	f043 0301 	orr.w	r3, r3, #1
 800645c:	81a3      	strh	r3, [r4, #12]
 800645e:	89a3      	ldrh	r3, [r4, #12]
 8006460:	431d      	orrs	r5, r3
 8006462:	81a5      	strh	r5, [r4, #12]
 8006464:	e7cf      	b.n	8006406 <__smakebuf_r+0x18>

08006466 <memmove>:
 8006466:	4288      	cmp	r0, r1
 8006468:	b510      	push	{r4, lr}
 800646a:	eb01 0402 	add.w	r4, r1, r2
 800646e:	d902      	bls.n	8006476 <memmove+0x10>
 8006470:	4284      	cmp	r4, r0
 8006472:	4623      	mov	r3, r4
 8006474:	d807      	bhi.n	8006486 <memmove+0x20>
 8006476:	1e43      	subs	r3, r0, #1
 8006478:	42a1      	cmp	r1, r4
 800647a:	d008      	beq.n	800648e <memmove+0x28>
 800647c:	f811 2b01 	ldrb.w	r2, [r1], #1
 8006480:	f803 2f01 	strb.w	r2, [r3, #1]!
 8006484:	e7f8      	b.n	8006478 <memmove+0x12>
 8006486:	4601      	mov	r1, r0
 8006488:	4402      	add	r2, r0
 800648a:	428a      	cmp	r2, r1
 800648c:	d100      	bne.n	8006490 <memmove+0x2a>
 800648e:	bd10      	pop	{r4, pc}
 8006490:	f813 4d01 	ldrb.w	r4, [r3, #-1]!
 8006494:	f802 4d01 	strb.w	r4, [r2, #-1]!
 8006498:	e7f7      	b.n	800648a <memmove+0x24>

0800649a <strncmp>:
 800649a:	b510      	push	{r4, lr}
 800649c:	b16a      	cbz	r2, 80064ba <strncmp+0x20>
 800649e:	3901      	subs	r1, #1
 80064a0:	1884      	adds	r4, r0, r2
 80064a2:	f810 2b01 	ldrb.w	r2, [r0], #1
 80064a6:	f811 3f01 	ldrb.w	r3, [r1, #1]!
 80064aa:	429a      	cmp	r2, r3
 80064ac:	d103      	bne.n	80064b6 <strncmp+0x1c>
 80064ae:	42a0      	cmp	r0, r4
 80064b0:	d001      	beq.n	80064b6 <strncmp+0x1c>
 80064b2:	2a00      	cmp	r2, #0
 80064b4:	d1f5      	bne.n	80064a2 <strncmp+0x8>
 80064b6:	1ad0      	subs	r0, r2, r3
 80064b8:	bd10      	pop	{r4, pc}
 80064ba:	4610      	mov	r0, r2
 80064bc:	e7fc      	b.n	80064b8 <strncmp+0x1e>
	...

080064c0 <_fstat_r>:
 80064c0:	b538      	push	{r3, r4, r5, lr}
 80064c2:	2300      	movs	r3, #0
 80064c4:	4d06      	ldr	r5, [pc, #24]	; (80064e0 <_fstat_r+0x20>)
 80064c6:	4604      	mov	r4, r0
 80064c8:	4608      	mov	r0, r1
 80064ca:	4611      	mov	r1, r2
 80064cc:	602b      	str	r3, [r5, #0]
 80064ce:	f7fa fe7e 	bl	80011ce <_fstat>
 80064d2:	1c43      	adds	r3, r0, #1
 80064d4:	d102      	bne.n	80064dc <_fstat_r+0x1c>
 80064d6:	682b      	ldr	r3, [r5, #0]
 80064d8:	b103      	cbz	r3, 80064dc <_fstat_r+0x1c>
 80064da:	6023      	str	r3, [r4, #0]
 80064dc:	bd38      	pop	{r3, r4, r5, pc}
 80064de:	bf00      	nop
 80064e0:	20000430 	.word	0x20000430

080064e4 <_isatty_r>:
 80064e4:	b538      	push	{r3, r4, r5, lr}
 80064e6:	2300      	movs	r3, #0
 80064e8:	4d05      	ldr	r5, [pc, #20]	; (8006500 <_isatty_r+0x1c>)
 80064ea:	4604      	mov	r4, r0
 80064ec:	4608      	mov	r0, r1
 80064ee:	602b      	str	r3, [r5, #0]
 80064f0:	f7fa fe72 	bl	80011d8 <_isatty>
 80064f4:	1c43      	adds	r3, r0, #1
 80064f6:	d102      	bne.n	80064fe <_isatty_r+0x1a>
 80064f8:	682b      	ldr	r3, [r5, #0]
 80064fa:	b103      	cbz	r3, 80064fe <_isatty_r+0x1a>
 80064fc:	6023      	str	r3, [r4, #0]
 80064fe:	bd38      	pop	{r3, r4, r5, pc}
 8006500:	20000430 	.word	0x20000430

08006504 <_sbrk_r>:
 8006504:	b538      	push	{r3, r4, r5, lr}
 8006506:	2300      	movs	r3, #0
 8006508:	4d05      	ldr	r5, [pc, #20]	; (8006520 <_sbrk_r+0x1c>)
 800650a:	4604      	mov	r4, r0
 800650c:	4608      	mov	r0, r1
 800650e:	602b      	str	r3, [r5, #0]
 8006510:	f7fa fe66 	bl	80011e0 <_sbrk>
 8006514:	1c43      	adds	r3, r0, #1
 8006516:	d102      	bne.n	800651e <_sbrk_r+0x1a>
 8006518:	682b      	ldr	r3, [r5, #0]
 800651a:	b103      	cbz	r3, 800651e <_sbrk_r+0x1a>
 800651c:	6023      	str	r3, [r4, #0]
 800651e:	bd38      	pop	{r3, r4, r5, pc}
 8006520:	20000430 	.word	0x20000430

08006524 <memcpy>:
 8006524:	440a      	add	r2, r1
 8006526:	4291      	cmp	r1, r2
 8006528:	f100 33ff 	add.w	r3, r0, #4294967295
 800652c:	d100      	bne.n	8006530 <memcpy+0xc>
 800652e:	4770      	bx	lr
 8006530:	b510      	push	{r4, lr}
 8006532:	f811 4b01 	ldrb.w	r4, [r1], #1
 8006536:	4291      	cmp	r1, r2
 8006538:	f803 4f01 	strb.w	r4, [r3, #1]!
 800653c:	d1f9      	bne.n	8006532 <memcpy+0xe>
 800653e:	bd10      	pop	{r4, pc}

08006540 <nan>:
 8006540:	2000      	movs	r0, #0
 8006542:	4901      	ldr	r1, [pc, #4]	; (8006548 <nan+0x8>)
 8006544:	4770      	bx	lr
 8006546:	bf00      	nop
 8006548:	7ff80000 	.word	0x7ff80000

0800654c <__assert_func>:
 800654c:	b51f      	push	{r0, r1, r2, r3, r4, lr}
 800654e:	4614      	mov	r4, r2
 8006550:	461a      	mov	r2, r3
 8006552:	4b09      	ldr	r3, [pc, #36]	; (8006578 <__assert_func+0x2c>)
 8006554:	4605      	mov	r5, r0
 8006556:	681b      	ldr	r3, [r3, #0]
 8006558:	68d8      	ldr	r0, [r3, #12]
 800655a:	b14c      	cbz	r4, 8006570 <__assert_func+0x24>
 800655c:	4b07      	ldr	r3, [pc, #28]	; (800657c <__assert_func+0x30>)
 800655e:	e9cd 3401 	strd	r3, r4, [sp, #4]
 8006562:	9100      	str	r1, [sp, #0]
 8006564:	462b      	mov	r3, r5
 8006566:	4906      	ldr	r1, [pc, #24]	; (8006580 <__assert_func+0x34>)
 8006568:	f000 fbca 	bl	8006d00 <fiprintf>
 800656c:	f000 fbda 	bl	8006d24 <abort>
 8006570:	4b04      	ldr	r3, [pc, #16]	; (8006584 <__assert_func+0x38>)
 8006572:	461c      	mov	r4, r3
 8006574:	e7f3      	b.n	800655e <__assert_func+0x12>
 8006576:	bf00      	nop
 8006578:	20000080 	.word	0x20000080
 800657c:	08007252 	.word	0x08007252
 8006580:	0800725f 	.word	0x0800725f
 8006584:	08006e30 	.word	0x08006e30

08006588 <_calloc_r>:
 8006588:	b570      	push	{r4, r5, r6, lr}
 800658a:	fba1 5402 	umull	r5, r4, r1, r2
 800658e:	b934      	cbnz	r4, 800659e <_calloc_r+0x16>
 8006590:	4629      	mov	r1, r5
 8006592:	f7fd fffd 	bl	8004590 <_malloc_r>
 8006596:	4606      	mov	r6, r0
 8006598:	b928      	cbnz	r0, 80065a6 <_calloc_r+0x1e>
 800659a:	4630      	mov	r0, r6
 800659c:	bd70      	pop	{r4, r5, r6, pc}
 800659e:	220c      	movs	r2, #12
 80065a0:	2600      	movs	r6, #0
 80065a2:	6002      	str	r2, [r0, #0]
 80065a4:	e7f9      	b.n	800659a <_calloc_r+0x12>
 80065a6:	462a      	mov	r2, r5
 80065a8:	4621      	mov	r1, r4
 80065aa:	f7fd f87f 	bl	80036ac <memset>
 80065ae:	e7f4      	b.n	800659a <_calloc_r+0x12>

080065b0 <rshift>:
 80065b0:	6903      	ldr	r3, [r0, #16]
 80065b2:	e92d 43f0 	stmdb	sp!, {r4, r5, r6, r7, r8, r9, lr}
 80065b6:	ebb3 1f61 	cmp.w	r3, r1, asr #5
 80065ba:	f100 0414 	add.w	r4, r0, #20
 80065be:	ea4f 1261 	mov.w	r2, r1, asr #5
 80065c2:	dd46      	ble.n	8006652 <rshift+0xa2>
 80065c4:	f011 011f 	ands.w	r1, r1, #31
 80065c8:	eb04 0683 	add.w	r6, r4, r3, lsl #2
 80065cc:	eb04 0582 	add.w	r5, r4, r2, lsl #2
 80065d0:	d10c      	bne.n	80065ec <rshift+0x3c>
 80065d2:	4629      	mov	r1, r5
 80065d4:	f100 0710 	add.w	r7, r0, #16
 80065d8:	42b1      	cmp	r1, r6
 80065da:	d335      	bcc.n	8006648 <rshift+0x98>
 80065dc:	1a9b      	subs	r3, r3, r2
 80065de:	009b      	lsls	r3, r3, #2
 80065e0:	1eea      	subs	r2, r5, #3
 80065e2:	4296      	cmp	r6, r2
 80065e4:	bf38      	it	cc
 80065e6:	2300      	movcc	r3, #0
 80065e8:	4423      	add	r3, r4
 80065ea:	e015      	b.n	8006618 <rshift+0x68>
 80065ec:	46a1      	mov	r9, r4
 80065ee:	f854 7022 	ldr.w	r7, [r4, r2, lsl #2]
 80065f2:	f1c1 0820 	rsb	r8, r1, #32
 80065f6:	40cf      	lsrs	r7, r1
 80065f8:	f105 0e04 	add.w	lr, r5, #4
 80065fc:	4576      	cmp	r6, lr
 80065fe:	46f4      	mov	ip, lr
 8006600:	d816      	bhi.n	8006630 <rshift+0x80>
 8006602:	1a9a      	subs	r2, r3, r2
 8006604:	0092      	lsls	r2, r2, #2
 8006606:	3a04      	subs	r2, #4
 8006608:	3501      	adds	r5, #1
 800660a:	42ae      	cmp	r6, r5
 800660c:	bf38      	it	cc
 800660e:	2200      	movcc	r2, #0
 8006610:	18a3      	adds	r3, r4, r2
 8006612:	50a7      	str	r7, [r4, r2]
 8006614:	b107      	cbz	r7, 8006618 <rshift+0x68>
 8006616:	3304      	adds	r3, #4
 8006618:	42a3      	cmp	r3, r4
 800661a:	eba3 0204 	sub.w	r2, r3, r4
 800661e:	bf08      	it	eq
 8006620:	2300      	moveq	r3, #0
 8006622:	ea4f 02a2 	mov.w	r2, r2, asr #2
 8006626:	6102      	str	r2, [r0, #16]
 8006628:	bf08      	it	eq
 800662a:	6143      	streq	r3, [r0, #20]
 800662c:	e8bd 83f0 	ldmia.w	sp!, {r4, r5, r6, r7, r8, r9, pc}
 8006630:	f8dc c000 	ldr.w	ip, [ip]
 8006634:	fa0c fc08 	lsl.w	ip, ip, r8
 8006638:	ea4c 0707 	orr.w	r7, ip, r7
 800663c:	f849 7b04 	str.w	r7, [r9], #4
 8006640:	f85e 7b04 	ldr.w	r7, [lr], #4
 8006644:	40cf      	lsrs	r7, r1
 8006646:	e7d9      	b.n	80065fc <rshift+0x4c>
 8006648:	f851 cb04 	ldr.w	ip, [r1], #4
 800664c:	f847 cf04 	str.w	ip, [r7, #4]!
 8006650:	e7c2      	b.n	80065d8 <rshift+0x28>
 8006652:	4623      	mov	r3, r4
 8006654:	e7e0      	b.n	8006618 <rshift+0x68>

08006656 <__hexdig_fun>:
 8006656:	f1a0 0330 	sub.w	r3, r0, #48	; 0x30
 800665a:	2b09      	cmp	r3, #9
 800665c:	d802      	bhi.n	8006664 <__hexdig_fun+0xe>
 800665e:	3820      	subs	r0, #32
 8006660:	b2c0      	uxtb	r0, r0
 8006662:	4770      	bx	lr
 8006664:	f1a0 0361 	sub.w	r3, r0, #97	; 0x61
 8006668:	2b05      	cmp	r3, #5
 800666a:	d801      	bhi.n	8006670 <__hexdig_fun+0x1a>
 800666c:	3847      	subs	r0, #71	; 0x47
 800666e:	e7f7      	b.n	8006660 <__hexdig_fun+0xa>
 8006670:	f1a0 0341 	sub.w	r3, r0, #65	; 0x41
 8006674:	2b05      	cmp	r3, #5
 8006676:	d801      	bhi.n	800667c <__hexdig_fun+0x26>
 8006678:	3827      	subs	r0, #39	; 0x27
 800667a:	e7f1      	b.n	8006660 <__hexdig_fun+0xa>
 800667c:	2000      	movs	r0, #0
 800667e:	4770      	bx	lr

08006680 <__gethex>:
 8006680:	e92d 4ff0 	stmdb	sp!, {r4, r5, r6, r7, r8, r9, sl, fp, lr}
 8006684:	4681      	mov	r9, r0
 8006686:	468a      	mov	sl, r1
 8006688:	4617      	mov	r7, r2
 800668a:	680a      	ldr	r2, [r1, #0]
 800668c:	b085      	sub	sp, #20
 800668e:	f102 0b02 	add.w	fp, r2, #2
 8006692:	f1c2 22ff 	rsb	r2, r2, #4278255360	; 0xff00ff00
 8006696:	f502 027f 	add.w	r2, r2, #16711680	; 0xff0000
 800669a:	9302      	str	r3, [sp, #8]
 800669c:	32fe      	adds	r2, #254	; 0xfe
 800669e:	eb02 030b 	add.w	r3, r2, fp
 80066a2:	46d8      	mov	r8, fp
 80066a4:	f81b 0b01 	ldrb.w	r0, [fp], #1
 80066a8:	9301      	str	r3, [sp, #4]
 80066aa:	2830      	cmp	r0, #48	; 0x30
 80066ac:	d0f7      	beq.n	800669e <__gethex+0x1e>
 80066ae:	f7ff ffd2 	bl	8006656 <__hexdig_fun>
 80066b2:	4604      	mov	r4, r0
 80066b4:	2800      	cmp	r0, #0
 80066b6:	d138      	bne.n	800672a <__gethex+0xaa>
 80066b8:	2201      	movs	r2, #1
 80066ba:	4640      	mov	r0, r8
 80066bc:	49a7      	ldr	r1, [pc, #668]	; (800695c <__gethex+0x2dc>)
 80066be:	f7ff feec 	bl	800649a <strncmp>
 80066c2:	4606      	mov	r6, r0
 80066c4:	2800      	cmp	r0, #0
 80066c6:	d169      	bne.n	800679c <__gethex+0x11c>
 80066c8:	f898 0001 	ldrb.w	r0, [r8, #1]
 80066cc:	465d      	mov	r5, fp
 80066ce:	f7ff ffc2 	bl	8006656 <__hexdig_fun>
 80066d2:	2800      	cmp	r0, #0
 80066d4:	d064      	beq.n	80067a0 <__gethex+0x120>
 80066d6:	465a      	mov	r2, fp
 80066d8:	7810      	ldrb	r0, [r2, #0]
 80066da:	4690      	mov	r8, r2
 80066dc:	2830      	cmp	r0, #48	; 0x30
 80066de:	f102 0201 	add.w	r2, r2, #1
 80066e2:	d0f9      	beq.n	80066d8 <__gethex+0x58>
 80066e4:	f7ff ffb7 	bl	8006656 <__hexdig_fun>
 80066e8:	2301      	movs	r3, #1
 80066ea:	fab0 f480 	clz	r4, r0
 80066ee:	465e      	mov	r6, fp
 80066f0:	0964      	lsrs	r4, r4, #5
 80066f2:	9301      	str	r3, [sp, #4]
 80066f4:	4642      	mov	r2, r8
 80066f6:	4615      	mov	r5, r2
 80066f8:	7828      	ldrb	r0, [r5, #0]
 80066fa:	3201      	adds	r2, #1
 80066fc:	f7ff ffab 	bl	8006656 <__hexdig_fun>
 8006700:	2800      	cmp	r0, #0
 8006702:	d1f8      	bne.n	80066f6 <__gethex+0x76>
 8006704:	2201      	movs	r2, #1
 8006706:	4628      	mov	r0, r5
 8006708:	4994      	ldr	r1, [pc, #592]	; (800695c <__gethex+0x2dc>)
 800670a:	f7ff fec6 	bl	800649a <strncmp>
 800670e:	b978      	cbnz	r0, 8006730 <__gethex+0xb0>
 8006710:	b946      	cbnz	r6, 8006724 <__gethex+0xa4>
 8006712:	1c6e      	adds	r6, r5, #1
 8006714:	4632      	mov	r2, r6
 8006716:	4615      	mov	r5, r2
 8006718:	7828      	ldrb	r0, [r5, #0]
 800671a:	3201      	adds	r2, #1
 800671c:	f7ff ff9b 	bl	8006656 <__hexdig_fun>
 8006720:	2800      	cmp	r0, #0
 8006722:	d1f8      	bne.n	8006716 <__gethex+0x96>
 8006724:	1b73      	subs	r3, r6, r5
 8006726:	009e      	lsls	r6, r3, #2
 8006728:	e004      	b.n	8006734 <__gethex+0xb4>
 800672a:	2400      	movs	r4, #0
 800672c:	4626      	mov	r6, r4
 800672e:	e7e1      	b.n	80066f4 <__gethex+0x74>
 8006730:	2e00      	cmp	r6, #0
 8006732:	d1f7      	bne.n	8006724 <__gethex+0xa4>
 8006734:	782b      	ldrb	r3, [r5, #0]
 8006736:	f003 03df 	and.w	r3, r3, #223	; 0xdf
 800673a:	2b50      	cmp	r3, #80	; 0x50
 800673c:	d13d      	bne.n	80067ba <__gethex+0x13a>
 800673e:	786b      	ldrb	r3, [r5, #1]
 8006740:	2b2b      	cmp	r3, #43	; 0x2b
 8006742:	d02f      	beq.n	80067a4 <__gethex+0x124>
 8006744:	2b2d      	cmp	r3, #45	; 0x2d
 8006746:	d031      	beq.n	80067ac <__gethex+0x12c>
 8006748:	f04f 0b00 	mov.w	fp, #0
 800674c:	1c69      	adds	r1, r5, #1
 800674e:	7808      	ldrb	r0, [r1, #0]
 8006750:	f7ff ff81 	bl	8006656 <__hexdig_fun>
 8006754:	1e42      	subs	r2, r0, #1
 8006756:	b2d2      	uxtb	r2, r2
 8006758:	2a18      	cmp	r2, #24
 800675a:	d82e      	bhi.n	80067ba <__gethex+0x13a>
 800675c:	f1a0 0210 	sub.w	r2, r0, #16
 8006760:	f811 0f01 	ldrb.w	r0, [r1, #1]!
 8006764:	f7ff ff77 	bl	8006656 <__hexdig_fun>
 8006768:	f100 3cff 	add.w	ip, r0, #4294967295
 800676c:	fa5f fc8c 	uxtb.w	ip, ip
 8006770:	f1bc 0f18 	cmp.w	ip, #24
 8006774:	d91d      	bls.n	80067b2 <__gethex+0x132>
 8006776:	f1bb 0f00 	cmp.w	fp, #0
 800677a:	d000      	beq.n	800677e <__gethex+0xfe>
 800677c:	4252      	negs	r2, r2
 800677e:	4416      	add	r6, r2
 8006780:	f8ca 1000 	str.w	r1, [sl]
 8006784:	b1dc      	cbz	r4, 80067be <__gethex+0x13e>
 8006786:	9b01      	ldr	r3, [sp, #4]
 8006788:	2b00      	cmp	r3, #0
 800678a:	bf14      	ite	ne
 800678c:	f04f 0800 	movne.w	r8, #0
 8006790:	f04f 0806 	moveq.w	r8, #6
 8006794:	4640      	mov	r0, r8
 8006796:	b005      	add	sp, #20
 8006798:	e8bd 8ff0 	ldmia.w	sp!, {r4, r5, r6, r7, r8, r9, sl, fp, pc}
 800679c:	4645      	mov	r5, r8
 800679e:	4626      	mov	r6, r4
 80067a0:	2401      	movs	r4, #1
 80067a2:	e7c7      	b.n	8006734 <__gethex+0xb4>
 80067a4:	f04f 0b00 	mov.w	fp, #0
 80067a8:	1ca9      	adds	r1, r5, #2
 80067aa:	e7d0      	b.n	800674e <__gethex+0xce>
 80067ac:	f04f 0b01 	mov.w	fp, #1
 80067b0:	e7fa      	b.n	80067a8 <__gethex+0x128>
 80067b2:	230a      	movs	r3, #10
 80067b4:	fb03 0002 	mla	r0, r3, r2, r0
 80067b8:	e7d0      	b.n	800675c <__gethex+0xdc>
 80067ba:	4629      	mov	r1, r5
 80067bc:	e7e0      	b.n	8006780 <__gethex+0x100>
 80067be:	4621      	mov	r1, r4
 80067c0:	eba5 0308 	sub.w	r3, r5, r8
 80067c4:	3b01      	subs	r3, #1
 80067c6:	2b07      	cmp	r3, #7
 80067c8:	dc0a      	bgt.n	80067e0 <__gethex+0x160>
 80067ca:	4648      	mov	r0, r9
 80067cc:	f7fd ff6c 	bl	80046a8 <_Balloc>
 80067d0:	4604      	mov	r4, r0
 80067d2:	b940      	cbnz	r0, 80067e6 <__gethex+0x166>
 80067d4:	4602      	mov	r2, r0
 80067d6:	21e4      	movs	r1, #228	; 0xe4
 80067d8:	4b61      	ldr	r3, [pc, #388]	; (8006960 <__gethex+0x2e0>)
 80067da:	4862      	ldr	r0, [pc, #392]	; (8006964 <__gethex+0x2e4>)
 80067dc:	f7ff feb6 	bl	800654c <__assert_func>
 80067e0:	3101      	adds	r1, #1
 80067e2:	105b      	asrs	r3, r3, #1
 80067e4:	e7ef      	b.n	80067c6 <__gethex+0x146>
 80067e6:	2300      	movs	r3, #0
 80067e8:	469b      	mov	fp, r3
 80067ea:	f100 0a14 	add.w	sl, r0, #20
 80067ee:	f8cd a004 	str.w	sl, [sp, #4]
 80067f2:	45a8      	cmp	r8, r5
 80067f4:	d344      	bcc.n	8006880 <__gethex+0x200>
 80067f6:	f8dd 8004 	ldr.w	r8, [sp, #4]
 80067fa:	4658      	mov	r0, fp
 80067fc:	f848 bb04 	str.w	fp, [r8], #4
 8006800:	eba8 080a 	sub.w	r8, r8, sl
 8006804:	ea4f 02a8 	mov.w	r2, r8, asr #2
 8006808:	6122      	str	r2, [r4, #16]
 800680a:	ea4f 1842 	mov.w	r8, r2, lsl #5
 800680e:	f7fe f83d 	bl	800488c <__hi0bits>
 8006812:	683d      	ldr	r5, [r7, #0]
 8006814:	eba8 0800 	sub.w	r8, r8, r0
 8006818:	45a8      	cmp	r8, r5
 800681a:	dd59      	ble.n	80068d0 <__gethex+0x250>
 800681c:	eba8 0805 	sub.w	r8, r8, r5
 8006820:	4641      	mov	r1, r8
 8006822:	4620      	mov	r0, r4
 8006824:	f7fe fbbb 	bl	8004f9e <__any_on>
 8006828:	4683      	mov	fp, r0
 800682a:	b1b8      	cbz	r0, 800685c <__gethex+0x1dc>
 800682c:	f04f 0b01 	mov.w	fp, #1
 8006830:	f108 33ff 	add.w	r3, r8, #4294967295
 8006834:	1159      	asrs	r1, r3, #5
 8006836:	f85a 1021 	ldr.w	r1, [sl, r1, lsl #2]
 800683a:	f003 021f 	and.w	r2, r3, #31
 800683e:	fa0b f202 	lsl.w	r2, fp, r2
 8006842:	420a      	tst	r2, r1
 8006844:	d00a      	beq.n	800685c <__gethex+0x1dc>
 8006846:	455b      	cmp	r3, fp
 8006848:	dd06      	ble.n	8006858 <__gethex+0x1d8>
 800684a:	4620      	mov	r0, r4
 800684c:	f1a8 0102 	sub.w	r1, r8, #2
 8006850:	f7fe fba5 	bl	8004f9e <__any_on>
 8006854:	2800      	cmp	r0, #0
 8006856:	d138      	bne.n	80068ca <__gethex+0x24a>
 8006858:	f04f 0b02 	mov.w	fp, #2
 800685c:	4641      	mov	r1, r8
 800685e:	4620      	mov	r0, r4
 8006860:	f7ff fea6 	bl	80065b0 <rshift>
 8006864:	4446      	add	r6, r8
 8006866:	68bb      	ldr	r3, [r7, #8]
 8006868:	42b3      	cmp	r3, r6
 800686a:	da41      	bge.n	80068f0 <__gethex+0x270>
 800686c:	4621      	mov	r1, r4
 800686e:	4648      	mov	r0, r9
 8006870:	f7fd ff5a 	bl	8004728 <_Bfree>
 8006874:	2300      	movs	r3, #0
 8006876:	9a0e      	ldr	r2, [sp, #56]	; 0x38
 8006878:	f04f 08a3 	mov.w	r8, #163	; 0xa3
 800687c:	6013      	str	r3, [r2, #0]
 800687e:	e789      	b.n	8006794 <__gethex+0x114>
 8006880:	f815 2d01 	ldrb.w	r2, [r5, #-1]!
 8006884:	2a2e      	cmp	r2, #46	; 0x2e
 8006886:	d014      	beq.n	80068b2 <__gethex+0x232>
 8006888:	2b20      	cmp	r3, #32
 800688a:	d106      	bne.n	800689a <__gethex+0x21a>
 800688c:	9b01      	ldr	r3, [sp, #4]
 800688e:	f843 bb04 	str.w	fp, [r3], #4
 8006892:	f04f 0b00 	mov.w	fp, #0
 8006896:	9301      	str	r3, [sp, #4]
 8006898:	465b      	mov	r3, fp
 800689a:	7828      	ldrb	r0, [r5, #0]
 800689c:	9303      	str	r3, [sp, #12]
 800689e:	f7ff feda 	bl	8006656 <__hexdig_fun>
 80068a2:	9b03      	ldr	r3, [sp, #12]
 80068a4:	f000 000f 	and.w	r0, r0, #15
 80068a8:	4098      	lsls	r0, r3
 80068aa:	ea4b 0b00 	orr.w	fp, fp, r0
 80068ae:	3304      	adds	r3, #4
 80068b0:	e79f      	b.n	80067f2 <__gethex+0x172>
 80068b2:	45a8      	cmp	r8, r5
 80068b4:	d8e8      	bhi.n	8006888 <__gethex+0x208>
 80068b6:	2201      	movs	r2, #1
 80068b8:	4628      	mov	r0, r5
 80068ba:	4928      	ldr	r1, [pc, #160]	; (800695c <__gethex+0x2dc>)
 80068bc:	9303      	str	r3, [sp, #12]
 80068be:	f7ff fdec 	bl	800649a <strncmp>
 80068c2:	9b03      	ldr	r3, [sp, #12]
 80068c4:	2800      	cmp	r0, #0
 80068c6:	d1df      	bne.n	8006888 <__gethex+0x208>
 80068c8:	e793      	b.n	80067f2 <__gethex+0x172>
 80068ca:	f04f 0b03 	mov.w	fp, #3
 80068ce:	e7c5      	b.n	800685c <__gethex+0x1dc>
 80068d0:	da0b      	bge.n	80068ea <__gethex+0x26a>
 80068d2:	eba5 0808 	sub.w	r8, r5, r8
 80068d6:	4621      	mov	r1, r4
 80068d8:	4642      	mov	r2, r8
 80068da:	4648      	mov	r0, r9
 80068dc:	f7fe f93c 	bl	8004b58 <__lshift>
 80068e0:	4604      	mov	r4, r0
 80068e2:	eba6 0608 	sub.w	r6, r6, r8
 80068e6:	f100 0a14 	add.w	sl, r0, #20
 80068ea:	f04f 0b00 	mov.w	fp, #0
 80068ee:	e7ba      	b.n	8006866 <__gethex+0x1e6>
 80068f0:	687b      	ldr	r3, [r7, #4]
 80068f2:	42b3      	cmp	r3, r6
 80068f4:	dd74      	ble.n	80069e0 <__gethex+0x360>
 80068f6:	1b9e      	subs	r6, r3, r6
 80068f8:	42b5      	cmp	r5, r6
 80068fa:	dc35      	bgt.n	8006968 <__gethex+0x2e8>
 80068fc:	68fb      	ldr	r3, [r7, #12]
 80068fe:	2b02      	cmp	r3, #2
 8006900:	d023      	beq.n	800694a <__gethex+0x2ca>
 8006902:	2b03      	cmp	r3, #3
 8006904:	d025      	beq.n	8006952 <__gethex+0x2d2>
 8006906:	2b01      	cmp	r3, #1
 8006908:	d115      	bne.n	8006936 <__gethex+0x2b6>
 800690a:	42b5      	cmp	r5, r6
 800690c:	d113      	bne.n	8006936 <__gethex+0x2b6>
 800690e:	2d01      	cmp	r5, #1
 8006910:	d10b      	bne.n	800692a <__gethex+0x2aa>
 8006912:	687b      	ldr	r3, [r7, #4]
 8006914:	9a02      	ldr	r2, [sp, #8]
 8006916:	f04f 0862 	mov.w	r8, #98	; 0x62
 800691a:	6013      	str	r3, [r2, #0]
 800691c:	2301      	movs	r3, #1
 800691e:	6123      	str	r3, [r4, #16]
 8006920:	f8ca 3000 	str.w	r3, [sl]
 8006924:	9b0e      	ldr	r3, [sp, #56]	; 0x38
 8006926:	601c      	str	r4, [r3, #0]
 8006928:	e734      	b.n	8006794 <__gethex+0x114>
 800692a:	4620      	mov	r0, r4
 800692c:	1e69      	subs	r1, r5, #1
 800692e:	f7fe fb36 	bl	8004f9e <__any_on>
 8006932:	2800      	cmp	r0, #0
 8006934:	d1ed      	bne.n	8006912 <__gethex+0x292>
 8006936:	4621      	mov	r1, r4
 8006938:	4648      	mov	r0, r9
 800693a:	f7fd fef5 	bl	8004728 <_Bfree>
 800693e:	2300      	movs	r3, #0
 8006940:	9a0e      	ldr	r2, [sp, #56]	; 0x38
 8006942:	f04f 0850 	mov.w	r8, #80	; 0x50
 8006946:	6013      	str	r3, [r2, #0]
 8006948:	e724      	b.n	8006794 <__gethex+0x114>
 800694a:	9b0f      	ldr	r3, [sp, #60]	; 0x3c
 800694c:	2b00      	cmp	r3, #0
 800694e:	d1f2      	bne.n	8006936 <__gethex+0x2b6>
 8006950:	e7df      	b.n	8006912 <__gethex+0x292>
 8006952:	9b0f      	ldr	r3, [sp, #60]	; 0x3c
 8006954:	2b00      	cmp	r3, #0
 8006956:	d1dc      	bne.n	8006912 <__gethex+0x292>
 8006958:	e7ed      	b.n	8006936 <__gethex+0x2b6>
 800695a:	bf00      	nop
 800695c:	080070e4 	.word	0x080070e4
 8006960:	08006f7a 	.word	0x08006f7a
 8006964:	0800728e 	.word	0x0800728e
 8006968:	f106 38ff 	add.w	r8, r6, #4294967295
 800696c:	f1bb 0f00 	cmp.w	fp, #0
 8006970:	d133      	bne.n	80069da <__gethex+0x35a>
 8006972:	f1b8 0f00 	cmp.w	r8, #0
 8006976:	d004      	beq.n	8006982 <__gethex+0x302>
 8006978:	4641      	mov	r1, r8
 800697a:	4620      	mov	r0, r4
 800697c:	f7fe fb0f 	bl	8004f9e <__any_on>
 8006980:	4683      	mov	fp, r0
 8006982:	2301      	movs	r3, #1
 8006984:	ea4f 1268 	mov.w	r2, r8, asr #5
 8006988:	f008 081f 	and.w	r8, r8, #31
 800698c:	fa03 f308 	lsl.w	r3, r3, r8
 8006990:	f04f 0802 	mov.w	r8, #2
 8006994:	f85a 2022 	ldr.w	r2, [sl, r2, lsl #2]
 8006998:	4631      	mov	r1, r6
 800699a:	4213      	tst	r3, r2
 800699c:	4620      	mov	r0, r4
 800699e:	bf18      	it	ne
 80069a0:	f04b 0b02 	orrne.w	fp, fp, #2
 80069a4:	1bad      	subs	r5, r5, r6
 80069a6:	f7ff fe03 	bl	80065b0 <rshift>
 80069aa:	687e      	ldr	r6, [r7, #4]
 80069ac:	f1bb 0f00 	cmp.w	fp, #0
 80069b0:	d04a      	beq.n	8006a48 <__gethex+0x3c8>
 80069b2:	68fb      	ldr	r3, [r7, #12]
 80069b4:	2b02      	cmp	r3, #2
 80069b6:	d016      	beq.n	80069e6 <__gethex+0x366>
 80069b8:	2b03      	cmp	r3, #3
 80069ba:	d018      	beq.n	80069ee <__gethex+0x36e>
 80069bc:	2b01      	cmp	r3, #1
 80069be:	d109      	bne.n	80069d4 <__gethex+0x354>
 80069c0:	f01b 0f02 	tst.w	fp, #2
 80069c4:	d006      	beq.n	80069d4 <__gethex+0x354>
 80069c6:	f8da 3000 	ldr.w	r3, [sl]
 80069ca:	ea4b 0b03 	orr.w	fp, fp, r3
 80069ce:	f01b 0f01 	tst.w	fp, #1
 80069d2:	d10f      	bne.n	80069f4 <__gethex+0x374>
 80069d4:	f048 0810 	orr.w	r8, r8, #16
 80069d8:	e036      	b.n	8006a48 <__gethex+0x3c8>
 80069da:	f04f 0b01 	mov.w	fp, #1
 80069de:	e7d0      	b.n	8006982 <__gethex+0x302>
 80069e0:	f04f 0801 	mov.w	r8, #1
 80069e4:	e7e2      	b.n	80069ac <__gethex+0x32c>
 80069e6:	9b0f      	ldr	r3, [sp, #60]	; 0x3c
 80069e8:	f1c3 0301 	rsb	r3, r3, #1
 80069ec:	930f      	str	r3, [sp, #60]	; 0x3c
 80069ee:	9b0f      	ldr	r3, [sp, #60]	; 0x3c
 80069f0:	2b00      	cmp	r3, #0
 80069f2:	d0ef      	beq.n	80069d4 <__gethex+0x354>
 80069f4:	f8d4 b010 	ldr.w	fp, [r4, #16]
 80069f8:	f104 0214 	add.w	r2, r4, #20
 80069fc:	ea4f 038b 	mov.w	r3, fp, lsl #2
 8006a00:	9301      	str	r3, [sp, #4]
 8006a02:	2300      	movs	r3, #0
 8006a04:	eb02 008b 	add.w	r0, r2, fp, lsl #2
 8006a08:	4694      	mov	ip, r2
 8006a0a:	f852 1b04 	ldr.w	r1, [r2], #4
 8006a0e:	f1b1 3fff 	cmp.w	r1, #4294967295
 8006a12:	d01e      	beq.n	8006a52 <__gethex+0x3d2>
 8006a14:	3101      	adds	r1, #1
 8006a16:	f8cc 1000 	str.w	r1, [ip]
 8006a1a:	f1b8 0f02 	cmp.w	r8, #2
 8006a1e:	f104 0214 	add.w	r2, r4, #20
 8006a22:	d13d      	bne.n	8006aa0 <__gethex+0x420>
 8006a24:	683b      	ldr	r3, [r7, #0]
 8006a26:	3b01      	subs	r3, #1
 8006a28:	42ab      	cmp	r3, r5
 8006a2a:	d10b      	bne.n	8006a44 <__gethex+0x3c4>
 8006a2c:	2301      	movs	r3, #1
 8006a2e:	1169      	asrs	r1, r5, #5
 8006a30:	f005 051f 	and.w	r5, r5, #31
 8006a34:	fa03 f505 	lsl.w	r5, r3, r5
 8006a38:	f852 3021 	ldr.w	r3, [r2, r1, lsl #2]
 8006a3c:	421d      	tst	r5, r3
 8006a3e:	bf18      	it	ne
 8006a40:	f04f 0801 	movne.w	r8, #1
 8006a44:	f048 0820 	orr.w	r8, r8, #32
 8006a48:	9b0e      	ldr	r3, [sp, #56]	; 0x38
 8006a4a:	601c      	str	r4, [r3, #0]
 8006a4c:	9b02      	ldr	r3, [sp, #8]
 8006a4e:	601e      	str	r6, [r3, #0]
 8006a50:	e6a0      	b.n	8006794 <__gethex+0x114>
 8006a52:	4290      	cmp	r0, r2
 8006a54:	f842 3c04 	str.w	r3, [r2, #-4]
 8006a58:	d8d6      	bhi.n	8006a08 <__gethex+0x388>
 8006a5a:	68a2      	ldr	r2, [r4, #8]
 8006a5c:	4593      	cmp	fp, r2
 8006a5e:	db17      	blt.n	8006a90 <__gethex+0x410>
 8006a60:	6861      	ldr	r1, [r4, #4]
 8006a62:	4648      	mov	r0, r9
 8006a64:	3101      	adds	r1, #1
 8006a66:	f7fd fe1f 	bl	80046a8 <_Balloc>
 8006a6a:	4682      	mov	sl, r0
 8006a6c:	b918      	cbnz	r0, 8006a76 <__gethex+0x3f6>
 8006a6e:	4602      	mov	r2, r0
 8006a70:	2184      	movs	r1, #132	; 0x84
 8006a72:	4b1a      	ldr	r3, [pc, #104]	; (8006adc <__gethex+0x45c>)
 8006a74:	e6b1      	b.n	80067da <__gethex+0x15a>
 8006a76:	6922      	ldr	r2, [r4, #16]
 8006a78:	f104 010c 	add.w	r1, r4, #12
 8006a7c:	3202      	adds	r2, #2
 8006a7e:	0092      	lsls	r2, r2, #2
 8006a80:	300c      	adds	r0, #12
 8006a82:	f7ff fd4f 	bl	8006524 <memcpy>
 8006a86:	4621      	mov	r1, r4
 8006a88:	4648      	mov	r0, r9
 8006a8a:	f7fd fe4d 	bl	8004728 <_Bfree>
 8006a8e:	4654      	mov	r4, sl
 8006a90:	6922      	ldr	r2, [r4, #16]
 8006a92:	1c51      	adds	r1, r2, #1
 8006a94:	6121      	str	r1, [r4, #16]
 8006a96:	2101      	movs	r1, #1
 8006a98:	eb04 0282 	add.w	r2, r4, r2, lsl #2
 8006a9c:	6151      	str	r1, [r2, #20]
 8006a9e:	e7bc      	b.n	8006a1a <__gethex+0x39a>
 8006aa0:	6921      	ldr	r1, [r4, #16]
 8006aa2:	4559      	cmp	r1, fp
 8006aa4:	dd0b      	ble.n	8006abe <__gethex+0x43e>
 8006aa6:	2101      	movs	r1, #1
 8006aa8:	4620      	mov	r0, r4
 8006aaa:	f7ff fd81 	bl	80065b0 <rshift>
 8006aae:	68bb      	ldr	r3, [r7, #8]
 8006ab0:	3601      	adds	r6, #1
 8006ab2:	42b3      	cmp	r3, r6
 8006ab4:	f6ff aeda 	blt.w	800686c <__gethex+0x1ec>
 8006ab8:	f04f 0801 	mov.w	r8, #1
 8006abc:	e7c2      	b.n	8006a44 <__gethex+0x3c4>
 8006abe:	f015 051f 	ands.w	r5, r5, #31
 8006ac2:	d0f9      	beq.n	8006ab8 <__gethex+0x438>
 8006ac4:	9b01      	ldr	r3, [sp, #4]
 8006ac6:	f1c5 0520 	rsb	r5, r5, #32
 8006aca:	441a      	add	r2, r3
 8006acc:	f852 0c04 	ldr.w	r0, [r2, #-4]
 8006ad0:	f7fd fedc 	bl	800488c <__hi0bits>
 8006ad4:	42a8      	cmp	r0, r5
 8006ad6:	dbe6      	blt.n	8006aa6 <__gethex+0x426>
 8006ad8:	e7ee      	b.n	8006ab8 <__gethex+0x438>
 8006ada:	bf00      	nop
 8006adc:	08006f7a 	.word	0x08006f7a

08006ae0 <L_shift>:
 8006ae0:	f1c2 0208 	rsb	r2, r2, #8
 8006ae4:	0092      	lsls	r2, r2, #2
 8006ae6:	b570      	push	{r4, r5, r6, lr}
 8006ae8:	f1c2 0620 	rsb	r6, r2, #32
 8006aec:	6843      	ldr	r3, [r0, #4]
 8006aee:	6804      	ldr	r4, [r0, #0]
 8006af0:	fa03 f506 	lsl.w	r5, r3, r6
 8006af4:	432c      	orrs	r4, r5
 8006af6:	40d3      	lsrs	r3, r2
 8006af8:	6004      	str	r4, [r0, #0]
 8006afa:	f840 3f04 	str.w	r3, [r0, #4]!
 8006afe:	4288      	cmp	r0, r1
 8006b00:	d3f4      	bcc.n	8006aec <L_shift+0xc>
 8006b02:	bd70      	pop	{r4, r5, r6, pc}

08006b04 <__match>:
 8006b04:	b530      	push	{r4, r5, lr}
 8006b06:	6803      	ldr	r3, [r0, #0]
 8006b08:	3301      	adds	r3, #1
 8006b0a:	f811 4b01 	ldrb.w	r4, [r1], #1
 8006b0e:	b914      	cbnz	r4, 8006b16 <__match+0x12>
 8006b10:	6003      	str	r3, [r0, #0]
 8006b12:	2001      	movs	r0, #1
 8006b14:	bd30      	pop	{r4, r5, pc}
 8006b16:	f813 2b01 	ldrb.w	r2, [r3], #1
 8006b1a:	f1a2 0541 	sub.w	r5, r2, #65	; 0x41
 8006b1e:	2d19      	cmp	r5, #25
 8006b20:	bf98      	it	ls
 8006b22:	3220      	addls	r2, #32
 8006b24:	42a2      	cmp	r2, r4
 8006b26:	d0f0      	beq.n	8006b0a <__match+0x6>
 8006b28:	2000      	movs	r0, #0
 8006b2a:	e7f3      	b.n	8006b14 <__match+0x10>

08006b2c <__hexnan>:
 8006b2c:	e92d 4ff0 	stmdb	sp!, {r4, r5, r6, r7, r8, r9, sl, fp, lr}
 8006b30:	2500      	movs	r5, #0
 8006b32:	680b      	ldr	r3, [r1, #0]
 8006b34:	4682      	mov	sl, r0
 8006b36:	115e      	asrs	r6, r3, #5
 8006b38:	eb02 0686 	add.w	r6, r2, r6, lsl #2
 8006b3c:	f013 031f 	ands.w	r3, r3, #31
 8006b40:	bf18      	it	ne
 8006b42:	3604      	addne	r6, #4
 8006b44:	1f37      	subs	r7, r6, #4
 8006b46:	4690      	mov	r8, r2
 8006b48:	46b9      	mov	r9, r7
 8006b4a:	463c      	mov	r4, r7
 8006b4c:	46ab      	mov	fp, r5
 8006b4e:	b087      	sub	sp, #28
 8006b50:	6801      	ldr	r1, [r0, #0]
 8006b52:	9301      	str	r3, [sp, #4]
 8006b54:	f846 5c04 	str.w	r5, [r6, #-4]
 8006b58:	9502      	str	r5, [sp, #8]
 8006b5a:	784a      	ldrb	r2, [r1, #1]
 8006b5c:	1c4b      	adds	r3, r1, #1
 8006b5e:	9303      	str	r3, [sp, #12]
 8006b60:	b342      	cbz	r2, 8006bb4 <__hexnan+0x88>
 8006b62:	4610      	mov	r0, r2
 8006b64:	9105      	str	r1, [sp, #20]
 8006b66:	9204      	str	r2, [sp, #16]
 8006b68:	f7ff fd75 	bl	8006656 <__hexdig_fun>
 8006b6c:	2800      	cmp	r0, #0
 8006b6e:	d14f      	bne.n	8006c10 <__hexnan+0xe4>
 8006b70:	9a04      	ldr	r2, [sp, #16]
 8006b72:	9905      	ldr	r1, [sp, #20]
 8006b74:	2a20      	cmp	r2, #32
 8006b76:	d818      	bhi.n	8006baa <__hexnan+0x7e>
 8006b78:	9b02      	ldr	r3, [sp, #8]
 8006b7a:	459b      	cmp	fp, r3
 8006b7c:	dd13      	ble.n	8006ba6 <__hexnan+0x7a>
 8006b7e:	454c      	cmp	r4, r9
 8006b80:	d206      	bcs.n	8006b90 <__hexnan+0x64>
 8006b82:	2d07      	cmp	r5, #7
 8006b84:	dc04      	bgt.n	8006b90 <__hexnan+0x64>
 8006b86:	462a      	mov	r2, r5
 8006b88:	4649      	mov	r1, r9
 8006b8a:	4620      	mov	r0, r4
 8006b8c:	f7ff ffa8 	bl	8006ae0 <L_shift>
 8006b90:	4544      	cmp	r4, r8
 8006b92:	d950      	bls.n	8006c36 <__hexnan+0x10a>
 8006b94:	2300      	movs	r3, #0
 8006b96:	f1a4 0904 	sub.w	r9, r4, #4
 8006b9a:	f844 3c04 	str.w	r3, [r4, #-4]
 8006b9e:	461d      	mov	r5, r3
 8006ba0:	464c      	mov	r4, r9
 8006ba2:	f8cd b008 	str.w	fp, [sp, #8]
 8006ba6:	9903      	ldr	r1, [sp, #12]
 8006ba8:	e7d7      	b.n	8006b5a <__hexnan+0x2e>
 8006baa:	2a29      	cmp	r2, #41	; 0x29
 8006bac:	d155      	bne.n	8006c5a <__hexnan+0x12e>
 8006bae:	3102      	adds	r1, #2
 8006bb0:	f8ca 1000 	str.w	r1, [sl]
 8006bb4:	f1bb 0f00 	cmp.w	fp, #0
 8006bb8:	d04f      	beq.n	8006c5a <__hexnan+0x12e>
 8006bba:	454c      	cmp	r4, r9
 8006bbc:	d206      	bcs.n	8006bcc <__hexnan+0xa0>
 8006bbe:	2d07      	cmp	r5, #7
 8006bc0:	dc04      	bgt.n	8006bcc <__hexnan+0xa0>
 8006bc2:	462a      	mov	r2, r5
 8006bc4:	4649      	mov	r1, r9
 8006bc6:	4620      	mov	r0, r4
 8006bc8:	f7ff ff8a 	bl	8006ae0 <L_shift>
 8006bcc:	4544      	cmp	r4, r8
 8006bce:	d934      	bls.n	8006c3a <__hexnan+0x10e>
 8006bd0:	4623      	mov	r3, r4
 8006bd2:	f1a8 0204 	sub.w	r2, r8, #4
 8006bd6:	f853 1b04 	ldr.w	r1, [r3], #4
 8006bda:	429f      	cmp	r7, r3
 8006bdc:	f842 1f04 	str.w	r1, [r2, #4]!
 8006be0:	d2f9      	bcs.n	8006bd6 <__hexnan+0xaa>
 8006be2:	1b3b      	subs	r3, r7, r4
 8006be4:	f023 0303 	bic.w	r3, r3, #3
 8006be8:	3304      	adds	r3, #4
 8006bea:	3e03      	subs	r6, #3
 8006bec:	3401      	adds	r4, #1
 8006bee:	42a6      	cmp	r6, r4
 8006bf0:	bf38      	it	cc
 8006bf2:	2304      	movcc	r3, #4
 8006bf4:	2200      	movs	r2, #0
 8006bf6:	4443      	add	r3, r8
 8006bf8:	f843 2b04 	str.w	r2, [r3], #4
 8006bfc:	429f      	cmp	r7, r3
 8006bfe:	d2fb      	bcs.n	8006bf8 <__hexnan+0xcc>
 8006c00:	683b      	ldr	r3, [r7, #0]
 8006c02:	b91b      	cbnz	r3, 8006c0c <__hexnan+0xe0>
 8006c04:	4547      	cmp	r7, r8
 8006c06:	d126      	bne.n	8006c56 <__hexnan+0x12a>
 8006c08:	2301      	movs	r3, #1
 8006c0a:	603b      	str	r3, [r7, #0]
 8006c0c:	2005      	movs	r0, #5
 8006c0e:	e025      	b.n	8006c5c <__hexnan+0x130>
 8006c10:	3501      	adds	r5, #1
 8006c12:	2d08      	cmp	r5, #8
 8006c14:	f10b 0b01 	add.w	fp, fp, #1
 8006c18:	dd06      	ble.n	8006c28 <__hexnan+0xfc>
 8006c1a:	4544      	cmp	r4, r8
 8006c1c:	d9c3      	bls.n	8006ba6 <__hexnan+0x7a>
 8006c1e:	2300      	movs	r3, #0
 8006c20:	2501      	movs	r5, #1
 8006c22:	f844 3c04 	str.w	r3, [r4, #-4]
 8006c26:	3c04      	subs	r4, #4
 8006c28:	6822      	ldr	r2, [r4, #0]
 8006c2a:	f000 000f 	and.w	r0, r0, #15
 8006c2e:	ea40 1002 	orr.w	r0, r0, r2, lsl #4
 8006c32:	6020      	str	r0, [r4, #0]
 8006c34:	e7b7      	b.n	8006ba6 <__hexnan+0x7a>
 8006c36:	2508      	movs	r5, #8
 8006c38:	e7b5      	b.n	8006ba6 <__hexnan+0x7a>
 8006c3a:	9b01      	ldr	r3, [sp, #4]
 8006c3c:	2b00      	cmp	r3, #0
 8006c3e:	d0df      	beq.n	8006c00 <__hexnan+0xd4>
 8006c40:	f04f 32ff 	mov.w	r2, #4294967295
 8006c44:	f1c3 0320 	rsb	r3, r3, #32
 8006c48:	40da      	lsrs	r2, r3
 8006c4a:	f856 3c04 	ldr.w	r3, [r6, #-4]
 8006c4e:	4013      	ands	r3, r2
 8006c50:	f846 3c04 	str.w	r3, [r6, #-4]
 8006c54:	e7d4      	b.n	8006c00 <__hexnan+0xd4>
 8006c56:	3f04      	subs	r7, #4
 8006c58:	e7d2      	b.n	8006c00 <__hexnan+0xd4>
 8006c5a:	2004      	movs	r0, #4
 8006c5c:	b007      	add	sp, #28
 8006c5e:	e8bd 8ff0 	ldmia.w	sp!, {r4, r5, r6, r7, r8, r9, sl, fp, pc}

08006c62 <__ascii_mbtowc>:
 8006c62:	b082      	sub	sp, #8
 8006c64:	b901      	cbnz	r1, 8006c68 <__ascii_mbtowc+0x6>
 8006c66:	a901      	add	r1, sp, #4
 8006c68:	b142      	cbz	r2, 8006c7c <__ascii_mbtowc+0x1a>
 8006c6a:	b14b      	cbz	r3, 8006c80 <__ascii_mbtowc+0x1e>
 8006c6c:	7813      	ldrb	r3, [r2, #0]
 8006c6e:	600b      	str	r3, [r1, #0]
 8006c70:	7812      	ldrb	r2, [r2, #0]
 8006c72:	1e10      	subs	r0, r2, #0
 8006c74:	bf18      	it	ne
 8006c76:	2001      	movne	r0, #1
 8006c78:	b002      	add	sp, #8
 8006c7a:	4770      	bx	lr
 8006c7c:	4610      	mov	r0, r2
 8006c7e:	e7fb      	b.n	8006c78 <__ascii_mbtowc+0x16>
 8006c80:	f06f 0001 	mvn.w	r0, #1
 8006c84:	e7f8      	b.n	8006c78 <__ascii_mbtowc+0x16>

08006c86 <_realloc_r>:
 8006c86:	e92d 41f0 	stmdb	sp!, {r4, r5, r6, r7, r8, lr}
 8006c8a:	4680      	mov	r8, r0
 8006c8c:	4614      	mov	r4, r2
 8006c8e:	460e      	mov	r6, r1
 8006c90:	b921      	cbnz	r1, 8006c9c <_realloc_r+0x16>
 8006c92:	4611      	mov	r1, r2
 8006c94:	e8bd 41f0 	ldmia.w	sp!, {r4, r5, r6, r7, r8, lr}
 8006c98:	f7fd bc7a 	b.w	8004590 <_malloc_r>
 8006c9c:	b92a      	cbnz	r2, 8006caa <_realloc_r+0x24>
 8006c9e:	f7fd fc07 	bl	80044b0 <_free_r>
 8006ca2:	4625      	mov	r5, r4
 8006ca4:	4628      	mov	r0, r5
 8006ca6:	e8bd 81f0 	ldmia.w	sp!, {r4, r5, r6, r7, r8, pc}
 8006caa:	f000 f842 	bl	8006d32 <_malloc_usable_size_r>
 8006cae:	4284      	cmp	r4, r0
 8006cb0:	4607      	mov	r7, r0
 8006cb2:	d802      	bhi.n	8006cba <_realloc_r+0x34>
 8006cb4:	ebb4 0f50 	cmp.w	r4, r0, lsr #1
 8006cb8:	d812      	bhi.n	8006ce0 <_realloc_r+0x5a>
 8006cba:	4621      	mov	r1, r4
 8006cbc:	4640      	mov	r0, r8
 8006cbe:	f7fd fc67 	bl	8004590 <_malloc_r>
 8006cc2:	4605      	mov	r5, r0
 8006cc4:	2800      	cmp	r0, #0
 8006cc6:	d0ed      	beq.n	8006ca4 <_realloc_r+0x1e>
 8006cc8:	42bc      	cmp	r4, r7
 8006cca:	4622      	mov	r2, r4
 8006ccc:	4631      	mov	r1, r6
 8006cce:	bf28      	it	cs
 8006cd0:	463a      	movcs	r2, r7
 8006cd2:	f7ff fc27 	bl	8006524 <memcpy>
 8006cd6:	4631      	mov	r1, r6
 8006cd8:	4640      	mov	r0, r8
 8006cda:	f7fd fbe9 	bl	80044b0 <_free_r>
 8006cde:	e7e1      	b.n	8006ca4 <_realloc_r+0x1e>
 8006ce0:	4635      	mov	r5, r6
 8006ce2:	e7df      	b.n	8006ca4 <_realloc_r+0x1e>

08006ce4 <__ascii_wctomb>:
 8006ce4:	4603      	mov	r3, r0
 8006ce6:	4608      	mov	r0, r1
 8006ce8:	b141      	cbz	r1, 8006cfc <__ascii_wctomb+0x18>
 8006cea:	2aff      	cmp	r2, #255	; 0xff
 8006cec:	d904      	bls.n	8006cf8 <__ascii_wctomb+0x14>
 8006cee:	228a      	movs	r2, #138	; 0x8a
 8006cf0:	f04f 30ff 	mov.w	r0, #4294967295
 8006cf4:	601a      	str	r2, [r3, #0]
 8006cf6:	4770      	bx	lr
 8006cf8:	2001      	movs	r0, #1
 8006cfa:	700a      	strb	r2, [r1, #0]
 8006cfc:	4770      	bx	lr
	...

08006d00 <fiprintf>:
 8006d00:	b40e      	push	{r1, r2, r3}
 8006d02:	b503      	push	{r0, r1, lr}
 8006d04:	4601      	mov	r1, r0
 8006d06:	ab03      	add	r3, sp, #12
 8006d08:	4805      	ldr	r0, [pc, #20]	; (8006d20 <fiprintf+0x20>)
 8006d0a:	f853 2b04 	ldr.w	r2, [r3], #4
 8006d0e:	6800      	ldr	r0, [r0, #0]
 8006d10:	9301      	str	r3, [sp, #4]
 8006d12:	f7ff f983 	bl	800601c <_vfiprintf_r>
 8006d16:	b002      	add	sp, #8
 8006d18:	f85d eb04 	ldr.w	lr, [sp], #4
 8006d1c:	b003      	add	sp, #12
 8006d1e:	4770      	bx	lr
 8006d20:	20000080 	.word	0x20000080

08006d24 <abort>:
 8006d24:	2006      	movs	r0, #6
 8006d26:	b508      	push	{r3, lr}
 8006d28:	f000 f834 	bl	8006d94 <raise>
 8006d2c:	2001      	movs	r0, #1
 8006d2e:	f7fa fa29 	bl	8001184 <_exit>

08006d32 <_malloc_usable_size_r>:
 8006d32:	f851 3c04 	ldr.w	r3, [r1, #-4]
 8006d36:	1f18      	subs	r0, r3, #4
 8006d38:	2b00      	cmp	r3, #0
 8006d3a:	bfbc      	itt	lt
 8006d3c:	580b      	ldrlt	r3, [r1, r0]
 8006d3e:	18c0      	addlt	r0, r0, r3
 8006d40:	4770      	bx	lr

08006d42 <_raise_r>:
 8006d42:	291f      	cmp	r1, #31
 8006d44:	b538      	push	{r3, r4, r5, lr}
 8006d46:	4604      	mov	r4, r0
 8006d48:	460d      	mov	r5, r1
 8006d4a:	d904      	bls.n	8006d56 <_raise_r+0x14>
 8006d4c:	2316      	movs	r3, #22
 8006d4e:	6003      	str	r3, [r0, #0]
 8006d50:	f04f 30ff 	mov.w	r0, #4294967295
 8006d54:	bd38      	pop	{r3, r4, r5, pc}
 8006d56:	6bc2      	ldr	r2, [r0, #60]	; 0x3c
 8006d58:	b112      	cbz	r2, 8006d60 <_raise_r+0x1e>
 8006d5a:	f852 3021 	ldr.w	r3, [r2, r1, lsl #2]
 8006d5e:	b94b      	cbnz	r3, 8006d74 <_raise_r+0x32>
 8006d60:	4620      	mov	r0, r4
 8006d62:	f000 f831 	bl	8006dc8 <_getpid_r>
 8006d66:	462a      	mov	r2, r5
 8006d68:	4601      	mov	r1, r0
 8006d6a:	4620      	mov	r0, r4
 8006d6c:	e8bd 4038 	ldmia.w	sp!, {r3, r4, r5, lr}
 8006d70:	f000 b818 	b.w	8006da4 <_kill_r>
 8006d74:	2b01      	cmp	r3, #1
 8006d76:	d00a      	beq.n	8006d8e <_raise_r+0x4c>
 8006d78:	1c59      	adds	r1, r3, #1
 8006d7a:	d103      	bne.n	8006d84 <_raise_r+0x42>
 8006d7c:	2316      	movs	r3, #22
 8006d7e:	6003      	str	r3, [r0, #0]
 8006d80:	2001      	movs	r0, #1
 8006d82:	e7e7      	b.n	8006d54 <_raise_r+0x12>
 8006d84:	2400      	movs	r4, #0
 8006d86:	4628      	mov	r0, r5
 8006d88:	f842 4025 	str.w	r4, [r2, r5, lsl #2]
 8006d8c:	4798      	blx	r3
 8006d8e:	2000      	movs	r0, #0
 8006d90:	e7e0      	b.n	8006d54 <_raise_r+0x12>
	...

08006d94 <raise>:
 8006d94:	4b02      	ldr	r3, [pc, #8]	; (8006da0 <raise+0xc>)
 8006d96:	4601      	mov	r1, r0
 8006d98:	6818      	ldr	r0, [r3, #0]
 8006d9a:	f7ff bfd2 	b.w	8006d42 <_raise_r>
 8006d9e:	bf00      	nop
 8006da0:	20000080 	.word	0x20000080

08006da4 <_kill_r>:
 8006da4:	b538      	push	{r3, r4, r5, lr}
 8006da6:	2300      	movs	r3, #0
 8006da8:	4d06      	ldr	r5, [pc, #24]	; (8006dc4 <_kill_r+0x20>)
 8006daa:	4604      	mov	r4, r0
 8006dac:	4608      	mov	r0, r1
 8006dae:	4611      	mov	r1, r2
 8006db0:	602b      	str	r3, [r5, #0]
 8006db2:	f7fa f9df 	bl	8001174 <_kill>
 8006db6:	1c43      	adds	r3, r0, #1
 8006db8:	d102      	bne.n	8006dc0 <_kill_r+0x1c>
 8006dba:	682b      	ldr	r3, [r5, #0]
 8006dbc:	b103      	cbz	r3, 8006dc0 <_kill_r+0x1c>
 8006dbe:	6023      	str	r3, [r4, #0]
 8006dc0:	bd38      	pop	{r3, r4, r5, pc}
 8006dc2:	bf00      	nop
 8006dc4:	20000430 	.word	0x20000430

08006dc8 <_getpid_r>:
 8006dc8:	f7fa b9d2 	b.w	8001170 <_getpid>

08006dcc <_init>:
 8006dcc:	b5f8      	push	{r3, r4, r5, r6, r7, lr}
 8006dce:	bf00      	nop
 8006dd0:	bcf8      	pop	{r3, r4, r5, r6, r7}
 8006dd2:	bc08      	pop	{r3}
 8006dd4:	469e      	mov	lr, r3
 8006dd6:	4770      	bx	lr

08006dd8 <_fini>:
 8006dd8:	b5f8      	push	{r3, r4, r5, r6, r7, lr}
 8006dda:	bf00      	nop
 8006ddc:	bcf8      	pop	{r3, r4, r5, r6, r7}
 8006dde:	bc08      	pop	{r3}
 8006de0:	469e      	mov	lr, r3
 8006de2:	4770      	bx	lr
